(dp1
I1
(dp2
S'exon list'
p3
(lp4
I1
aI2
aI3
asS'variants'
p5
(dp6
I1
(dp7
S'position'
p8
I5044
sS'transcript'
p9
S'NM_001330.3'
p10
sS'new base'
p11
S'A'
sS'hgvs'
p12
S'c.G8A'
p13
ssI2
(dp14
g8
I7920
sg9
g10
sg11
S'A'
sg12
S'c.G138A'
p15
ssI3
(dp16
g8
I11850
sg9
g10
sg11
S'C'
sg12
S'c.*918T>C'
p17
sssS'exons'
p18
(dp19
I1
(dp20
S'start'
p21
I5001
sS'length'
p22
I61
sS'padded length'
p23
I361
sS'end'
p24
I5062
sS'padded seq'
p25
(lp26
S'A'
aS'C'
aS'T'
aS'A'
aS'G'
aS'G'
aS'C'
aS'C'
aS'C'
aS'C'
aS'A'
aS'C'
aS'G'
aS'G'
aS'A'
aS'C'
aS'G'
aS'A'
aS'G'
aS'G'
aS'A'
aS'G'
aS'C'
aS'T'
aS'G'
aS'A'
aS'G'
aS'C'
aS'T'
aS'C'
aS'A'
aS'G'
aS'G'
aS'G'
aS'C'
aS'C'
aS'A'
aS'A'
aS'G'
aS'G'
aS'A'
aS'A'
aS'T'
aS'C'
aS'C'
aS'T'
aS'G'
aS'T'
aS'C'
aS'T'
aS'C'
aS'A'
aS'A'
aS'A'
aS'A'
aS'G'
aS'G'
aS'G'
aS'G'
aS'G'
aS'G'
aS'G'
aS'T'
aS'A'
aS'G'
aS'G'
aS'A'
aS'T'
aS'G'
aS'A'
aS'A'
aS'A'
aS'T'
aS'G'
aS'T'
aS'T'
aS'T'
aS'G'
aS'G'
aS'G'
aS'G'
aS'T'
aS'C'
aS'T'
aS'G'
aS'G'
aS'G'
aS'C'
aS'T'
aS'C'
aS'T'
aS'G'
aS'A'
aS'T'
aS'T'
aS'G'
aS'G'
aS'C'
aS'T'
aS'G'
aS'C'
aS'G'
aS'C'
aS'C'
aS'C'
aS'G'
aS'G'
aS'G'
aS'C'
aS'C'
aS'A'
aS'C'
aS'G'
aS'C'
aS'C'
aS'C'
aS'C'
aS'C'
aS'A'
aS'G'
aS'C'
aS'C'
aS'C'
aS'T'
aS'T'
aS'T'
aS'C'
aS'C'
aS'C'
aS'C'
aS'T'
aS'T'
aS'T'
aS'C'
aS'T'
aS'C'
aS'C'
aS'C'
aS'C'
aS'C'
aS'C'
aS'T'
aS'C'
aS'G'
aS'A'
aS'A'
aS'A'
aS'G'
aS'G'
aS'G'
aS'G'
aS'G'
aS'G'
aS'C'
aS'G'
aS'T'
aS'G'
aS'A'
aS'A'
aS'G'
aS'G'
aS'G'
aS'A'
aS'G'
aS'C'
aS'C'
aS'G'
aS'G'
aS'G'
aS'A'
aS'T'
aS'C'
aS'A'
aS'G'
aS'C'
aS'C'
aS'A'
aS'G'
aS'G'
aS'G'
aS'G'
aS'C'
aS'C'
aS'A'
aS'G'
aS'C'
aS'A'
aS'T'
aS'G'
aS'A'
aS'G'
aS'C'
aS'C'
aS'A'
aS'G'
aS'A'
aS'G'
aS'G'
aS'G'
aS'A'
aS'G'
aS'G'
aS'G'
aS'A'
aS'A'
aS'G'
aS'T'
aS'C'
aS'T'
aS'G'
aS'G'
aS'G'
aS'T'
aS'A'
aS'A'
aS'G'
aS'G'
aS'G'
aS'G'
aS'C'
aS'T'
aS'G'
aS'A'
aS'G'
aS'G'
aS'G'
aS'A'
aS'C'
aS'C'
aS'G'
aS'G'
aS'A'
aS'C'
aS'G'
aS'C'
aS'C'
aS'G'
aS'G'
aS'G'
aS'T'
aS'C'
aS'G'
aS'C'
aS'T'
aS'G'
aS'A'
aS'G'
aS'G'
aS'G'
aS'G'
aS'C'
aS'G'
aS'C'
aS'A'
aS'G'
aS'G'
aS'A'
aS'G'
aS'T'
aS'C'
aS'A'
aS'G'
aS'A'
aS'G'
aS'G'
aS'G'
aS'A'
aS'T'
aS'T'
aS'G'
aS'G'
aS'G'
aS'A'
aS'G'
aS'C'
aS'T'
aS'G'
aS'G'
aS'G'
aS'G'
aS'G'
aS'T'
aS'C'
aS'T'
aS'G'
aS'G'
aS'G'
aS'T'
aS'T'
aS'T'
aS'C'
aS'C'
aS'G'
aS'C'
aS'C'
aS'A'
aS'C'
aS'C'
aS'C'
aS'C'
aS'C'
aS'G'
aS'G'
aS'G'
aS'T'
aS'C'
aS'C'
aS'G'
aS'G'
aS'G'
aS'A'
aS'G'
aS'G'
aS'G'
aS'G'
aS'A'
aS'G'
aS'C'
aS'G'
aS'G'
aS'C'
aS'C'
aS'T'
aS'T'
aS'G'
aS'G'
aS'C'
aS'G'
aS'G'
aS'G'
aS'G'
aS'A'
aS'A'
aS'G'
aS'G'
aS'G'
aS'C'
aS'A'
aS'G'
aS'G'
aS'G'
aS'C'
aS'T'
aS'C'
aS'C'
aS'G'
aS'G'
aS'T'
aS'G'
aS'T'
aS'C'
aS'A'
aS'G'
aS'G'
aS'T'
aS'A'
aS'A'
aS'C'
aS'G'
aS'A'
aS'G'
assI2
(dp27
g21
I7809
sg22
I118
sg23
I418
sg24
I7927
sg25
(lp28
S'C'
aS'C'
aS'A'
aS'C'
aS'C'
aS'T'
aS'G'
aS'C'
aS'T'
aS'T'
aS'G'
aS'A'
aS'C'
aS'A'
aS'A'
aS'A'
aS'G'
aS'T'
aS'T'
aS'C'
aS'T'
aS'G'
aS'G'
aS'T'
aS'G'
aS'C'
aS'C'
aS'T'
aS'C'
aS'A'
aS'T'
aS'T'
aS'T'
aS'T'
aS'C'
aS'C'
aS'T'
aS'T'
aS'C'
aS'A'
aS'G'
aS'T'
aS'T'
aS'G'
aS'G'
aS'A'
aS'A'
aS'T'
aS'G'
aS'G'
aS'G'
aS'A'
aS'C'
aS'A'
aS'G'
aS'A'
aS'C'
aS'C'
aS'C'
aS'T'
aS'G'
aS'A'
aS'T'
aS'G'
aS'G'
aS'G'
aS'G'
aS'T'
aS'C'
aS'A'
aS'G'
aS'G'
aS'A'
aS'A'
aS'C'
aS'A'
aS'A'
aS'A'
aS'G'
aS'A'
aS'G'
aS'C'
aS'C'
aS'A'
aS'G'
aS'C'
aS'G'
aS'T'
aS'G'
aS'G'
aS'G'
aS'A'
aS'G'
aS'A'
aS'G'
aS'G'
aS'T'
aS'G'
aS'A'
aS'T'
aS'C'
aS'A'
aS'A'
aS'T'
aS'G'
aS'A'
aS'G'
aS'C'
aS'A'
aS'G'
aS'G'
aS'A'
aS'G'
aS'G'
aS'T'
aS'T'
aS'G'
aS'G'
aS'C'
aS'C'
aS'A'
aS'T'
aS'C'
aS'C'
aS'T'
aS'C'
aS'A'
aS'T'
aS'T'
aS'C'
aS'C'
aS'T'
aS'C'
aS'C'
aS'C'
aS'C'
aS'C'
aS'C'
aS'T'
aS'T'
aS'T'
aS'C'
aS'C'
aS'C'
aS'A'
aS'C'
aS'C'
aS'A'
aS'G'
aS'A'
aS'A'
aS'G'
aS'A'
aS'C'
aS'C'
aS'C'
aS'C'
aS'C'
aS'A'
aS'G'
aS'A'
aS'C'
aS'T'
aS'G'
aS'A'
aS'T'
aS'T'
aS'C'
aS'C'
aS'T'
aS'C'
aS'A'
aS'G'
aS'T'
aS'C'
aS'T'
aS'C'
aS'A'
aS'C'
aS'T'
aS'T'
aS'C'
aS'T'
aS'T'
aS'C'
aS'C'
aS'C'
aS'C'
aS'A'
aS'C'
aS'T'
aS'T'
aS'G'
aS'G'
aS'A'
aS'G'
aS'G'
aS'C'
aS'C'
aS'A'
aS'A'
aS'G'
aS'A'
aS'T'
aS'C'
aS'C'
aS'G'
aS'T'
aS'C'
aS'A'
aS'G'
aS'A'
aS'C'
aS'A'
aS'C'
aS'A'
aS'C'
aS'A'
aS'G'
aS'C'
aS'C'
aS'T'
aS'T'
aS'G'
aS'C'
aS'G'
aS'C'
aS'A'
aS'C'
aS'C'
aS'T'
aS'C'
aS'C'
aS'T'
aS'C'
aS'A'
aS'C'
aS'C'
aS'A'
aS'A'
aS'A'
aS'T'
aS'A'
aS'C'
aS'G'
aS'C'
aS'T'
aS'G'
aS'A'
aS'G'
aS'C'
aS'A'
aS'G'
aS'C'
aS'T'
aS'G'
aS'C'
aS'T'
aS'C'
aS'C'
aS'A'
aS'A'
aS'G'
aS'A'
aS'A'
aS'T'
aS'A'
aS'T'
aS'G'
aS'T'
aS'G'
aS'A'
aS'G'
aS'T'
aS'G'
aS'G'
aS'G'
aS'A'
aS'A'
aS'T'
aS'G'
aS'G'
aS'G'
aS'G'
aS'G'
aS'T'
aS'G'
aS'G'
aS'G'
aS'G'
aS'G'
aS'T'
aS'G'
aS'C'
aS'C'
aS'G'
aS'G'
aS'G'
aS'G'
aS'G'
aS'C'
aS'C'
aS'T'
aS'G'
aS'G'
aS'G'
aS'G'
aS'A'
aS'A'
aS'T'
aS'G'
aS'G'
aS'G'
aS'A'
aS'G'
aS'C'
aS'A'
aS'G'
aS'A'
aS'C'
aS'A'
aS'T'
aS'C'
aS'A'
aS'C'
aS'A'
aS'G'
aS'A'
aS'G'
aS'G'
aS'T'
aS'C'
aS'C'
aS'T'
aS'C'
aS'G'
aS'A'
aS'T'
aS'C'
aS'A'
aS'C'
aS'C'
aS'C'
aS'A'
aS'T'
aS'T'
aS'C'
aS'T'
aS'C'
aS'T'
aS'C'
aS'A'
aS'A'
aS'C'
aS'C'
aS'T'
aS'C'
aS'A'
aS'T'
aS'T'
aS'T'
aS'T'
aS'C'
aS'C'
aS'A'
aS'A'
aS'C'
aS'T'
aS'G'
aS'T'
aS'G'
aS'G'
aS'A'
aS'A'
aS'A'
aS'T'
aS'C'
aS'A'
aS'G'
aS'G'
aS'G'
aS'C'
aS'T'
aS'C'
aS'C'
aS'T'
aS'G'
aS'A'
aS'G'
aS'A'
aS'G'
aS'G'
aS'G'
aS'A'
aS'C'
aS'A'
aS'G'
aS'C'
aS'A'
aS'A'
aS'C'
aS'T'
aS'T'
aS'G'
aS'C'
aS'C'
aS'C'
aS'C'
aS'T'
aS'G'
aS'G'
aS'C'
aS'C'
aS'A'
aS'C'
aS'A'
aS'C'
aS'A'
assI3
(dp29
g21
I10472
sg22
I1482
sg23
I1782
sg24
I11954
sg25
(lp30
S'T'
aS'T'
aS'G'
aS'C'
aS'C'
aS'T'
aS'T'
aS'A'
aS'A'
aS'A'
aS'C'
aS'A'
aS'G'
aS'A'
aS'G'
aS'C'
aS'A'
aS'G'
aS'C'
aS'T'
aS'C'
aS'T'
aS'G'
aS'T'
aS'T'
aS'A'
aS'G'
aS'G'
aS'A'
aS'G'
aS'G'
aS'G'
aS'A'
aS'T'
aS'T'
aS'A'
aS'T'
aS'C'
aS'A'
aS'T'
aS'C'
aS'T'
aS'G'
aS'C'
aS'A'
aS'A'
aS'G'
aS'A'
aS'T'
aS'G'
aS'A'
aS'G'
aS'G'
aS'A'
aS'A'
aS'A'
aS'C'
aS'T'
aS'G'
aS'A'
aS'C'
aS'A'
aS'C'
aS'C'
aS'C'
aS'C'
aS'C'
aS'A'
aS'G'
aS'A'
aS'G'
aS'A'
aS'G'
aS'C'
aS'G'
aS'G'
aS'G'
aS'T'
aS'T'
aS'G'
aS'G'
aS'A'
aS'G'
aS'A'
aS'G'
aS'C'
aS'C'
aS'C'
aS'A'
aS'G'
aS'T'
aS'T'
aS'A'
aS'A'
aS'C'
aS'A'
aS'G'
aS'C'
aS'C'
aS'C'
aS'C'
aS'C'
aS'T'
aS'G'
aS'C'
aS'C'
aS'C'
aS'G'
aS'T'
aS'G'
aS'C'
aS'T'
aS'C'
aS'C'
aS'G'
aS'G'
aS'G'
aS'G'
aS'C'
aS'C'
aS'C'
aS'C'
aS'G'
aS'C'
aS'T'
aS'G'
aS'A'
aS'C'
aS'C'
aS'C'
aS'G'
aS'C'
aS'C'
aS'G'
aS'G'
aS'C'
aS'C'
aS'G'
aS'T'
aS'G'
aS'T'
aS'C'
aS'T'
aS'C'
aS'C'
aS'G'
aS'C'
aS'A'
aS'G'
aS'G'
aS'T'
aS'G'
aS'C'
aS'A'
aS'G'
aS'C'
aS'T'
aS'C'
aS'C'
aS'A'
aS'G'
aS'G'
aS'G'
aS'A'
aS'G'
aS'A'
aS'C'
aS'C'
aS'C'
aS'C'
aS'T'
aS'T'
aS'C'
aS'G'
aS'G'
aS'G'
aS'C'
aS'T'
aS'G'
aS'C'
aS'C'
aS'C'
aS'A'
aS'G'
aS'C'
aS'T'
aS'T'
aS'C'
aS'T'
aS'C'
aS'G'
aS'C'
aS'C'
aS'G'
aS'C'
aS'C'
aS'G'
aS'C'
aS'G'
aS'G'
aS'C'
aS'T'
aS'G'
aS'C'
aS'C'
aS'G'
aS'G'
aS'T'
aS'G'
aS'G'
aS'C'
aS'C'
aS'G'
aS'G'
aS'C'
aS'C'
aS'T'
aS'G'
aS'A'
aS'G'
aS'C'
aS'G'
aS'C'
aS'C'
aS'C'
aS'C'
aS'G'
aS'G'
aS'C'
aS'T'
aS'C'
aS'C'
aS'G'
aS'A'
aS'G'
aS'C'
aS'C'
aS'A'
aS'C'
aS'G'
aS'C'
aS'G'
aS'G'
aS'G'
aS'G'
aS'C'
aS'T'
aS'G'
aS'C'
aS'C'
aS'A'
aS'G'
aS'T'
aS'G'
aS'C'
aS'A'
aS'C'
aS'G'
aS'A'
aS'G'
aS'C'
aS'G'
aS'G'
aS'C'
aS'T'
aS'G'
aS'C'
aS'G'
aS'G'
aS'C'
aS'T'
aS'G'
aS'G'
aS'A'
aS'C'
aS'G'
aS'C'
aS'G'
aS'G'
aS'C'
aS'G'
aS'G'
aS'C'
aS'G'
aS'C'
aS'T'
aS'G'
aS'G'
aS'C'
aS'C'
aS'G'
aS'C'
aS'G'
aS'C'
aS'T'
aS'G'
aS'C'
aS'C'
aS'C'
aS'C'
aS'C'
aS'G'
aS'C'
aS'T'
aS'G'
aS'C'
aS'T'
aS'G'
aS'G'
aS'A'
aS'C'
aS'G'
aS'C'
aS'A'
aS'G'
aS'T'
aS'G'
aS'T'
aS'G'
aS'T'
aS'C'
aS'G'
aS'C'
aS'C'
aS'G'
aS'C'
aS'C'
aS'A'
aS'G'
aS'G'
aS'C'
aS'C'
aS'G'
aS'A'
aS'G'
aS'C'
aS'T'
aS'G'
aS'A'
aS'A'
aS'C'
aS'C'
aS'C'
aS'G'
aS'C'
aS'G'
aS'C'
aS'G'
aS'C'
aS'G'
aS'C'
aS'C'
aS'G'
aS'C'
aS'G'
aS'C'
aS'C'
aS'T'
aS'G'
aS'C'
aS'T'
aS'G'
aS'C'
aS'G'
aS'C'
aS'C'
aS'G'
aS'C'
aS'C'
aS'T'
aS'G'
aS'G'
aS'A'
aS'G'
aS'G'
aS'A'
aS'C'
aS'G'
aS'C'
aS'G'
aS'G'
aS'C'
aS'G'
aS'C'
aS'G'
aS'C'
aS'C'
aS'A'
aS'G'
aS'G'
aS'C'
aS'C'
aS'C'
aS'G'
aS'G'
aS'G'
aS'C'
aS'C'
aS'C'
aS'T'
aS'G'
aS'G'
aS'G'
aS'C'
aS'G'
aS'C'
aS'C'
aS'G'
aS'C'
aS'C'
aS'G'
aS'T'
aS'G'
aS'G'
aS'A'
aS'G'
aS'G'
aS'C'
aS'C'
aS'T'
aS'T'
aS'G'
aS'C'
aS'T'
aS'G'
aS'G'
aS'C'
aS'C'
aS'G'
aS'C'
aS'G'
aS'C'
aS'T'
aS'G'
aS'G'
aS'G'
aS'C'
aS'G'
aS'C'
aS'C'
aS'G'
aS'C'
aS'C'
aS'A'
aS'A'
aS'C'
aS'C'
aS'G'
aS'C'
aS'G'
aS'G'
aS'G'
aS'C'
aS'C'
aS'C'
aS'C'
aS'G'
aS'G'
aS'G'
aS'C'
aS'C'
aS'G'
aS'A'
aS'G'
aS'C'
aS'C'
aS'C'
aS'C'
aS'C'
aS'C'
aS'G'
aS'C'
aS'C'
aS'G'
aS'C'
aS'C'
aS'A'
aS'C'
aS'C'
aS'G'
aS'C'
aS'C'
aS'T'
aS'C'
aS'A'
aS'G'
aS'C'
aS'C'
aS'G'
aS'C'
aS'C'
aS'T'
aS'C'
aS'C'
aS'G'
aS'C'
aS'C'
aS'A'
aS'C'
aS'C'
aS'G'
aS'G'
aS'G'
aS'G'
aS'T'
aS'C'
aS'T'
aS'T'
aS'C'
aS'C'
aS'C'
aS'C'
aS'G'
aS'C'
aS'C'
aS'A'
aS'A'
aS'G'
aS'G'
aS'T'
aS'G'
aS'C'
aS'T'
aS'G'
aS'G'
aS'G'
aS'G'
aS'C'
aS'T'
aS'C'
aS'C'
aS'G'
aS'C'
aS'G'
aS'T'
aS'T'
aS'T'
aS'G'
aS'C'
aS'G'
aS'G'
aS'C'
aS'C'
aS'T'
aS'C'
aS'T'
aS'A'
aS'C'
aS'C'
aS'G'
aS'C'
aS'G'
aS'A'
aS'G'
aS'T'
aS'G'
aS'G'
aS'C'
aS'T'
aS'G'
aS'A'
aS'G'
aS'C'
aS'C'
aS'G'
aS'C'
aS'A'
aS'C'
aS'C'
aS'G'
aS'A'
aS'G'
aS'G'
aS'G'
aS'C'
aS'G'
aS'A'
aS'C'
aS'C'
aS'T'
aS'G'
aS'G'
aS'G'
aS'C'
aS'C'
aS'A'
aS'G'
aS'C'
aS'T'
aS'G'
aS'C'
aS'T'
aS'G'
aS'C'
aS'C'
aS'C'
aS'G'
aS'G'
aS'G'
aS'G'
aS'G'
aS'C'
aS'T'
aS'C'
aS'G'
aS'G'
aS'C'
aS'C'
aS'T'
aS'G'
aS'A'
aS'G'
aS'C'
aS'G'
aS'C'
aS'C'
aS'G'
aS'C'
aS'G'
aS'G'
aS'G'
aS'G'
aS'C'
aS'A'
aS'G'
aS'C'
aS'T'
aS'C'
aS'G'
aS'C'
aS'C'
aS'C'
aS'C'
aS'G'
aS'C'
aS'C'
aS'T'
aS'C'
aS'C'
aS'T'
aS'C'
aS'C'
aS'C'
aS'G'
aS'C'
aS'T'
aS'G'
aS'G'
aS'G'
aS'T'
aS'T'
aS'C'
aS'C'
aS'G'
aS'T'
aS'C'
aS'T'
aS'C'
aS'T'
aS'C'
aS'C'
aS'T'
aS'T'
aS'C'
aS'C'
aS'G'
aS'C'
aS'T'
aS'T'
aS'C'
aS'T'
aS'T'
aS'T'
aS'G'
aS'T'
aS'C'
aS'T'
aS'T'
aS'T'
aS'C'
aS'T'
aS'C'
aS'T'
aS'G'
aS'C'
aS'C'
aS'G'
aS'C'
aS'T'
aS'G'
aS'T'
aS'C'
aS'G'
aS'G'
aS'T'
aS'G'
aS'T'
aS'C'
aS'T'
aS'G'
aS'T'
aS'C'
aS'T'
aS'G'
aS'T'
aS'C'
aS'T'
aS'G'
aS'C'
aS'T'
aS'C'
aS'T'
aS'T'
aS'A'
aS'G'
aS'C'
aS'T'
aS'G'
aS'T'
aS'C'
aS'T'
aS'C'
aS'C'
aS'A'
aS'T'
aS'T'
aS'G'
aS'C'
aS'C'
aS'T'
aS'C'
aS'G'
aS'G'
aS'C'
aS'C'
aS'T'
aS'T'
aS'C'
aS'T'
aS'T'
aS'T'
aS'G'
aS'C'
aS'T'
aS'T'
aS'T'
aS'T'
aS'T'
aS'G'
aS'T'
aS'G'
aS'G'
aS'G'
aS'G'
aS'G'
aS'A'
aS'G'
aS'A'
aS'G'
aS'G'
aS'G'
aS'G'
aS'A'
aS'G'
aS'G'
aS'G'
aS'G'
aS'A'
aS'C'
aS'G'
aS'G'
aS'G'
aS'C'
aS'A'
aS'G'
aS'G'
aS'G'
aS'T'
aS'C'
aS'T'
aS'C'
aS'T'
aS'G'
aS'T'
aS'C'
aS'G'
aS'C'
aS'C'
aS'C'
aS'A'
aS'G'
aS'G'
aS'C'
aS'T'
aS'G'
aS'G'
aS'G'
aS'G'
aS'T'
aS'G'
aS'C'
aS'A'
aS'G'
aS'T'
aS'G'
aS'G'
aS'C'
aS'G'
aS'C'
aS'G'
aS'A'
aS'T'
aS'C'
aS'C'
aS'C'
aS'A'
aS'G'
aS'C'
aS'A'
aS'C'
aS'T'
aS'G'
aS'C'
aS'A'
aS'G'
aS'C'
aS'C'
aS'T'
aS'C'
aS'A'
aS'A'
aS'C'
aS'C'
aS'T'
aS'C'
aS'C'
aS'T'
aS'G'
aS'G'
aS'G'
aS'C'
aS'T'
aS'C'
aS'A'
aS'A'
aS'G'
aS'C'
aS'C'
aS'A'
aS'T'
aS'C'
aS'C'
aS'T'
aS'T'
aS'C'
aS'C'
aS'G'
aS'C'
aS'C'
aS'T'
aS'C'
aS'A'
aS'G'
aS'C'
aS'T'
aS'T'
aS'C'
aS'C'
aS'C'
aS'C'
aS'A'
aS'G'
aS'C'
aS'A'
aS'G'
aS'C'
aS'T'
aS'G'
aS'G'
aS'G'
aS'A'
aS'C'
aS'T'
aS'A'
aS'C'
aS'A'
aS'G'
aS'G'
aS'C'
aS'A'
aS'C'
aS'G'
aS'C'
aS'G'
aS'C'
aS'C'
aS'A'
aS'C'
aS'C'
aS'A'
aS'C'
aS'A'
aS'G'
aS'C'
aS'C'
aS'G'
aS'G'
aS'C'
aS'T'
aS'A'
aS'A'
aS'T'
aS'T'
aS'T'
aS'T'
aS'T'
aS'T'
aS'A'
aS'T'
aS'T'
aS'T'
aS'A'
aS'A'
aS'T'
aS'T'
aS'T'
aS'T'
aS'T'
aS'T'
aS'G'
aS'T'
aS'A'
aS'G'
aS'A'
aS'G'
aS'A'
aS'C'
aS'G'
aS'A'
aS'G'
aS'G'
aS'T'
aS'T'
aS'T'
aS'C'
aS'G'
aS'C'
aS'C'
aS'A'
aS'T'
aS'G'
aS'T'
aS'T'
aS'G'
aS'C'
aS'C'
aS'C'
aS'A'
aS'G'
aS'G'
aS'C'
aS'T'
aS'G'
aS'G'
aS'T'
aS'C'
aS'T'
aS'T'
aS'G'
aS'A'
aS'A'
aS'C'
aS'T'
aS'C'
aS'C'
aS'G'
aS'G'
aS'G'
aS'G'
aS'C'
aS'T'
aS'C'
aS'A'
aS'A'
aS'G'
aS'C'
aS'G'
aS'A'
aS'T'
aS'C'
aS'C'
aS'T'
aS'C'
aS'C'
aS'C'
aS'G'
aS'C'
aS'T'
aS'T'
aS'C'
aS'A'
aS'G'
aS'C'
aS'C'
aS'T'
aS'C'
aS'C'
aS'C'
aS'T'
aS'A'
aS'A'
aS'G'
aS'T'
aS'G'
aS'C'
aS'T'
aS'G'
aS'G'
aS'G'
aS'A'
aS'T'
aS'T'
aS'G'
aS'C'
aS'A'
aS'G'
aS'G'
aS'C'
aS'G'
aS'T'
aS'G'
aS'A'
aS'G'
aS'C'
aS'C'
aS'A'
aS'C'
aS'T'
aS'T'
aS'T'
aS'C'
aS'C'
aS'C'
aS'A'
aS'G'
aS'C'
aS'C'
aS'T'
aS'C'
aS'T'
aS'C'
aS'T'
aS'T'
aS'T'
aS'G'
aS'C'
aS'T'
aS'T'
aS'T'
aS'G'
aS'C'
aS'C'
aS'T'
aS'G'
aS'C'
aS'C'
aS'C'
aS'C'
aS'G'
aS'T'
aS'T'
aS'C'
aS'T'
aS'C'
aS'T'
aS'T'
aS'A'
aS'A'
aS'C'
aS'T'
aS'C'
aS'T'
aS'T'
aS'G'
aS'G'
aS'A'
aS'C'
aS'C'
aS'C'
aS'T'
aS'C'
aS'C'
aS'T'
aS'C'
aS'G'
aS'T'
aS'C'
aS'T'
aS'G'
aS'C'
aS'A'
aS'T'
aS'G'
aS'G'
aS'T'
aS'A'
aS'A'
aS'C'
aS'T'
aS'C'
aS'C'
aS'G'
aS'T'
aS'C'
aS'T'
aS'G'
aS'A'
aS'G'
aS'T'
aS'C'
aS'T'
aS'A'
aS'C'
aS'C'
aS'A'
aS'T'
aS'T'
aS'T'
aS'T'
aS'C'
aS'T'
aS'T'
aS'G'
aS'C'
aS'T'
aS'C'
aS'T'
aS'C'
aS'C'
aS'C'
aS'T'
aS'C'
aS'C'
aS'T'
aS'T'
aS'C'
aS'C'
aS'T'
aS'T'
aS'G'
aS'G'
aS'G'
aS'C'
aS'C'
aS'T'
aS'G'
aS'C'
aS'C'
aS'T'
aS'C'
aS'A'
aS'G'
aS'T'
aS'T'
aS'C'
aS'C'
aS'C'
aS'T'
aS'T'
aS'T'
aS'G'
aS'G'
aS'C'
aS'C'
aS'T'
aS'C'
aS'C'
aS'C'
aS'C'
aS'C'
aS'T'
aS'T'
aS'T'
aS'A'
aS'C'
aS'C'
aS'C'
aS'A'
aS'G'
aS'C'
aS'T'
aS'C'
aS'T'
aS'T'
aS'G'
aS'G'
aS'G'
aS'G'
aS'T'
aS'G'
aS'T'
aS'C'
aS'T'
aS'C'
aS'T'
aS'G'
aS'T'
aS'T'
aS'T'
aS'T'
aS'T'
aS'T'
aS'C'
aS'C'
aS'A'
aS'T'
aS'C'
aS'C'
aS'C'
aS'C'
aS'A'
aS'C'
aS'T'
aS'T'
aS'C'
aS'C'
aS'T'
aS'G'
aS'C'
aS'C'
aS'T'
aS'T'
aS'C'
aS'T'
aS'C'
aS'G'
aS'T'
aS'G'
aS'G'
aS'C'
aS'C'
aS'C'
aS'T'
aS'G'
aS'T'
aS'G'
aS'T'
aS'G'
aS'A'
aS'G'
aS'C'
aS'A'
aS'C'
aS'A'
aS'T'
aS'G'
aS'T'
aS'G'
aS'T'
aS'A'
aS'C'
aS'A'
aS'T'
aS'C'
aS'T'
aS'C'
aS'A'
aS'G'
aS'C'
aS'C'
aS'T'
aS'T'
aS'A'
aS'T'
aS'C'
aS'T'
aS'C'
aS'A'
aS'A'
aS'G'
aS'G'
aS'A'
aS'G'
aS'G'
aS'T'
aS'G'
aS'A'
aS'C'
aS'A'
aS'C'
aS'C'
aS'T'
aS'T'
aS'C'
aS'T'
aS'C'
aS'T'
aS'C'
aS'C'
aS'T'
aS'T'
aS'G'
aS'T'
aS'C'
aS'C'
aS'C'
aS'C'
aS'A'
aS'T'
aS'C'
aS'T'
aS'G'
aS'G'
aS'C'
aS'C'
aS'G'
aS'T'
aS'C'
aS'T'
aS'C'
aS'T'
aS'C'
aS'T'
aS'G'
aS'T'
aS'G'
aS'C'
aS'T'
aS'T'
aS'C'
aS'C'
aS'C'
aS'T'
aS'G'
aS'G'
aS'C'
aS'C'
aS'A'
aS'G'
aS'G'
aS'G'
aS'G'
aS'C'
aS'G'
aS'T'
aS'G'
aS'C'
aS'C'
aS'T'
aS'G'
aS'C'
aS'T'
aS'G'
aS'G'
aS'T'
aS'C'
aS'C'
aS'T'
aS'A'
aS'T'
aS'G'
aS'G'
aS'G'
aS'G'
aS'G'
aS'G'
aS'A'
aS'A'
aS'G'
aS'G'
aS'C'
aS'T'
aS'A'
aS'C'
aS'T'
aS'C'
aS'T'
aS'G'
aS'C'
aS'A'
aS'T'
aS'C'
aS'T'
aS'C'
aS'A'
aS'G'
aS'C'
aS'C'
aS'A'
aS'C'
aS'C'
aS'T'
aS'T'
aS'C'
aS'C'
aS'T'
aS'C'
aS'A'
aS'G'
aS'G'
aS'C'
aS'T'
aS'C'
aS'A'
aS'C'
aS'T'
aS'C'
aS'C'
aS'A'
aS'C'
aS'C'
aS'T'
aS'A'
aS'C'
aS'A'
aS'T'
aS'C'
aS'C'
aS'C'
aS'C'
aS'A'
aS'G'
aS'T'
aS'C'
aS'T'
aS'G'
aS'C'
aS'C'
aS'A'
aS'C'
aS'A'
aS'C'
aS'C'
aS'C'
aS'C'
aS'A'
aS'T'
aS'C'
aS'C'
aS'C'
aS'T'
aS'T'
aS'T'
aS'G'
aS'G'
aS'G'
aS'C'
aS'C'
aS'T'
aS'C'
aS'A'
aS'G'
aS'C'
aS'C'
aS'C'
aS'T'
aS'G'
aS'T'
aS'C'
aS'C'
aS'C'
aS'T'
aS'T'
aS'T'
aS'G'
aS'A'
aS'T'
aS'G'
aS'T'
aS'C'
aS'C'
aS'T'
aS'C'
aS'C'
aS'T'
aS'T'
aS'T'
aS'C'
aS'C'
aS'T'
aS'T'
aS'C'
aS'A'
aS'G'
aS'C'
aS'C'
aS'C'
aS'C'
aS'T'
aS'C'
aS'T'
aS'G'
aS'C'
aS'C'
aS'C'
aS'T'
aS'G'
aS'T'
aS'C'
aS'C'
aS'C'
aS'T'
aS'G'
aS'C'
aS'A'
aS'C'
aS'A'
aS'C'
aS'C'
aS'T'
aS'C'
aS'C'
aS'A'
aS'C'
aS'T'
aS'G'
aS'C'
aS'C'
aS'T'
aS'C'
aS'C'
aS'C'
aS'A'
aS'G'
aS'C'
aS'A'
aS'G'
aS'A'
aS'C'
aS'C'
aS'T'
aS'G'
aS'T'
aS'G'
aS'G'
aS'A'
aS'G'
aS'A'
aS'C'
aS'A'
aS'A'
aS'A'
aS'A'
aS'C'
aS'A'
aS'A'
aS'G'
aS'C'
aS'A'
aS'A'
aS'C'
aS'A'
aS'C'
aS'C'
aS'T'
aS'T'
aS'A'
aS'A'
aS'A'
aS'A'
aS'G'
aS'A'
aS'G'
aS'T'
aS'T'
aS'T'
aS'T'
aS'A'
aS'T'
aS'T'
aS'T'
aS'C'
aS'T'
aS'G'
aS'A'
aS'A'
aS'A'
aS'A'
aS'T'
aS'A'
aS'A'
aS'A'
aS'T'
aS'T'
aS'A'
aS'A'
aS'T'
aS'T'
aS'T'
aS'T'
aS'T'
aS'T'
aS'G'
aS'T'
aS'A'
aS'A'
aS'A'
aS'T'
aS'A'
aS'A'
aS'A'
aS'A'
aS'T'
aS'G'
aS'T'
aS'T'
aS'T'
aS'A'
aS'A'
aS'A'
aS'A'
aS'A'
aS'T'
aS'A'
aS'A'
aS'A'
aS'A'
aS'A'
aS'A'
aS'G'
aS'A'
aS'A'
aS'A'
aS'C'
aS'T'
aS'A'
aS'A'
aS'A'
aS'G'
aS'T'
aS'T'
aS'A'
aS'C'
aS'T'
aS'T'
aS'G'
aS'T'
aS'A'
aS'T'
aS'A'
aS'T'
aS'A'
aS'T'
aS'A'
aS'G'
aS'T'
aS'T'
aS'G'
aS'T'
aS'T'
aS'G'
aS'A'
aS'A'
aS'A'
aS'A'
aS'T'
aS'G'
aS'G'
aS'G'
aS'G'
aS'A'
aS'G'
aS'A'
aS'C'
aS'A'
aS'G'
aS'C'
aS'T'
aS'T'
aS'T'
aS'A'
aS'G'
aS'G'
aS'G'
aS'A'
aS'G'
aS'A'
aS'A'
aS'A'
aS'A'
aS'G'
aS'G'
aS'A'
aS'C'
aS'C'
aS'C'
aS'T'
aS'T'
aS'G'
aS'G'
aS'G'
aS'A'
aS'T'
aS'G'
aS'C'
aS'A'
aS'G'
aS'C'
aS'C'
aS'T'
aS'A'
aS'G'
aS'T'
aS'C'
aS'C'
aS'C'
aS'C'
aS'C'
aS'A'
aS'G'
aS'A'
aS'C'
aS'A'
aS'T'
aS'G'
aS'C'
aS'C'
aS'C'
aS'A'
aS'A'
aS'G'
aS'A'
aS'A'
aS'G'
aS'C'
aS'C'
aS'C'
aS'A'
aS'G'
aS'C'
aS'A'
aS'G'
aS'T'
aS'A'
aS'T'
aS'A'
aS'A'
aS'A'
aS'T'
aS'A'
aS'G'
aS'G'
aS'A'
aS'G'
aS'G'
aS'C'
aS'T'
aS'G'
aS'A'
aS'C'
aS'A'
aS'G'
aS'C'
aS'C'
aS'C'
aS'C'
aS'T'
aS'G'
aS'G'
aS'C'
aS'C'
aS'A'
aS'G'
aS'T'
aS'G'
aS'G'
aS'T'
aS'G'
aS'C'
aS'C'
aS'C'
aS'T'
aS'C'
aS'T'
aS'G'
aS'C'
aS'C'
aS'A'
aS'G'
aS'C'
aS'C'
aS'C'
assss.