(dp1
I1
(dp2
S'exon list'
p3
(lp4
I1
aI2
aI3
aI4
aI5
aI6
aI7
aI8
aI9
aI10
aI11
aI12
aI13
aI14
aI15
aI16
aI17
aI18
aI19
aI20
aI21
aI22
aI23
aI24
aI25
aI26
aI27
aI28
asS'variants'
p5
(dp6
I1
(dp7
S'position'
p8
I5252
sS'transcript'
p9
S'NM_005228.3'
p10
sS'new base'
p11
S'G'
sS'hgvs'
p12
S'c.C7G'
p13
ssI2
(dp14
g8
I128295
sg9
g10
sg11
S'C'
sg12
S'c.T130C'
p15
ssI3
(dp16
g8
I129383
sg9
g10
sg11
S'G'
sg12
S'c.T351G'
p17
ssI4
(dp18
g8
I132682
sg9
g10
sg11
S'C'
sg12
S'c.T533C'
p19
ssI5
(dp20
g8
I137266
sg9
g10
sg11
S'T'
sg12
S'c.A564T'
p21
ssI6
(dp22
g8
I138596
sg9
g10
sg11
S'C'
sg12
S'c.T711C'
p23
ssI7
(dp24
g8
I139979
sg9
g10
sg11
S'T'
sg12
S'c.G748T'
p25
ssI8
(dp26
g8
I141837
sg9
g10
sg11
S'G'
sg12
S'c.C929G'
p27
ssI9
(dp28
g8
I142588
sg9
g10
sg11
S'G'
sg12
S'c.T1094G'
p29
ssI10
(dp30
g8
I142800
sg9
g10
sg11
S'A'
sg12
S'c.G1207A'
p31
ssI11
(dp32
g8
I143676
sg9
g10
sg11
S'G'
sg12
S'c.A1253G'
p33
ssI12
(dp34
g8
I146290
sg9
g10
sg11
S'C'
sg12
S'c.A1482C'
p35
ssI13
(dp36
g8
I147468
sg9
g10
sg11
S'C'
sg12
S'c.G1500C'
p37
ssI14
(dp38
g8
I149759
sg9
g10
sg11
S'T'
sg12
S'c.C1690T'
p39
ssI15
(dp40
g8
I151256
sg9
g10
sg11
S'T'
sg12
S'c.C1731T'
p41
ssI16
(dp42
g8
I157161
sg9
g10
sg11
S'C'
sg12
S'c.T1899C'
p43
ssI17
(dp44
g8
I159059
sg9
g10
sg11
S'T'
sg12
S'c.G2028T'
p45
ssI18
(dp46
g8
I159903
sg9
g10
sg11
S'A'
sg12
S'c.T2076A'
p47
ssI19
(dp48
g8
I160711
sg9
g10
sg11
S'C'
sg12
S'c.G2206C'
p49
ssI20
(dp50
g8
I167325
sg9
g10
sg11
S'G'
sg12
S'c.C2348G'
p51
ssI21
(dp52
g8
I177838
sg9
g10
sg11
S'A'
sg12
S'c.G2621A'
p53
ssI22
(dp54
g8
I178747
sg9
g10
sg11
S'T'
sg12
S'c.G2639T'
p55
ssI23
(dp56
g8
I184761
sg9
g10
sg11
S'A'
sg12
S'c.C2778A'
p57
ssI24
(dp58
g8
I186294
sg9
g10
sg11
S'G'
sg12
S'c.A2859G'
p59
ssI25
(dp60
g8
I187238
sg9
g10
sg11
S'C'
sg12
S'c.T3029C'
p61
ssI26
(dp62
g8
I187718
sg9
g10
sg11
S'C'
sg12
S'c.A3130C'
p63
ssI27
(dp64
g8
I188539
sg9
g10
sg11
S'A'
sg12
S'c.C3217A'
p65
ssI28
(dp66
g8
I193110
sg9
g10
sg11
S'G'
sg12
S'c.*1525C>G'
p67
sssS'exons'
p68
(dp69
I1
(dp70
S'start'
p71
ccopy_reg
_reconstructor
p72
(cBio.SeqFeature
ExactPosition
p73
c__builtin__
int
p74
I5000
tRp75
sS'length'
p76
I334
sS'padded length'
p77
I634
sS'end'
p78
g72
(g73
g74
I5334
tRp79
sS'padded seq'
p80
(lp81
S'G'
aS'C'
aS'C'
aS'T'
aS'T'
aS'G'
aS'G'
aS'G'
aS'T'
aS'C'
aS'C'
aS'C'
aS'C'
aS'G'
aS'C'
aS'T'
aS'G'
aS'C'
aS'T'
aS'G'
aS'G'
aS'T'
aS'T'
aS'C'
aS'T'
aS'C'
aS'C'
aS'T'
aS'C'
aS'C'
aS'C'
aS'T'
aS'C'
aS'C'
aS'T'
aS'C'
aS'C'
aS'T'
aS'C'
aS'G'
aS'C'
aS'A'
aS'T'
aS'T'
aS'C'
aS'T'
aS'C'
aS'C'
aS'T'
aS'C'
aS'C'
aS'T'
aS'C'
aS'C'
aS'T'
aS'C'
aS'T'
aS'G'
aS'C'
aS'T'
aS'C'
aS'C'
aS'T'
aS'C'
aS'C'
aS'C'
aS'G'
aS'A'
aS'T'
aS'C'
aS'C'
aS'C'
aS'T'
aS'C'
aS'C'
aS'T'
aS'C'
aS'C'
aS'G'
aS'C'
aS'C'
aS'G'
aS'C'
aS'C'
aS'T'
aS'G'
aS'G'
aS'T'
aS'C'
aS'C'
aS'C'
aS'T'
aS'C'
aS'C'
aS'T'
aS'C'
aS'C'
aS'T'
aS'C'
aS'C'
aS'C'
aS'G'
aS'C'
aS'C'
aS'C'
aS'T'
aS'G'
aS'C'
aS'C'
aS'T'
aS'C'
aS'C'
aS'C'
aS'C'
aS'G'
aS'C'
aS'G'
aS'C'
aS'C'
aS'T'
aS'C'
aS'G'
aS'G'
aS'C'
aS'C'
aS'C'
aS'G'
aS'C'
aS'G'
aS'C'
aS'G'
aS'A'
aS'G'
aS'C'
aS'T'
aS'A'
aS'G'
aS'A'
aS'C'
aS'G'
aS'T'
aS'C'
aS'C'
aS'G'
aS'G'
aS'G'
aS'C'
aS'A'
aS'G'
aS'C'
aS'C'
aS'C'
aS'C'
aS'C'
aS'G'
aS'G'
aS'C'
aS'G'
aS'C'
aS'A'
aS'G'
aS'C'
aS'G'
aS'C'
aS'G'
aS'G'
aS'C'
aS'C'
aS'G'
aS'C'
aS'A'
aS'G'
aS'C'
aS'A'
aS'G'
aS'C'
aS'C'
aS'T'
aS'C'
aS'C'
aS'G'
aS'C'
aS'C'
aS'C'
aS'C'
aS'C'
aS'C'
aS'G'
aS'C'
aS'A'
aS'C'
aS'G'
aS'G'
aS'T'
aS'G'
aS'T'
aS'G'
aS'A'
aS'G'
aS'C'
aS'G'
aS'C'
aS'C'
aS'C'
aS'G'
aS'A'
aS'C'
aS'G'
aS'C'
aS'G'
aS'G'
aS'C'
aS'C'
aS'G'
aS'A'
aS'G'
aS'G'
aS'C'
aS'G'
aS'G'
aS'C'
aS'C'
aS'G'
aS'G'
aS'A'
aS'G'
aS'T'
aS'C'
aS'C'
aS'C'
aS'G'
aS'A'
aS'G'
aS'C'
aS'T'
aS'A'
aS'G'
aS'C'
aS'C'
aS'C'
aS'C'
aS'G'
aS'G'
aS'C'
aS'G'
aS'G'
aS'C'
aS'C'
aS'G'
aS'C'
aS'C'
aS'G'
aS'C'
aS'C'
aS'G'
aS'C'
aS'C'
aS'C'
aS'A'
aS'G'
aS'A'
aS'C'
aS'C'
aS'G'
aS'G'
aS'A'
aS'C'
aS'G'
aS'A'
aS'C'
aS'A'
aS'G'
aS'G'
aS'C'
aS'C'
aS'A'
aS'C'
aS'C'
aS'T'
aS'C'
aS'G'
aS'T'
aS'C'
aS'G'
aS'G'
aS'C'
aS'G'
aS'T'
aS'C'
aS'C'
aS'G'
aS'C'
aS'C'
aS'C'
aS'G'
aS'A'
aS'G'
aS'T'
aS'C'
aS'C'
aS'C'
aS'C'
aS'G'
aS'C'
aS'C'
aS'T'
aS'C'
aS'G'
aS'C'
aS'C'
aS'G'
aS'C'
aS'C'
aS'A'
aS'A'
aS'C'
aS'G'
aS'C'
aS'C'
aS'A'
aS'C'
aS'A'
aS'A'
aS'C'
aS'C'
aS'A'
aS'C'
aS'C'
aS'G'
aS'C'
aS'G'
aS'C'
aS'A'
aS'C'
aS'G'
aS'G'
aS'C'
aS'C'
aS'C'
aS'C'
aS'C'
aS'T'
aS'G'
aS'A'
aS'C'
aS'T'
aS'C'
aS'C'
aS'G'
aS'T'
aS'C'
aS'C'
aS'A'
aS'G'
aS'T'
aS'A'
aS'T'
aS'T'
aS'G'
aS'A'
aS'T'
aS'C'
aS'G'
aS'G'
aS'G'
aS'A'
aS'G'
aS'A'
aS'G'
aS'C'
aS'C'
aS'G'
aS'G'
aS'A'
aS'G'
aS'C'
aS'G'
aS'A'
aS'G'
aS'C'
aS'T'
aS'C'
aS'T'
aS'T'
aS'C'
aS'G'
aS'G'
aS'G'
aS'G'
aS'A'
aS'G'
aS'C'
aS'A'
aS'G'
aS'C'
aS'G'
aS'A'
aS'T'
aS'G'
aS'C'
aS'G'
aS'A'
aS'G'
aS'C'
aS'C'
aS'T'
aS'C'
aS'C'
aS'G'
aS'G'
aS'G'
aS'A'
aS'C'
aS'G'
aS'G'
aS'C'
aS'C'
aS'G'
aS'G'
aS'G'
aS'G'
aS'C'
aS'A'
aS'G'
aS'C'
aS'G'
aS'C'
aS'T'
aS'C'
aS'C'
aS'T'
aS'G'
aS'G'
aS'C'
aS'G'
aS'C'
aS'T'
aS'G'
aS'C'
aS'T'
aS'G'
aS'G'
aS'C'
aS'T'
aS'G'
aS'C'
aS'G'
aS'C'
aS'T'
aS'C'
aS'T'
aS'G'
aS'C'
aS'C'
aS'C'
aS'G'
aS'G'
aS'C'
aS'G'
aS'A'
aS'G'
aS'T'
aS'C'
aS'G'
aS'G'
aS'G'
aS'C'
aS'T'
aS'C'
aS'T'
aS'G'
aS'G'
aS'A'
aS'G'
aS'G'
aS'A'
aS'A'
aS'A'
aS'A'
aS'G'
aS'A'
aS'A'
aS'A'
aS'G'
aS'G'
aS'T'
aS'A'
aS'A'
aS'G'
aS'G'
aS'G'
aS'C'
aS'G'
aS'T'
aS'G'
aS'T'
aS'C'
aS'T'
aS'C'
aS'G'
aS'C'
aS'C'
aS'G'
aS'G'
aS'C'
aS'T'
aS'C'
aS'C'
aS'C'
aS'G'
aS'C'
aS'G'
aS'C'
aS'C'
aS'G'
aS'C'
aS'C'
aS'C'
aS'C'
aS'C'
aS'G'
aS'G'
aS'A'
aS'T'
aS'C'
aS'G'
aS'C'
aS'G'
aS'C'
aS'C'
aS'C'
aS'C'
aS'G'
aS'G'
aS'A'
aS'C'
aS'C'
aS'C'
aS'C'
aS'G'
aS'C'
aS'A'
aS'G'
aS'C'
aS'C'
aS'C'
aS'G'
aS'C'
aS'C'
aS'C'
aS'A'
aS'A'
aS'C'
aS'C'
aS'G'
aS'C'
aS'G'
aS'C'
aS'A'
aS'C'
aS'C'
aS'G'
aS'G'
aS'C'
aS'G'
aS'C'
aS'A'
aS'C'
aS'C'
aS'G'
aS'G'
aS'C'
aS'T'
aS'C'
aS'G'
aS'G'
aS'C'
aS'G'
aS'C'
aS'C'
aS'C'
aS'G'
aS'C'
aS'G'
aS'C'
aS'C'
aS'C'
aS'C'
aS'C'
aS'G'
aS'C'
aS'C'
aS'C'
aS'G'
aS'T'
aS'C'
aS'C'
aS'T'
aS'T'
aS'T'
aS'C'
aS'C'
aS'T'
aS'G'
aS'T'
aS'T'
aS'T'
aS'C'
aS'C'
aS'T'
aS'T'
aS'G'
aS'A'
aS'G'
aS'A'
aS'T'
aS'C'
aS'A'
aS'G'
aS'C'
aS'T'
aS'G'
aS'C'
aS'G'
aS'C'
aS'C'
aS'G'
aS'C'
aS'C'
aS'G'
aS'A'
aS'C'
aS'C'
aS'G'
assI2
(dp82
g71
g72
(g73
g74
I128254
tRp83
sg76
I152
sg77
I452
sg78
g72
(g73
g74
I128406
tRp84
sg80
(lp85
S'G'
aS'C'
aS'C'
aS'C'
aS'A'
aS'G'
aS'A'
aS'T'
aS'G'
aS'A'
aS'C'
aS'C'
aS'T'
aS'G'
aS'G'
aS'G'
aS'C'
aS'A'
aS'G'
aS'G'
aS'A'
aS'A'
aS'T'
aS'G'
aS'G'
aS'G'
aS'T'
aS'G'
aS'A'
aS'G'
aS'T'
aS'C'
aS'T'
aS'C'
aS'T'
aS'G'
aS'T'
aS'G'
aS'T'
aS'G'
aS'G'
aS'A'
aS'G'
aS'A'
aS'G'
aS'A'
aS'G'
aS'T'
aS'G'
aS'A'
aS'A'
aS'G'
aS'A'
aS'A'
aS'A'
aS'C'
aS'T'
aS'G'
aS'C'
aS'T'
aS'A'
aS'C'
aS'C'
aS'C'
aS'T'
aS'T'
aS'A'
aS'A'
aS'T'
aS'A'
aS'C'
aS'C'
aS'T'
aS'G'
aS'G'
aS'A'
aS'C'
aS'C'
aS'T'
aS'T'
aS'G'
aS'A'
aS'G'
aS'G'
aS'G'
aS'A'
aS'T'
aS'T'
aS'G'
aS'T'
aS'T'
aS'T'
aS'T'
aS'A'
aS'T'
aS'T'
aS'T'
aS'T'
aS'A'
aS'G'
aS'T'
aS'T'
aS'T'
aS'T'
aS'T'
aS'C'
aS'T'
aS'G'
aS'C'
aS'A'
aS'T'
aS'T'
aS'T'
aS'C'
aS'T'
aS'C'
aS'A'
aS'G'
aS'T'
aS'A'
aS'T'
aS'T'
aS'T'
aS'C'
aS'A'
aS'T'
aS'G'
aS'T'
aS'G'
aS'A'
aS'T'
aS'A'
aS'T'
aS'C'
aS'T'
aS'G'
aS'T'
aS'C'
aS'T'
aS'T'
aS'T'
aS'T'
aS'T'
aS'C'
aS'T'
aS'T'
aS'C'
aS'C'
aS'A'
aS'G'
aS'T'
aS'T'
aS'T'
aS'G'
aS'C'
aS'C'
aS'A'
aS'A'
aS'G'
aS'G'
aS'C'
aS'A'
aS'C'
aS'G'
aS'A'
aS'G'
aS'T'
aS'A'
aS'A'
aS'C'
aS'A'
aS'A'
aS'G'
aS'C'
aS'T'
aS'C'
aS'A'
aS'C'
aS'G'
aS'C'
aS'A'
aS'G'
aS'T'
aS'T'
aS'G'
aS'G'
aS'G'
aS'C'
aS'A'
aS'C'
aS'T'
aS'C'
aS'T'
aS'T'
aS'G'
aS'A'
aS'A'
aS'G'
aS'A'
aS'T'
aS'C'
aS'A'
aS'T'
aS'T'
aS'T'
aS'T'
aS'C'
aS'T'
aS'C'
aS'A'
aS'G'
aS'C'
aS'C'
aS'T'
aS'C'
aS'C'
aS'A'
aS'G'
aS'A'
aS'G'
aS'G'
aS'A'
aS'T'
aS'G'
aS'T'
aS'T'
aS'C'
aS'A'
aS'A'
aS'T'
aS'A'
aS'A'
aS'C'
aS'T'
aS'G'
aS'T'
aS'G'
aS'A'
aS'G'
aS'G'
aS'T'
aS'G'
aS'G'
aS'T'
aS'C'
aS'C'
aS'T'
aS'T'
aS'G'
aS'G'
aS'G'
aS'A'
aS'A'
aS'T'
aS'T'
aS'T'
aS'G'
aS'G'
aS'A'
aS'A'
aS'A'
aS'T'
aS'T'
aS'A'
aS'C'
aS'C'
aS'T'
aS'A'
aS'T'
aS'G'
aS'T'
aS'G'
aS'C'
aS'A'
aS'G'
aS'A'
aS'G'
aS'G'
aS'A'
aS'A'
aS'T'
aS'T'
aS'A'
aS'T'
aS'G'
aS'A'
aS'T'
aS'C'
aS'T'
aS'T'
aS'T'
aS'C'
aS'C'
aS'T'
aS'T'
aS'C'
aS'T'
aS'T'
aS'A'
aS'A'
aS'A'
aS'G'
aS'G'
aS'T'
aS'T'
aS'G'
aS'G'
aS'T'
aS'G'
aS'A'
aS'C'
aS'T'
aS'T'
aS'T'
aS'G'
aS'A'
aS'T'
aS'T'
aS'T'
aS'T'
aS'C'
aS'C'
aS'T'
aS'A'
aS'C'
aS'A'
aS'C'
aS'A'
aS'A'
aS'A'
aS'T'
aS'A'
aS'A'
aS'A'
aS'A'
aS'T'
aS'T'
aS'G'
aS'G'
aS'A'
aS'G'
aS'A'
aS'A'
aS'A'
aS'A'
aS'T'
aS'C'
aS'T'
aS'A'
aS'A'
aS'G'
aS'T'
aS'G'
aS'G'
aS'A'
aS'G'
aS'A'
aS'A'
aS'A'
aS'G'
aS'G'
aS'C'
aS'C'
aS'T'
aS'G'
aS'G'
aS'G'
aS'C'
aS'A'
aS'G'
aS'A'
aS'A'
aS'T'
aS'T'
aS'C'
aS'C'
aS'A'
aS'C'
aS'T'
aS'T'
aS'G'
aS'A'
aS'A'
aS'G'
aS'T'
aS'G'
aS'T'
aS'G'
aS'T'
aS'T'
aS'T'
aS'A'
aS'T'
aS'T'
aS'T'
aS'T'
aS'T'
aS'G'
aS'C'
aS'T'
aS'A'
aS'T'
aS'G'
aS'G'
aS'C'
aS'A'
aS'A'
aS'T'
aS'G'
aS'A'
aS'C'
aS'A'
aS'A'
aS'G'
aS'T'
aS'C'
aS'T'
aS'T'
aS'A'
aS'C'
aS'A'
aS'G'
aS'A'
aS'G'
aS'C'
aS'T'
aS'A'
aS'C'
aS'A'
aS'A'
aS'A'
aS'C'
aS'G'
aS'A'
aS'G'
aS'A'
aS'G'
aS'T'
aS'T'
aS'T'
aS'T'
aS'A'
aS'T'
aS'G'
aS'A'
aS'G'
aS'A'
aS'A'
aS'A'
aS'G'
aS'C'
aS'C'
assI3
(dp86
g71
g72
(g73
g74
I129273
tRp87
sg76
I184
sg77
I484
sg78
g72
(g73
g74
I129457
tRp88
sg80
(lp89
S'A'
aS'C'
aS'T'
aS'G'
aS'C'
aS'A'
aS'A'
aS'T'
aS'C'
aS'G'
aS'T'
aS'C'
aS'T'
aS'A'
aS'C'
aS'C'
aS'T'
aS'A'
aS'T'
aS'T'
aS'T'
aS'T'
aS'A'
aS'C'
aS'A'
aS'G'
aS'T'
aS'T'
aS'G'
aS'T'
aS'T'
aS'G'
aS'A'
aS'G'
aS'C'
aS'A'
aS'C'
aS'T'
aS'C'
aS'G'
aS'T'
aS'G'
aS'T'
aS'G'
aS'C'
aS'A'
aS'T'
aS'T'
aS'A'
aS'G'
aS'G'
aS'G'
aS'T'
aS'T'
aS'C'
aS'A'
aS'A'
aS'C'
aS'T'
aS'G'
aS'G'
aS'G'
aS'C'
aS'G'
aS'T'
aS'C'
aS'C'
aS'T'
aS'A'
aS'G'
aS'G'
aS'G'
aS'C'
aS'T'
aS'C'
aS'C'
aS'C'
aS'T'
aS'G'
aS'G'
aS'A'
aS'C'
aS'C'
aS'C'
aS'A'
aS'T'
aS'T'
aS'T'
aS'T'
aS'A'
aS'G'
aS'A'
aS'C'
aS'C'
aS'T'
aS'T'
aS'G'
aS'A'
aS'G'
aS'T'
aS'T'
aS'C'
aS'T'
aS'T'
aS'G'
aS'A'
aS'G'
aS'T'
aS'T'
aS'C'
aS'C'
aS'T'
aS'C'
aS'A'
aS'A'
aS'A'
aS'A'
aS'G'
aS'A'
aS'G'
aS'A'
aS'A'
aS'A'
aS'T'
aS'C'
aS'A'
aS'C'
aS'G'
aS'C'
aS'A'
aS'T'
aS'T'
aS'T'
aS'A'
aS'T'
aS'G'
aS'T'
aS'T'
aS'T'
aS'T'
aS'C'
aS'T'
aS'C'
aS'T'
aS'T'
aS'C'
aS'T'
aS'T'
aS'A'
aS'G'
aS'A'
aS'C'
aS'C'
aS'A'
aS'T'
aS'C'
aS'C'
aS'A'
aS'G'
aS'G'
aS'A'
aS'G'
aS'G'
aS'T'
aS'G'
aS'G'
aS'C'
aS'T'
aS'G'
aS'G'
aS'T'
aS'T'
aS'A'
aS'T'
aS'G'
aS'T'
aS'C'
aS'C'
aS'T'
aS'C'
aS'A'
aS'T'
aS'T'
aS'G'
aS'C'
aS'C'
aS'C'
aS'T'
aS'C'
aS'A'
aS'A'
aS'C'
aS'A'
aS'C'
aS'A'
aS'G'
aS'T'
aS'G'
aS'G'
aS'A'
aS'G'
aS'C'
aS'G'
aS'A'
aS'A'
aS'T'
aS'T'
aS'C'
aS'C'
aS'T'
aS'T'
aS'T'
aS'G'
aS'G'
aS'A'
aS'A'
aS'A'
aS'A'
aS'C'
aS'C'
aS'T'
aS'G'
aS'C'
aS'A'
aS'G'
aS'A'
aS'T'
aS'C'
aS'A'
aS'T'
aS'C'
aS'A'
aS'G'
aS'A'
aS'G'
aS'G'
aS'A'
aS'A'
aS'A'
aS'T'
aS'A'
aS'T'
aS'G'
aS'T'
aS'A'
aS'C'
aS'T'
aS'A'
aS'C'
aS'G'
aS'A'
aS'A'
aS'A'
aS'A'
aS'T'
aS'T'
aS'C'
aS'C'
aS'T'
aS'A'
aS'G'
aS'G'
aS'C'
aS'C'
aS'T'
aS'T'
aS'A'
aS'G'
aS'C'
aS'A'
aS'G'
aS'T'
aS'C'
aS'T'
aS'T'
aS'A'
aS'T'
aS'C'
aS'T'
aS'A'
aS'A'
aS'C'
aS'T'
aS'A'
aS'T'
aS'G'
aS'A'
aS'T'
aS'G'
aS'C'
aS'A'
aS'A'
aS'A'
aS'T'
aS'A'
aS'A'
aS'A'
aS'A'
aS'C'
aS'C'
aS'G'
aS'G'
aS'A'
aS'C'
aS'T'
aS'G'
aS'A'
aS'A'
aS'G'
aS'G'
aS'A'
aS'G'
aS'C'
aS'T'
aS'G'
aS'C'
aS'C'
aS'C'
aS'A'
aS'T'
aS'G'
aS'A'
aS'G'
aS'A'
aS'A'
aS'A'
aS'T'
aS'T'
aS'T'
aS'A'
aS'C'
aS'A'
aS'G'
aS'G'
aS'G'
aS'T'
aS'G'
aS'A'
aS'G'
aS'A'
aS'G'
aS'G'
aS'C'
aS'T'
aS'G'
aS'G'
aS'G'
aS'A'
aS'T'
aS'G'
aS'C'
aS'C'
aS'A'
aS'A'
aS'G'
aS'G'
aS'C'
aS'T'
aS'G'
aS'G'
aS'G'
aS'G'
aS'G'
aS'T'
aS'T'
aS'C'
aS'A'
aS'T'
aS'A'
aS'A'
aS'A'
aS'T'
aS'G'
aS'C'
aS'A'
aS'G'
aS'A'
aS'C'
aS'A'
aS'G'
aS'C'
aS'A'
aS'G'
aS'T'
aS'T'
aS'C'
aS'C'
aS'G'
aS'A'
aS'T'
aS'G'
aS'G'
aS'C'
aS'T'
aS'C'
aS'C'
aS'C'
aS'A'
aS'G'
aS'C'
aS'G'
aS'A'
aS'G'
aS'C'
aS'T'
aS'T'
aS'G'
aS'T'
aS'C'
aS'A'
aS'C'
aS'T'
aS'C'
aS'A'
aS'A'
aS'T'
aS'T'
aS'C'
aS'C'
aS'A'
aS'C'
aS'C'
aS'T'
aS'C'
aS'G'
aS'G'
aS'A'
aS'G'
aS'A'
aS'A'
aS'G'
aS'G'
aS'C'
aS'T'
aS'T'
aS'T'
aS'T'
aS'A'
aS'T'
aS'T'
aS'T'
aS'T'
aS'T'
aS'A'
aS'C'
aS'C'
aS'C'
aS'A'
aS'G'
aS'T'
aS'A'
aS'C'
aS'A'
aS'C'
aS'G'
aS'T'
aS'G'
aS'C'
aS'A'
aS'C'
aS'T'
aS'G'
aS'A'
aS'G'
aS'T'
aS'G'
aS'C'
aS'C'
aS'G'
aS'G'
aS'C'
aS'T'
aS'G'
aS'T'
aS'G'
aS'T'
aS'G'
aS'T'
aS'A'
aS'A'
aS'G'
aS'A'
aS'T'
aS'A'
assI4
(dp90
g71
g72
(g73
g74
I132574
tRp91
sg76
I135
sg77
I435
sg78
g72
(g73
g74
I132709
tRp92
sg80
(lp93
S'C'
aS'C'
aS'C'
aS'C'
aS'C'
aS'G'
aS'G'
aS'G'
aS'A'
aS'A'
aS'G'
aS'T'
aS'T'
aS'C'
aS'A'
aS'C'
aS'T'
aS'G'
aS'G'
aS'G'
aS'C'
aS'T'
aS'A'
aS'A'
aS'T'
aS'T'
aS'G'
aS'C'
aS'G'
aS'G'
aS'G'
aS'A'
aS'C'
aS'T'
aS'C'
aS'T'
aS'T'
aS'G'
aS'T'
aS'T'
aS'C'
aS'G'
aS'C'
aS'A'
aS'C'
aS'C'
aS'A'
aS'T'
aS'G'
aS'G'
aS'C'
aS'A'
aS'T'
aS'C'
aS'T'
aS'C'
aS'T'
aS'T'
aS'T'
aS'A'
aS'G'
aS'C'
aS'A'
aS'G'
aS'A'
aS'A'
aS'C'
aS'A'
aS'T'
aS'A'
aS'A'
aS'A'
aS'T'
aS'G'
aS'C'
aS'G'
aS'A'
aS'A'
aS'G'
aS'A'
aS'G'
aS'C'
aS'A'
aS'C'
aS'A'
aS'T'
aS'G'
aS'C'
aS'A'
aS'T'
aS'C'
aS'C'
aS'T'
aS'T'
aS'C'
aS'A'
aS'T'
aS'G'
aS'G'
aS'G'
aS'A'
aS'A'
aS'T'
aS'T'
aS'T'
aS'A'
aS'A'
aS'A'
aS'G'
aS'G'
aS'A'
aS'G'
aS'C'
aS'T'
aS'G'
aS'G'
aS'A'
aS'A'
aS'A'
aS'G'
aS'A'
aS'G'
aS'T'
aS'G'
aS'C'
aS'T'
aS'C'
aS'A'
aS'C'
aS'C'
aS'G'
aS'C'
aS'A'
aS'G'
aS'T'
aS'T'
aS'C'
aS'C'
aS'A'
aS'T'
aS'T'
aS'C'
aS'T'
aS'C'
aS'C'
aS'C'
aS'G'
aS'C'
aS'A'
aS'G'
aS'A'
aS'A'
aS'A'
aS'T'
aS'C'
aS'C'
aS'T'
aS'G'
aS'C'
aS'A'
aS'T'
aS'G'
aS'G'
aS'C'
aS'G'
aS'C'
aS'C'
aS'G'
aS'T'
aS'G'
aS'C'
aS'G'
aS'G'
aS'T'
aS'T'
aS'C'
aS'A'
aS'G'
aS'C'
aS'A'
aS'A'
aS'C'
aS'A'
aS'A'
aS'C'
aS'C'
aS'C'
aS'T'
aS'G'
aS'C'
aS'C'
aS'C'
aS'T'
aS'G'
aS'T'
aS'G'
aS'C'
aS'A'
aS'A'
aS'C'
aS'G'
aS'T'
aS'G'
aS'G'
aS'A'
aS'G'
aS'A'
aS'G'
aS'C'
aS'A'
aS'T'
aS'C'
aS'C'
aS'A'
aS'G'
aS'T'
aS'G'
aS'G'
aS'C'
aS'G'
aS'G'
aS'G'
aS'A'
aS'C'
aS'A'
aS'T'
aS'A'
aS'G'
aS'T'
aS'C'
aS'A'
aS'G'
aS'C'
aS'A'
aS'G'
aS'T'
aS'G'
aS'A'
aS'C'
aS'T'
aS'T'
aS'T'
aS'C'
aS'T'
aS'C'
aS'A'
aS'G'
aS'C'
aS'A'
aS'A'
aS'C'
aS'A'
aS'T'
aS'G'
aS'T'
aS'C'
aS'G'
aS'A'
aS'C'
aS'G'
aS'G'
aS'A'
aS'C'
aS'T'
aS'T'
aS'C'
aS'C'
aS'A'
aS'G'
aS'A'
aS'A'
aS'C'
aS'C'
aS'A'
aS'C'
aS'C'
aS'T'
aS'G'
aS'G'
aS'G'
aS'C'
aS'A'
aS'G'
aS'C'
aS'T'
aS'G'
aS'T'
aS'A'
aS'A'
aS'G'
aS'T'
aS'G'
aS'T'
aS'C'
aS'G'
aS'C'
aS'A'
aS'T'
aS'A'
aS'C'
aS'A'
aS'C'
aS'A'
aS'C'
aS'T'
aS'A'
aS'T'
aS'C'
aS'T'
aS'C'
aS'T'
aS'G'
aS'C'
aS'C'
aS'T'
aS'C'
aS'C'
aS'A'
aS'G'
aS'C'
aS'T'
aS'C'
aS'C'
aS'T'
aS'A'
aS'T'
aS'G'
aS'G'
aS'G'
aS'G'
aS'G'
aS'A'
aS'C'
aS'A'
aS'G'
aS'C'
aS'T'
aS'C'
aS'T'
aS'A'
aS'C'
aS'A'
aS'G'
aS'C'
aS'A'
aS'C'
aS'T'
aS'G'
aS'G'
aS'G'
aS'G'
aS'C'
aS'A'
aS'G'
aS'G'
aS'G'
aS'G'
aS'A'
aS'G'
aS'A'
aS'G'
aS'A'
aS'A'
aS'G'
aS'C'
aS'C'
aS'A'
aS'T'
aS'G'
aS'T'
aS'T'
aS'T'
aS'A'
aS'G'
aS'T'
aS'A'
aS'A'
aS'G'
aS'T'
aS'C'
aS'A'
aS'C'
aS'A'
aS'T'
aS'T'
aS'A'
aS'A'
aS'T'
aS'C'
aS'A'
aS'G'
aS'A'
aS'A'
aS'A'
aS'C'
aS'A'
aS'A'
aS'A'
aS'A'
aS'A'
aS'G'
aS'T'
aS'A'
aS'G'
aS'T'
aS'A'
aS'A'
aS'G'
aS'C'
aS'A'
aS'A'
aS'A'
aS'A'
aS'T'
aS'A'
aS'T'
aS'C'
aS'T'
aS'G'
aS'A'
aS'C'
aS'C'
aS'A'
aS'C'
aS'T'
aS'A'
aS'G'
aS'A'
aS'A'
aS'A'
aS'A'
aS'G'
aS'C'
aS'A'
aS'T'
assI5
(dp94
g71
g72
(g73
g74
I137262
tRp95
sg76
I69
sg77
I369
sg78
g72
(g73
g74
I137331
tRp96
sg80
(lp97
S'G'
aS'A'
aS'T'
aS'T'
aS'C'
aS'T'
aS'A'
aS'C'
aS'A'
aS'A'
aS'A'
aS'C'
aS'C'
aS'A'
aS'G'
aS'C'
aS'C'
aS'A'
aS'G'
aS'C'
aS'C'
aS'A'
aS'A'
aS'A'
aS'C'
aS'A'
aS'A'
aS'T'
aS'C'
aS'A'
aS'G'
aS'A'
aS'G'
aS'A'
aS'A'
aS'T'
aS'A'
aS'A'
aS'G'
aS'T'
aS'T'
aS'G'
aS'A'
aS'A'
aS'A'
aS'A'
aS'G'
aS'A'
aS'T'
aS'T'
aS'G'
aS'T'
aS'C'
aS'T'
aS'T'
aS'C'
aS'A'
aS'T'
aS'T'
aS'T'
aS'A'
aS'T'
aS'T'
aS'G'
aS'A'
aS'A'
aS'T'
aS'G'
aS'T'
aS'G'
aS'C'
aS'T'
aS'T'
aS'A'
aS'A'
aS'C'
aS'T'
aS'C'
aS'A'
aS'G'
aS'G'
aS'C'
aS'C'
aS'C'
aS'G'
aS'G'
aS'G'
aS'A'
aS'A'
aS'A'
aS'G'
aS'G'
aS'G'
aS'C'
aS'G'
aS'T'
aS'C'
aS'A'
aS'T'
aS'C'
aS'A'
aS'G'
aS'T'
aS'T'
aS'T'
aS'C'
aS'T'
aS'C'
aS'A'
aS'T'
aS'C'
aS'A'
aS'T'
aS'T'
aS'T'
aS'C'
aS'A'
aS'C'
aS'T'
aS'G'
aS'A'
aS'G'
aS'A'
aS'T'
aS'A'
aS'T'
aS'G'
aS'C'
aS'A'
aS'T'
aS'C'
aS'T'
aS'A'
aS'T'
aS'T'
aS'A'
aS'C'
aS'T'
aS'T'
aS'T'
aS'T'
aS'A'
aS'C'
aS'A'
aS'T'
aS'T'
aS'T'
aS'C'
aS'A'
aS'G'
aS'G'
aS'C'
aS'C'
aS'A'
aS'T'
aS'A'
aS'A'
aS'G'
aS'T'
aS'G'
aS'T'
aS'G'
aS'A'
aS'T'
aS'C'
aS'C'
aS'A'
aS'A'
aS'G'
aS'C'
aS'T'
aS'G'
aS'T'
aS'C'
aS'C'
aS'C'
aS'A'
aS'A'
aS'T'
aS'G'
aS'G'
aS'G'
aS'A'
aS'G'
aS'C'
aS'T'
aS'G'
aS'C'
aS'T'
aS'G'
aS'G'
aS'G'
aS'G'
aS'T'
aS'G'
aS'C'
aS'A'
aS'G'
aS'G'
aS'A'
aS'G'
aS'A'
aS'G'
aS'G'
aS'A'
aS'G'
aS'A'
aS'A'
aS'C'
aS'T'
aS'G'
aS'C'
aS'C'
aS'A'
aS'G'
aS'A'
aS'A'
aS'A'
aS'C'
aS'G'
aS'T'
aS'A'
aS'A'
aS'G'
aS'T'
aS'C'
aS'A'
aS'G'
aS'T'
aS'G'
aS'A'
aS'A'
aS'C'
aS'A'
aS'G'
aS'C'
aS'C'
aS'T'
aS'C'
aS'A'
aS'G'
aS'A'
aS'C'
aS'C'
aS'C'
aS'A'
aS'T'
aS'G'
aS'T'
aS'G'
aS'T'
aS'G'
aS'A'
aS'C'
aS'C'
aS'G'
aS'C'
aS'C'
aS'C'
aS'C'
aS'T'
aS'C'
aS'T'
aS'C'
aS'T'
aS'T'
aS'C'
aS'C'
aS'T'
aS'T'
aS'C'
aS'A'
aS'C'
aS'T'
aS'T'
aS'G'
aS'C'
aS'T'
aS'T'
aS'A'
aS'G'
aS'G'
aS'T'
aS'G'
aS'A'
aS'T'
aS'T'
aS'G'
aS'G'
aS'A'
aS'T'
aS'T'
aS'T'
aS'G'
aS'T'
aS'T'
aS'T'
aS'T'
aS'C'
aS'C'
aS'C'
aS'T'
aS'C'
aS'T'
aS'G'
aS'A'
aS'A'
aS'G'
aS'A'
aS'C'
aS'T'
aS'C'
aS'C'
aS'A'
aS'A'
aS'A'
aS'G'
aS'A'
aS'G'
aS'T'
aS'T'
aS'A'
aS'C'
aS'T'
aS'T'
aS'T'
aS'A'
aS'T'
aS'T'
aS'A'
aS'C'
aS'A'
aS'G'
aS'G'
aS'G'
aS'T'
aS'C'
aS'A'
aS'G'
aS'A'
aS'T'
aS'G'
aS'T'
aS'G'
aS'A'
aS'A'
aS'C'
aS'C'
aS'A'
aS'G'
aS'T'
aS'A'
aS'G'
aS'G'
aS'T'
aS'G'
aS'A'
aS'A'
aS'G'
aS'G'
aS'A'
aS'C'
aS'A'
aS'G'
aS'T'
aS'C'
aS'T'
aS'T'
aS'G'
assI6
(dp98
g71
g72
(g73
g74
I138514
tRp99
sg76
I119
sg77
I419
sg78
g72
(g73
g74
I138633
tRp100
sg80
(lp101
S'G'
aS'C'
aS'A'
aS'T'
aS'G'
aS'G'
aS'T'
aS'T'
aS'T'
aS'G'
aS'A'
aS'C'
aS'T'
aS'T'
aS'A'
aS'G'
aS'T'
aS'T'
aS'T'
aS'G'
aS'A'
aS'A'
aS'T'
aS'G'
aS'T'
aS'G'
aS'G'
aS'T'
aS'T'
aS'T'
aS'C'
aS'G'
aS'T'
aS'T'
aS'G'
aS'G'
aS'A'
aS'A'
aS'G'
aS'C'
aS'A'
aS'A'
aS'A'
aS'T'
aS'G'
aS'T'
aS'G'
aS'T'
aS'C'
aS'T'
aS'T'
aS'C'
aS'A'
aS'C'
aS'T'
aS'T'
aS'T'
aS'T'
aS'T'
aS'C'
aS'A'
aS'T'
aS'G'
aS'A'
aS'A'
aS'A'
aS'A'
aS'A'
aS'G'
aS'T'
aS'C'
aS'T'
aS'G'
aS'C'
aS'A'
aS'A'
aS'G'
aS'T'
aS'G'
aS'C'
aS'T'
aS'C'
aS'T'
aS'G'
aS'C'
aS'G'
aS'A'
aS'C'
aS'A'
aS'T'
aS'C'
aS'C'
aS'C'
aS'T'
aS'G'
aS'G'
aS'G'
aS'A'
aS'A'
aS'A'
aS'T'
aS'G'
aS'A'
aS'T'
aS'C'
aS'C'
aS'T'
aS'A'
aS'C'
aS'C'
aS'C'
aS'T'
aS'C'
aS'A'
aS'C'
aS'T'
aS'C'
aS'T'
aS'T'
aS'C'
aS'A'
aS'G'
aS'C'
aS'T'
aS'C'
aS'A'
aS'C'
aS'A'
aS'G'
aS'G'
aS'G'
aS'A'
aS'A'
aS'C'
aS'C'
aS'T'
aS'T'
aS'T'
aS'G'
aS'C'
aS'T'
aS'C'
aS'T'
aS'T'
aS'T'
aS'T'
aS'T'
aS'C'
aS'A'
aS'G'
aS'T'
aS'G'
aS'A'
aS'C'
aS'C'
aS'A'
aS'A'
aS'A'
aS'A'
aS'T'
aS'C'
aS'A'
aS'T'
aS'C'
aS'T'
aS'G'
aS'T'
aS'G'
aS'C'
aS'C'
aS'C'
aS'A'
aS'G'
aS'C'
aS'A'
aS'G'
aS'T'
aS'G'
aS'C'
aS'T'
aS'C'
aS'C'
aS'G'
aS'G'
aS'G'
aS'C'
aS'G'
aS'C'
aS'T'
aS'G'
aS'C'
aS'C'
aS'G'
aS'T'
aS'G'
aS'G'
aS'C'
aS'A'
aS'A'
aS'G'
aS'T'
aS'C'
aS'C'
aS'C'
aS'C'
aS'C'
aS'A'
aS'G'
aS'T'
aS'G'
aS'A'
aS'C'
aS'T'
aS'G'
aS'C'
aS'T'
aS'G'
aS'C'
aS'C'
aS'A'
aS'C'
aS'A'
aS'A'
aS'C'
aS'C'
aS'A'
aS'G'
aS'T'
aS'G'
aS'T'
aS'G'
aS'C'
aS'C'
aS'G'
aS'C'
aS'A'
aS'G'
aS'G'
aS'C'
aS'T'
aS'G'
aS'C'
aS'A'
aS'C'
aS'A'
aS'G'
aS'G'
aS'C'
aS'C'
aS'C'
aS'C'
aS'C'
aS'G'
aS'G'
aS'G'
aS'A'
aS'G'
aS'A'
aS'G'
aS'C'
aS'G'
aS'A'
aS'C'
aS'T'
aS'G'
aS'C'
aS'C'
aS'T'
aS'G'
aS'G'
aS'T'
aS'A'
aS'A'
aS'G'
aS'A'
aS'T'
aS'G'
aS'C'
aS'C'
aS'C'
aS'C'
aS'T'
aS'C'
aS'C'
aS'A'
aS'G'
aS'C'
aS'A'
aS'G'
aS'C'
aS'C'
aS'T'
aS'C'
aS'C'
aS'C'
aS'T'
aS'G'
aS'G'
aS'A'
aS'G'
aS'C'
aS'A'
aS'G'
aS'G'
aS'C'
aS'T'
aS'G'
aS'G'
aS'G'
aS'G'
aS'C'
aS'T'
aS'G'
aS'C'
aS'A'
aS'C'
aS'C'
aS'C'
aS'G'
aS'C'
aS'C'
aS'C'
aS'C'
aS'A'
aS'C'
aS'C'
aS'C'
aS'A'
aS'C'
aS'A'
aS'C'
aS'C'
aS'A'
aS'G'
aS'G'
aS'A'
aS'C'
aS'A'
aS'G'
aS'A'
aS'A'
aS'G'
aS'A'
aS'C'
aS'T'
aS'T'
aS'C'
aS'C'
aS'T'
aS'G'
aS'T'
aS'G'
aS'G'
aS'G'
aS'G'
aS'G'
aS'A'
aS'G'
aS'C'
aS'T'
aS'G'
aS'T'
aS'C'
aS'A'
aS'A'
aS'T'
aS'T'
aS'A'
aS'G'
aS'C'
aS'A'
aS'T'
aS'T'
aS'T'
aS'G'
aS'T'
aS'C'
aS'A'
aS'T'
aS'A'
aS'A'
aS'C'
aS'A'
aS'G'
aS'A'
aS'C'
aS'A'
aS'G'
aS'G'
aS'A'
aS'T'
aS'A'
aS'T'
aS'T'
aS'G'
aS'C'
aS'C'
aS'C'
aS'T'
aS'C'
aS'T'
aS'G'
aS'C'
aS'C'
aS'T'
aS'G'
aS'G'
aS'T'
aS'G'
aS'A'
aS'C'
aS'A'
aS'A'
aS'A'
aS'G'
aS'T'
aS'A'
aS'T'
aS'C'
assI7
(dp102
g71
g72
(g73
g74
I139979
tRp103
sg76
I142
sg77
I442
sg78
g72
(g73
g74
I140121
tRp104
sg80
(lp105
S'A'
aS'G'
aS'C'
aS'T'
aS'G'
aS'G'
aS'G'
aS'T'
aS'T'
aS'T'
aS'T'
aS'C'
aS'C'
aS'C'
aS'A'
aS'C'
aS'A'
aS'C'
aS'T'
aS'A'
aS'G'
aS'T'
aS'G'
aS'G'
aS'A'
aS'A'
aS'C'
aS'A'
aS'C'
aS'T'
aS'A'
aS'G'
aS'G'
aS'C'
aS'T'
aS'G'
aS'C'
aS'A'
aS'A'
aS'A'
aS'G'
aS'A'
aS'C'
aS'A'
aS'G'
aS'T'
aS'A'
aS'A'
aS'C'
aS'T'
aS'T'
aS'G'
aS'G'
aS'G'
aS'C'
aS'T'
aS'T'
aS'T'
aS'C'
aS'T'
aS'G'
aS'A'
aS'C'
aS'G'
aS'G'
aS'G'
aS'A'
aS'G'
aS'T'
aS'C'
aS'A'
aS'A'
aS'C'
aS'A'
aS'C'
aS'C'
aS'G'
aS'T'
aS'G'
aS'C'
aS'T'
aS'G'
aS'C'
aS'G'
aS'C'
aS'T'
aS'T'
aS'C'
aS'C'
aS'T'
aS'C'
aS'C'
aS'G'
aS'T'
aS'G'
aS'T'
aS'G'
aS'T'
aS'G'
aS'G'
aS'C'
aS'G'
aS'C'
aS'T'
aS'G'
aS'A'
aS'G'
aS'T'
aS'G'
aS'T'
aS'A'
aS'C'
aS'T'
aS'T'
aS'A'
aS'C'
aS'C'
aS'T'
aS'C'
aS'A'
aS'C'
aS'T'
aS'T'
aS'G'
aS'C'
aS'C'
aS'C'
aS'A'
aS'G'
aS'C'
aS'G'
aS'T'
aS'G'
aS'T'
aS'C'
aS'C'
aS'T'
aS'C'
aS'T'
aS'C'
aS'T'
aS'C'
aS'C'
aS'T'
aS'C'
aS'C'
aS'A'
aS'T'
aS'A'
aS'G'
aS'T'
aS'T'
aS'C'
aS'T'
aS'G'
aS'C'
aS'C'
aS'G'
aS'C'
aS'A'
aS'A'
aS'A'
aS'T'
aS'T'
aS'C'
aS'C'
aS'G'
aS'A'
aS'G'
aS'A'
aS'C'
aS'G'
aS'A'
aS'A'
aS'G'
aS'C'
aS'C'
aS'A'
aS'C'
aS'G'
aS'T'
aS'G'
aS'C'
aS'A'
aS'A'
aS'G'
aS'G'
aS'A'
aS'C'
aS'A'
aS'C'
aS'C'
aS'T'
aS'G'
aS'C'
aS'C'
aS'C'
aS'C'
aS'C'
aS'C'
aS'A'
aS'C'
aS'T'
aS'C'
aS'A'
aS'T'
aS'G'
aS'C'
aS'T'
aS'C'
aS'T'
aS'A'
aS'C'
aS'A'
aS'A'
aS'C'
aS'C'
aS'C'
aS'C'
aS'A'
aS'C'
aS'C'
aS'A'
aS'C'
aS'G'
aS'T'
aS'A'
aS'C'
aS'C'
aS'A'
aS'G'
aS'A'
aS'T'
aS'G'
aS'G'
aS'A'
aS'T'
aS'G'
aS'T'
aS'G'
aS'A'
aS'A'
aS'C'
aS'C'
aS'C'
aS'C'
aS'G'
aS'A'
aS'G'
aS'G'
aS'G'
aS'C'
aS'A'
aS'A'
aS'A'
aS'T'
aS'A'
aS'C'
aS'A'
aS'G'
aS'C'
aS'T'
aS'T'
aS'T'
aS'G'
aS'G'
aS'T'
aS'G'
aS'C'
aS'C'
aS'A'
aS'C'
aS'C'
aS'T'
aS'G'
aS'C'
aS'G'
aS'T'
aS'G'
aS'A'
aS'A'
aS'G'
aS'A'
aS'A'
aS'G'
aS'T'
aS'G'
aS'T'
aS'C'
aS'C'
aS'C'
aS'C'
aS'G'
aS'T'
aS'G'
aS'A'
aS'G'
aS'T'
aS'C'
aS'C'
aS'T'
aS'C'
aS'C'
aS'T'
aS'C'
aS'T'
aS'G'
aS'T'
aS'G'
aS'G'
aS'G'
aS'C'
aS'C'
aS'C'
aS'T'
aS'C'
aS'T'
aS'A'
aS'A'
aS'C'
aS'T'
aS'G'
aS'G'
aS'T'
aS'C'
aS'A'
aS'G'
aS'G'
aS'C'
aS'A'
aS'T'
aS'C'
aS'C'
aS'T'
aS'T'
aS'G'
aS'T'
aS'C'
aS'C'
aS'C'
aS'G'
aS'C'
aS'T'
aS'C'
aS'T'
aS'G'
aS'T'
aS'C'
aS'T'
aS'C'
aS'C'
aS'T'
aS'G'
aS'C'
aS'T'
aS'G'
aS'A'
aS'G'
aS'C'
aS'C'
aS'C'
aS'T'
aS'G'
aS'G'
aS'A'
aS'G'
aS'T'
aS'A'
aS'T'
aS'C'
aS'C'
aS'C'
aS'A'
aS'T'
aS'C'
aS'T'
aS'T'
aS'G'
aS'G'
aS'A'
aS'G'
aS'A'
aS'G'
aS'T'
aS'C'
aS'T'
aS'T'
aS'T'
aS'G'
aS'G'
aS'G'
aS'T'
aS'G'
aS'G'
aS'A'
aS'T'
aS'G'
aS'T'
aS'G'
aS'T'
aS'T'
aS'T'
aS'G'
aS'C'
aS'C'
aS'T'
aS'T'
aS'G'
aS'C'
aS'T'
aS'T'
aS'G'
aS'G'
aS'A'
aS'G'
aS'G'
aS'A'
aS'G'
aS'G'
aS'C'
aS'G'
aS'A'
aS'C'
aS'C'
aS'C'
aS'T'
aS'G'
aS'T'
aS'G'
aS'C'
aS'C'
aS'C'
aS'G'
aS'T'
aS'C'
aS'C'
aS'A'
aS'G'
aS'G'
aS'C'
aS'A'
aS'C'
assI8
(dp106
g71
g72
(g73
g74
I141798
tRp107
sg76
I117
sg77
I417
sg78
g72
(g73
g74
I141915
tRp108
sg80
(lp109
S'T'
aS'G'
aS'C'
aS'A'
aS'A'
aS'C'
aS'C'
aS'T'
aS'T'
aS'T'
aS'C'
aS'A'
aS'T'
aS'T'
aS'C'
aS'T'
aS'T'
aS'T'
aS'G'
aS'T'
aS'C'
aS'C'
aS'T'
aS'T'
aS'A'
aS'A'
aS'A'
aS'G'
aS'T'
aS'A'
aS'A'
aS'A'
aS'T'
aS'A'
aS'A'
aS'A'
aS'G'
aS'C'
aS'C'
aS'A'
aS'A'
aS'A'
aS'G'
aS'G'
aS'A'
aS'G'
aS'G'
aS'A'
aS'T'
aS'G'
aS'G'
aS'A'
aS'G'
aS'C'
aS'C'
aS'T'
aS'T'
aS'T'
aS'C'
aS'C'
aS'A'
aS'T'
aS'C'
aS'A'
aS'C'
aS'C'
aS'C'
aS'C'
aS'T'
aS'C'
aS'A'
aS'A'
aS'G'
aS'A'
aS'G'
aS'G'
aS'A'
aS'C'
aS'C'
aS'T'
aS'G'
aS'G'
aS'A'
aS'C'
aS'C'
aS'G'
aS'C'
aS'C'
aS'T'
aS'G'
aS'T'
aS'G'
aS'T'
aS'G'
aS'A'
aS'G'
aS'G'
aS'C'
aS'C'
aS'C'
aS'G'
aS'A'
aS'G'
aS'C'
aS'A'
aS'C'
aS'C'
aS'T'
aS'G'
aS'G'
aS'T'
aS'G'
aS'C'
aS'C'
aS'A'
aS'C'
aS'C'
aS'G'
aS'T'
aS'C'
aS'A'
aS'T'
aS'C'
aS'A'
aS'C'
aS'C'
aS'T'
aS'T'
aS'C'
aS'C'
aS'T'
aS'T'
aS'T'
aS'C'
aS'A'
aS'T'
aS'G'
aS'C'
aS'T'
aS'C'
aS'T'
aS'C'
aS'T'
aS'T'
aS'C'
aS'C'
aS'C'
aS'C'
aS'A'
aS'G'
aS'G'
aS'T'
aS'A'
aS'A'
aS'T'
aS'T'
aS'A'
aS'T'
aS'G'
aS'T'
aS'G'
aS'G'
aS'T'
aS'G'
aS'A'
aS'C'
aS'A'
aS'G'
aS'A'
aS'T'
aS'C'
aS'A'
aS'C'
aS'G'
aS'G'
aS'C'
aS'T'
aS'C'
aS'G'
aS'T'
aS'G'
aS'C'
aS'G'
aS'T'
aS'C'
aS'C'
aS'G'
aS'A'
aS'G'
aS'G'
aS'C'
aS'T'
aS'G'
aS'T'
aS'G'
aS'G'
aS'G'
aS'G'
aS'C'
aS'C'
aS'G'
aS'A'
aS'C'
aS'A'
aS'G'
aS'C'
aS'T'
aS'A'
aS'T'
aS'G'
aS'A'
aS'G'
aS'A'
aS'T'
aS'G'
aS'G'
aS'A'
aS'G'
aS'G'
aS'A'
aS'A'
aS'G'
aS'A'
aS'C'
aS'G'
aS'G'
aS'C'
aS'G'
aS'T'
aS'C'
aS'C'
aS'G'
aS'C'
aS'A'
aS'A'
aS'G'
aS'T'
aS'G'
aS'T'
aS'A'
aS'A'
aS'G'
aS'A'
aS'A'
aS'G'
aS'T'
aS'G'
aS'C'
aS'G'
aS'A'
aS'A'
aS'G'
aS'G'
aS'G'
aS'C'
aS'C'
aS'T'
aS'T'
aS'G'
aS'C'
aS'C'
aS'G'
aS'C'
aS'A'
aS'A'
aS'A'
aS'G'
aS'G'
aS'T'
aS'A'
aS'G'
aS'G'
aS'A'
aS'A'
aS'G'
aS'C'
aS'C'
aS'C'
aS'G'
aS'C'
aS'C'
aS'G'
aS'G'
aS'T'
aS'G'
aS'T'
aS'G'
aS'C'
aS'G'
aS'G'
aS'A'
aS'C'
aS'G'
aS'A'
aS'G'
aS'G'
aS'C'
aS'T'
aS'T'
aS'G'
aS'T'
aS'T'
aS'C'
aS'T'
aS'C'
aS'G'
aS'G'
aS'C'
aS'T'
aS'G'
aS'C'
aS'T'
aS'G'
aS'A'
aS'G'
aS'G'
aS'C'
aS'T'
aS'G'
aS'G'
aS'G'
aS'C'
aS'T'
aS'C'
aS'T'
aS'C'
aS'A'
aS'T'
aS'G'
aS'C'
aS'C'
aS'A'
aS'C'
aS'C'
aS'T'
aS'C'
aS'C'
aS'A'
aS'A'
aS'A'
aS'G'
aS'G'
aS'A'
aS'A'
aS'C'
aS'A'
aS'C'
aS'A'
aS'T'
aS'C'
aS'T'
aS'T'
aS'C'
aS'C'
aS'T'
aS'C'
aS'T'
aS'T'
aS'C'
aS'T'
aS'C'
aS'A'
aS'T'
aS'T'
aS'A'
aS'A'
aS'A'
aS'A'
aS'A'
aS'A'
aS'C'
aS'A'
aS'A'
aS'C'
aS'T'
aS'A'
aS'T'
aS'A'
aS'C'
aS'A'
aS'T'
aS'A'
aS'T'
aS'C'
aS'G'
aS'T'
aS'T'
aS'T'
aS'C'
aS'T'
aS'T'
aS'T'
aS'A'
aS'A'
aS'A'
aS'A'
aS'C'
aS'A'
aS'G'
aS'A'
aS'A'
aS'G'
aS'A'
aS'T'
aS'A'
aS'A'
aS'A'
aS'G'
aS'C'
aS'T'
aS'G'
aS'T'
aS'A'
aS'A'
aS'A'
aS'G'
aS'C'
assI9
(dp110
g71
g72
(g73
g74
I142501
tRp111
sg76
I127
sg77
I427
sg78
g72
(g73
g74
I142628
tRp112
sg80
(lp113
S'C'
aS'C'
aS'T'
aS'T'
aS'C'
aS'A'
aS'G'
aS'T'
aS'G'
aS'T'
aS'T'
aS'T'
aS'G'
aS'T'
aS'T'
aS'G'
aS'A'
aS'G'
aS'T'
aS'G'
aS'A'
aS'A'
aS'T'
aS'G'
aS'A'
aS'A'
aS'G'
aS'G'
aS'A'
aS'T'
aS'G'
aS'A'
aS'T'
aS'G'
aS'T'
aS'G'
aS'G'
aS'C'
aS'A'
aS'G'
aS'T'
aS'G'
aS'G'
aS'C'
aS'G'
aS'G'
aS'T'
aS'T'
aS'C'
aS'C'
aS'G'
aS'G'
aS'T'
aS'G'
aS'A'
aS'C'
aS'C'
aS'G'
aS'G'
aS'A'
aS'A'
aS'T'
aS'T'
aS'C'
aS'C'
aS'T'
aS'T'
aS'C'
aS'C'
aS'T'
aS'G'
aS'C'
aS'T'
aS'T'
aS'C'
aS'C'
aS'C'
aS'T'
aS'C'
aS'T'
aS'G'
aS'C'
aS'C'
aS'T'
aS'G'
aS'T'
aS'G'
aS'G'
aS'A'
aS'T'
aS'C'
aS'C'
aS'C'
aS'T'
aS'A'
aS'G'
aS'C'
aS'T'
aS'A'
aS'T'
aS'T'
aS'C'
aS'T'
aS'T'
aS'A'
aS'A'
aS'T'
aS'C'
aS'C'
aS'A'
aS'A'
aS'C'
aS'A'
aS'A'
aS'A'
aS'T'
aS'G'
aS'T'
aS'G'
aS'A'
aS'A'
aS'C'
aS'G'
aS'G'
aS'A'
aS'A'
aS'T'
aS'A'
aS'C'
aS'A'
aS'C'
aS'G'
aS'T'
aS'C'
aS'T'
aS'C'
aS'T'
aS'C'
aS'T'
aS'T'
aS'A'
aS'T'
aS'C'
aS'T'
aS'C'
aS'T'
aS'G'
aS'C'
aS'A'
aS'G'
aS'T'
aS'G'
aS'T'
aS'G'
aS'T'
aS'A'
aS'A'
aS'C'
aS'G'
aS'G'
aS'A'
aS'A'
aS'T'
aS'A'
aS'G'
aS'G'
aS'T'
aS'A'
aS'T'
aS'T'
aS'G'
aS'G'
aS'T'
aS'G'
aS'A'
aS'A'
aS'T'
aS'T'
aS'T'
aS'A'
aS'A'
aS'A'
aS'G'
aS'A'
aS'C'
aS'T'
aS'C'
aS'A'
aS'C'
aS'T'
aS'C'
aS'T'
aS'C'
aS'C'
aS'A'
aS'T'
aS'A'
aS'A'
aS'A'
aS'T'
aS'G'
aS'C'
aS'T'
aS'A'
aS'C'
aS'G'
aS'A'
aS'A'
aS'T'
aS'A'
aS'T'
aS'T'
aS'A'
aS'A'
aS'A'
aS'C'
aS'A'
aS'C'
aS'T'
aS'T'
aS'C'
aS'A'
aS'A'
aS'A'
aS'A'
aS'A'
aS'C'
aS'T'
aS'G'
aS'C'
aS'A'
aS'C'
aS'C'
aS'T'
aS'C'
aS'C'
aS'A'
aS'G'
aS'C'
aS'A'
aS'G'
aS'T'
aS'G'
aS'G'
aS'C'
aS'G'
aS'A'
aS'T'
aS'C'
aS'T'
aS'C'
aS'C'
aS'A'
aS'C'
aS'A'
aS'T'
aS'C'
aS'C'
aS'T'
aS'G'
aS'C'
aS'C'
aS'G'
aS'G'
aS'T'
aS'G'
aS'G'
aS'C'
aS'A'
aS'T'
aS'T'
aS'T'
aS'A'
aS'G'
aS'G'
aS'G'
aS'G'
aS'G'
aS'T'
aS'G'
aS'A'
aS'G'
aS'T'
aS'C'
aS'A'
aS'C'
aS'A'
aS'G'
aS'G'
aS'T'
aS'T'
aS'C'
aS'A'
aS'G'
aS'T'
aS'T'
aS'G'
aS'C'
aS'T'
aS'T'
aS'G'
aS'T'
aS'A'
aS'T'
aS'A'
aS'A'
aS'A'
aS'G'
aS'A'
aS'A'
aS'A'
aS'A'
aS'A'
aS'C'
aS'A'
aS'A'
aS'A'
aS'A'
aS'T'
aS'C'
aS'T'
aS'G'
aS'C'
aS'C'
aS'T'
aS'T'
aS'T'
aS'T'
aS'T'
aS'A'
aS'A'
aS'C'
aS'T'
aS'G'
aS'G'
aS'T'
aS'A'
aS'G'
aS'A'
aS'G'
aS'A'
aS'T'
aS'T'
aS'G'
aS'G'
aS'T'
aS'G'
aS'A'
aS'T'
aS'C'
aS'A'
aS'A'
aS'T'
aS'A'
aS'A'
aS'T'
aS'C'
aS'A'
aS'C'
aS'C'
aS'C'
aS'T'
aS'G'
aS'T'
aS'T'
aS'G'
aS'T'
aS'T'
aS'T'
aS'G'
aS'T'
aS'T'
aS'T'
aS'C'
aS'A'
aS'G'
aS'T'
aS'G'
aS'A'
aS'C'
aS'T'
aS'C'
aS'C'
aS'T'
aS'T'
aS'C'
aS'A'
aS'C'
aS'A'
aS'C'
aS'A'
aS'T'
aS'A'
aS'C'
aS'T'
aS'C'
aS'C'
aS'T'
aS'C'
aS'C'
aS'T'
aS'C'
aS'T'
aS'G'
aS'G'
aS'A'
aS'T'
aS'C'
aS'C'
aS'A'
aS'C'
aS'A'
aS'G'
aS'G'
aS'A'
aS'A'
aS'C'
aS'T'
aS'G'
aS'G'
aS'A'
aS'T'
aS'A'
aS'T'
aS'T'
aS'C'
aS'T'
assI10
(dp114
g71
g72
(g73
g74
I142727
tRp115
sg76
I74
sg77
I374
sg78
g72
(g73
g74
I142801
tRp116
sg80
(lp117
S'C'
aS'T'
aS'G'
aS'C'
aS'A'
aS'C'
aS'C'
aS'T'
aS'C'
aS'C'
aS'A'
aS'G'
aS'C'
aS'A'
aS'G'
aS'T'
aS'G'
aS'G'
aS'C'
aS'G'
aS'A'
aS'T'
aS'C'
aS'T'
aS'C'
aS'C'
aS'A'
aS'C'
aS'A'
aS'T'
aS'C'
aS'C'
aS'T'
aS'G'
aS'C'
aS'C'
aS'G'
aS'G'
aS'T'
aS'G'
aS'G'
aS'C'
aS'A'
aS'T'
aS'T'
aS'T'
aS'A'
aS'G'
aS'G'
aS'G'
aS'G'
aS'G'
aS'T'
aS'G'
aS'A'
aS'G'
aS'T'
aS'C'
aS'A'
aS'C'
aS'A'
aS'G'
aS'G'
aS'T'
aS'T'
aS'C'
aS'A'
aS'G'
aS'T'
aS'T'
aS'G'
aS'C'
aS'T'
aS'T'
aS'G'
aS'T'
aS'A'
aS'T'
aS'A'
aS'A'
aS'A'
aS'G'
aS'A'
aS'A'
aS'A'
aS'A'
aS'A'
aS'C'
aS'A'
aS'A'
aS'A'
aS'A'
aS'T'
aS'C'
aS'T'
aS'G'
aS'C'
aS'C'
aS'T'
aS'T'
aS'T'
aS'T'
aS'T'
aS'A'
aS'A'
aS'C'
aS'T'
aS'G'
aS'G'
aS'T'
aS'A'
aS'G'
aS'A'
aS'G'
aS'A'
aS'T'
aS'T'
aS'G'
aS'G'
aS'T'
aS'G'
aS'A'
aS'T'
aS'C'
aS'A'
aS'A'
aS'T'
aS'A'
aS'A'
aS'T'
aS'C'
aS'A'
aS'C'
aS'C'
aS'C'
aS'T'
aS'G'
aS'T'
aS'T'
aS'G'
aS'T'
aS'T'
aS'T'
aS'G'
aS'T'
aS'T'
aS'T'
aS'C'
aS'A'
aS'G'
aS'T'
aS'G'
aS'A'
aS'C'
aS'T'
aS'C'
aS'C'
aS'T'
aS'T'
aS'C'
aS'A'
aS'C'
aS'A'
aS'C'
aS'A'
aS'T'
aS'A'
aS'C'
aS'T'
aS'C'
aS'C'
aS'T'
aS'C'
aS'C'
aS'T'
aS'C'
aS'T'
aS'G'
aS'G'
aS'A'
aS'T'
aS'C'
aS'C'
aS'A'
aS'C'
aS'A'
aS'G'
aS'G'
aS'A'
aS'A'
aS'C'
aS'T'
aS'G'
aS'G'
aS'A'
aS'T'
aS'A'
aS'T'
aS'T'
aS'C'
aS'T'
aS'G'
aS'A'
aS'A'
aS'A'
aS'A'
aS'C'
aS'C'
aS'G'
aS'T'
aS'A'
aS'A'
aS'A'
aS'G'
aS'G'
aS'A'
aS'A'
aS'A'
aS'T'
aS'C'
aS'A'
aS'C'
aS'A'
aS'A'
aS'G'
aS'T'
aS'T'
aS'T'
aS'G'
aS'A'
aS'G'
aS'C'
aS'T'
aS'G'
aS'A'
aS'A'
aS'T'
aS'T'
aS'A'
aS'T'
aS'C'
aS'A'
aS'C'
aS'A'
aS'T'
aS'G'
aS'A'
aS'A'
aS'T'
aS'A'
aS'T'
aS'A'
aS'A'
aS'A'
aS'T'
aS'G'
aS'G'
aS'G'
aS'A'
aS'A'
aS'A'
aS'T'
aS'C'
aS'A'
aS'G'
aS'T'
aS'G'
aS'T'
aS'T'
aS'T'
aS'T'
aS'A'
aS'G'
aS'A'
aS'G'
aS'A'
aS'G'
aS'A'
aS'G'
aS'A'
aS'A'
aS'C'
aS'T'
aS'T'
aS'T'
aS'T'
aS'C'
aS'G'
aS'A'
aS'C'
aS'A'
aS'T'
aS'A'
aS'T'
aS'T'
aS'T'
aS'C'
aS'C'
aS'T'
aS'G'
aS'T'
aS'T'
aS'C'
aS'C'
aS'C'
aS'T'
aS'T'
aS'G'
aS'G'
aS'A'
aS'A'
aS'T'
aS'A'
aS'A'
aS'A'
aS'A'
aS'A'
aS'C'
aS'A'
aS'T'
aS'T'
aS'T'
aS'C'
aS'T'
aS'T'
aS'C'
aS'T'
aS'G'
aS'A'
aS'A'
aS'A'
aS'T'
aS'T'
aS'T'
aS'T'
aS'A'
aS'C'
aS'C'
aS'G'
aS'T'
aS'T'
aS'A'
aS'A'
aS'T'
aS'G'
aS'G'
aS'C'
aS'T'
aS'G'
aS'A'
aS'T'
aS'G'
aS'T'
aS'T'
aS'T'
aS'T'
aS'G'
aS'A'
aS'T'
aS'A'
aS'T'
aS'T'
aS'T'
aS'T'
aS'T'
aS'C'
aS'A'
aS'A'
aS'A'
aS'A'
aS'G'
aS'T'
aS'G'
aS'C'
assI11
(dp118
g71
g72
(g73
g74
I143631
tRp119
sg76
I91
sg77
I391
sg78
g72
(g73
g74
I143722
tRp120
sg80
(lp121
S'C'
aS'A'
aS'G'
aS'A'
aS'G'
aS'A'
aS'A'
aS'G'
aS'A'
aS'T'
aS'G'
aS'A'
aS'T'
aS'A'
aS'A'
aS'T'
aS'G'
aS'A'
aS'A'
aS'A'
aS'A'
aS'A'
aS'G'
aS'A'
aS'A'
aS'A'
aS'G'
aS'C'
aS'A'
aS'A'
aS'A'
aS'T'
aS'C'
aS'C'
aS'A'
aS'A'
aS'T'
aS'T'
aS'T'
aS'T'
aS'C'
aS'C'
aS'C'
aS'A'
aS'C'
aS'T'
aS'T'
aS'A'
aS'C'
aS'T'
aS'G'
aS'T'
aS'T'
aS'C'
aS'A'
aS'T'
aS'A'
aS'T'
aS'A'
aS'A'
aS'T'
aS'A'
aS'C'
aS'A'
aS'G'
aS'A'
aS'G'
aS'T'
aS'C'
aS'C'
aS'C'
aS'T'
aS'G'
aS'A'
aS'G'
aS'A'
aS'G'
aS'T'
aS'C'
aS'T'
aS'A'
aS'G'
aS'A'
aS'G'
aS'T'
aS'A'
aS'A'
aS'T'
aS'G'
aS'T'
aS'C'
aS'T'
aS'C'
aS'A'
aS'T'
aS'A'
aS'C'
aS'A'
aS'A'
aS'A'
aS'A'
aS'A'
aS'A'
aS'G'
aS'A'
aS'A'
aS'A'
aS'C'
aS'T'
aS'C'
aS'C'
aS'T'
aS'A'
aS'C'
aS'G'
aS'T'
aS'G'
aS'G'
aS'T'
aS'G'
aS'T'
aS'G'
aS'T'
aS'G'
aS'T'
aS'C'
aS'T'
aS'G'
aS'A'
aS'A'
aS'G'
aS'T'
aS'C'
aS'T'
aS'T'
aS'T'
aS'C'
aS'A'
aS'T'
aS'C'
aS'T'
aS'G'
aS'C'
aS'C'
aS'T'
aS'T'
aS'A'
aS'C'
aS'A'
aS'G'
aS'G'
aS'G'
aS'T'
aS'T'
aS'T'
aS'T'
aS'T'
aS'G'
aS'C'
aS'T'
aS'G'
aS'A'
aS'T'
aS'T'
aS'C'
aS'A'
aS'G'
aS'G'
aS'C'
aS'T'
aS'T'
aS'G'
aS'G'
aS'C'
aS'C'
aS'T'
aS'G'
aS'A'
aS'A'
aS'A'
aS'A'
aS'C'
aS'A'
aS'G'
aS'G'
aS'A'
aS'C'
aS'G'
aS'G'
aS'A'
aS'C'
aS'C'
aS'T'
aS'C'
aS'C'
aS'G'
aS'T'
aS'G'
aS'C'
aS'C'
aS'T'
aS'T'
aS'T'
aS'G'
aS'A'
aS'G'
aS'A'
aS'A'
aS'C'
aS'C'
aS'T'
aS'A'
aS'G'
aS'A'
aS'A'
aS'A'
aS'T'
aS'C'
aS'A'
aS'T'
aS'A'
aS'C'
aS'G'
aS'C'
aS'G'
aS'G'
aS'C'
aS'A'
aS'G'
aS'G'
aS'A'
aS'C'
aS'C'
aS'A'
aS'A'
aS'G'
aS'C'
aS'A'
aS'A'
aS'C'
aS'A'
aS'G'
aS'T'
aS'A'
aS'A'
aS'G'
aS'T'
aS'T'
aS'G'
aS'A'
aS'C'
aS'C'
aS'A'
aS'C'
aS'A'
aS'G'
aS'C'
aS'C'
aS'A'
aS'A'
aS'A'
aS'G'
aS'C'
aS'C'
aS'T'
aS'G'
aS'G'
aS'T'
aS'A'
aS'G'
aS'A'
aS'T'
aS'T'
aS'A'
aS'C'
aS'A'
aS'T'
aS'T'
aS'T'
aS'G'
aS'C'
aS'C'
aS'T'
aS'T'
aS'T'
aS'T'
aS'T'
aS'A'
aS'G'
aS'T'
aS'T'
aS'G'
aS'G'
aS'A'
aS'A'
aS'A'
aS'T'
aS'T'
aS'A'
aS'G'
aS'G'
aS'C'
aS'T'
aS'T'
aS'A'
aS'A'
aS'C'
aS'A'
aS'G'
aS'G'
aS'A'
aS'G'
aS'A'
aS'G'
aS'T'
aS'T'
aS'G'
aS'C'
aS'T'
aS'A'
aS'A'
aS'G'
aS'A'
aS'T'
aS'A'
aS'G'
aS'G'
aS'G'
aS'C'
aS'A'
aS'C'
aS'A'
aS'G'
aS'A'
aS'G'
aS'C'
aS'T'
aS'C'
aS'C'
aS'T'
aS'G'
aS'C'
aS'A'
aS'T'
aS'C'
aS'T'
aS'C'
aS'T'
aS'C'
aS'G'
aS'C'
aS'C'
aS'G'
aS'G'
aS'C'
aS'A'
aS'T'
aS'T'
aS'C'
aS'C'
aS'C'
aS'A'
aS'A'
aS'A'
aS'T'
aS'G'
aS'C'
aS'T'
aS'A'
aS'T'
aS'C'
aS'T'
aS'C'
aS'A'
aS'C'
aS'A'
aS'T'
aS'G'
aS'A'
aS'G'
aS'C'
aS'A'
aS'G'
aS'G'
aS'C'
aS'A'
aS'C'
aS'A'
aS'G'
aS'G'
aS'G'
assI12
(dp122
g71
g72
(g73
g74
I146107
tRp123
sg76
I200
sg77
I500
sg78
g72
(g73
g74
I146307
tRp124
sg80
(lp125
S'A'
aS'A'
aS'A'
aS'G'
aS'G'
aS'T'
aS'G'
aS'C'
aS'A'
aS'G'
aS'T'
aS'G'
aS'T'
aS'G'
aS'T'
aS'G'
aS'C'
aS'C'
aS'T'
aS'C'
aS'C'
aS'C'
aS'A'
aS'C'
aS'A'
aS'G'
aS'C'
aS'A'
aS'T'
aS'G'
aS'A'
aS'C'
aS'C'
aS'T'
aS'A'
aS'C'
aS'C'
aS'A'
aS'T'
aS'C'
aS'A'
aS'T'
aS'T'
aS'G'
aS'G'
aS'A'
aS'A'
aS'A'
aS'G'
aS'C'
aS'A'
aS'G'
aS'T'
aS'T'
aS'T'
aS'G'
aS'T'
aS'A'
aS'G'
aS'T'
aS'C'
aS'A'
aS'A'
aS'T'
aS'C'
aS'A'
aS'A'
aS'A'
aS'G'
aS'G'
aS'T'
aS'G'
aS'G'
aS'T'
aS'C'
aS'T'
aS'G'
aS'G'
aS'A'
aS'G'
aS'A'
aS'A'
aS'A'
aS'C'
aS'A'
aS'A'
aS'A'
aS'G'
aS'T'
aS'T'
aS'T'
aS'T'
aS'C'
aS'A'
aS'G'
aS'G'
aS'G'
aS'A'
aS'T'
aS'A'
aS'C'
aS'A'
aS'T'
aS'T'
aS'G'
aS'T'
aS'T'
aS'T'
aS'T'
aS'T'
aS'A'
aS'T'
aS'A'
aS'A'
aS'T'
aS'T'
aS'T'
aS'T'
aS'T'
aS'C'
aS'A'
aS'C'
aS'C'
aS'A'
aS'C'
aS'A'
aS'T'
aS'G'
aS'A'
aS'T'
aS'T'
aS'T'
aS'T'
aS'T'
aS'C'
aS'T'
aS'T'
aS'C'
aS'T'
aS'C'
aS'T'
aS'C'
aS'C'
aS'A'
aS'A'
aS'T'
aS'G'
aS'T'
aS'A'
aS'G'
aS'T'
aS'G'
aS'G'
aS'T'
aS'C'
aS'A'
aS'G'
aS'T'
aS'T'
aS'T'
aS'T'
aS'C'
aS'T'
aS'C'
aS'T'
aS'T'
aS'G'
aS'C'
aS'A'
aS'G'
aS'T'
aS'C'
aS'G'
aS'T'
aS'C'
aS'A'
aS'G'
aS'C'
aS'C'
aS'T'
aS'G'
aS'A'
aS'A'
aS'C'
aS'A'
aS'T'
aS'A'
aS'A'
aS'C'
aS'A'
aS'T'
aS'C'
aS'C'
aS'T'
aS'T'
aS'G'
aS'G'
aS'G'
aS'A'
aS'T'
aS'T'
aS'A'
aS'C'
aS'G'
aS'C'
aS'T'
aS'C'
aS'C'
aS'C'
aS'T'
aS'C'
aS'A'
aS'A'
aS'G'
aS'G'
aS'A'
aS'G'
aS'A'
aS'T'
aS'A'
aS'A'
aS'G'
aS'T'
aS'G'
aS'A'
aS'T'
aS'G'
aS'G'
aS'A'
aS'G'
aS'A'
aS'T'
aS'G'
aS'T'
aS'G'
aS'A'
aS'T'
aS'A'
aS'A'
aS'T'
aS'T'
aS'T'
aS'C'
aS'A'
aS'G'
aS'G'
aS'A'
aS'A'
aS'A'
aS'C'
aS'A'
aS'A'
aS'A'
aS'A'
aS'A'
aS'T'
aS'T'
aS'T'
aS'G'
aS'T'
aS'G'
aS'C'
aS'T'
aS'A'
aS'T'
aS'G'
aS'C'
aS'A'
aS'A'
aS'A'
aS'T'
aS'A'
aS'C'
aS'A'
aS'A'
aS'T'
aS'A'
aS'A'
aS'A'
aS'C'
aS'T'
aS'G'
aS'G'
aS'A'
aS'A'
aS'A'
aS'A'
aS'A'
aS'A'
aS'C'
aS'T'
aS'G'
aS'T'
aS'T'
aS'T'
aS'G'
aS'G'
aS'G'
aS'A'
aS'C'
aS'C'
aS'T'
aS'C'
aS'C'
aS'G'
aS'G'
aS'T'
aS'C'
aS'A'
aS'G'
aS'A'
aS'A'
aS'A'
aS'A'
aS'C'
aS'C'
aS'A'
aS'A'
aS'A'
aS'A'
aS'T'
aS'T'
aS'A'
aS'T'
aS'A'
aS'A'
aS'G'
aS'C'
aS'A'
aS'A'
aS'C'
aS'A'
aS'G'
aS'C'
aS'G'
aS'G'
aS'T'
aS'G'
aS'A'
aS'A'
aS'A'
aS'A'
aS'C'
aS'A'
aS'G'
aS'C'
aS'T'
aS'G'
aS'C'
aS'A'
aS'G'
aS'T'
aS'A'
aS'A'
aS'G'
aS'T'
aS'C'
aS'A'
aS'C'
aS'C'
aS'G'
aS'C'
aS'T'
aS'T'
aS'T'
aS'C'
aS'T'
aS'G'
aS'T'
aS'T'
aS'T'
aS'A'
aS'G'
aS'T'
aS'T'
aS'T'
aS'A'
aS'T'
aS'G'
aS'G'
aS'A'
aS'G'
aS'T'
aS'T'
aS'G'
aS'G'
aS'T'
aS'T'
aS'C'
aS'T'
aS'A'
aS'A'
aS'T'
aS'G'
aS'G'
aS'G'
aS'T'
aS'C'
aS'C'
aS'T'
aS'T'
aS'T'
aS'A'
aS'T'
aS'T'
aS'T'
aS'G'
aS'T'
aS'A'
aS'T'
aS'T'
aS'T'
aS'A'
aS'G'
aS'A'
aS'A'
aS'T'
aS'A'
aS'T'
aS'T'
aS'G'
aS'A'
aS'A'
aS'G'
aS'G'
aS'G'
aS'C'
aS'T'
aS'A'
aS'T'
aS'T'
aS'C'
aS'C'
aS'C'
aS'A'
aS'T'
aS'T'
aS'T'
aS'A'
aS'A'
aS'A'
aS'T'
aS'T'
aS'A'
aS'C'
aS'T'
aS'T'
aS'T'
aS'T'
aS'T'
aS'T'
aS'C'
aS'A'
aS'G'
aS'T'
aS'T'
aS'C'
aS'C'
aS'T'
aS'T'
aS'A'
aS'A'
aS'G'
aS'A'
aS'A'
aS'G'
aS'C'
aS'A'
aS'A'
aS'A'
aS'T'
aS'T'
aS'A'
aS'A'
aS'A'
aS'A'
aS'T'
aS'C'
aS'T'
aS'T'
aS'A'
aS'A'
aS'G'
aS'A'
aS'T'
aS'T'
aS'C'
aS'C'
aS'T'
aS'A'
aS'A'
aS'C'
aS'T'
aS'G'
aS'T'
aS'G'
aS'A'
aS'A'
aS'A'
aS'T'
assI13
(dp126
g71
g72
(g73
g74
I147467
tRp127
sg76
I133
sg77
I433
sg78
g72
(g73
g74
I147600
tRp128
sg80
(lp129
S'G'
aS'T'
aS'C'
aS'T'
aS'G'
aS'T'
aS'G'
aS'T'
aS'C'
aS'C'
aS'T'
aS'C'
aS'C'
aS'T'
aS'C'
aS'C'
aS'T'
aS'T'
aS'C'
aS'A'
aS'G'
aS'G'
aS'G'
aS'G'
aS'T'
aS'A'
aS'G'
aS'C'
aS'C'
aS'A'
aS'G'
aS'C'
aS'A'
aS'T'
aS'G'
aS'T'
aS'C'
aS'T'
aS'G'
aS'T'
aS'G'
aS'T'
aS'C'
aS'A'
aS'C'
aS'C'
aS'C'
aS'A'
aS'A'
aS'G'
aS'G'
aS'T'
aS'C'
aS'A'
aS'T'
aS'G'
aS'G'
aS'A'
aS'G'
aS'C'
aS'A'
aS'C'
aS'A'
aS'G'
aS'G'
aS'G'
aS'C'
aS'C'
aS'C'
aS'C'
aS'T'
aS'C'
aS'C'
aS'C'
aS'G'
aS'G'
aS'G'
aS'A'
aS'A'
aS'G'
aS'G'
aS'T'
aS'G'
aS'C'
aS'C'
aS'G'
aS'T'
aS'C'
aS'T'
aS'C'
aS'C'
aS'T'
aS'C'
aS'C'
aS'G'
aS'G'
aS'C'
aS'C'
aS'C'
aS'C'
aS'T'
aS'C'
aS'G'
aS'G'
aS'G'
aS'T'
aS'C'
aS'C'
aS'C'
aS'T'
aS'G'
aS'C'
aS'T'
aS'C'
aS'T'
aS'G'
aS'T'
aS'C'
aS'A'
aS'C'
aS'T'
aS'G'
aS'A'
aS'C'
aS'T'
aS'G'
aS'C'
aS'T'
aS'G'
aS'T'
aS'G'
aS'A'
aS'C'
aS'C'
aS'C'
aS'A'
aS'C'
aS'T'
aS'C'
aS'T'
aS'G'
aS'T'
aS'C'
aS'T'
aS'C'
aS'C'
aS'G'
aS'C'
aS'A'
aS'G'
aS'A'
aS'C'
aS'G'
aS'C'
aS'C'
aS'A'
aS'C'
aS'A'
aS'G'
aS'G'
aS'C'
aS'C'
aS'A'
aS'G'
aS'G'
aS'T'
aS'C'
aS'T'
aS'G'
aS'C'
aS'C'
aS'A'
aS'T'
aS'G'
aS'C'
aS'C'
aS'T'
aS'T'
aS'G'
aS'T'
aS'G'
aS'C'
aS'T'
aS'C'
aS'C'
aS'C'
aS'C'
aS'C'
aS'G'
aS'A'
aS'G'
aS'G'
aS'G'
aS'C'
aS'T'
aS'G'
aS'C'
aS'T'
aS'G'
aS'G'
aS'G'
aS'G'
aS'C'
aS'C'
aS'C'
aS'G'
aS'G'
aS'A'
aS'G'
aS'C'
aS'C'
aS'C'
aS'A'
aS'G'
aS'G'
aS'G'
aS'A'
aS'C'
aS'T'
aS'G'
aS'C'
aS'G'
aS'T'
aS'C'
aS'T'
aS'C'
aS'T'
aS'T'
aS'G'
aS'C'
aS'C'
aS'G'
aS'G'
aS'A'
aS'A'
aS'T'
aS'G'
aS'T'
aS'C'
aS'A'
aS'G'
aS'C'
aS'C'
aS'G'
aS'A'
aS'G'
aS'G'
aS'C'
aS'A'
aS'G'
aS'G'
aS'G'
aS'A'
aS'A'
aS'T'
aS'G'
aS'C'
aS'G'
aS'T'
aS'G'
aS'G'
aS'A'
aS'C'
aS'A'
aS'A'
aS'G'
aS'T'
aS'G'
aS'C'
aS'A'
aS'A'
aS'C'
aS'C'
aS'T'
aS'T'
aS'C'
aS'T'
aS'G'
aS'G'
aS'A'
aS'G'
aS'G'
aS'G'
aS'G'
aS'T'
aS'A'
aS'G'
aS'G'
aS'A'
aS'G'
aS'G'
aS'T'
aS'T'
aS'A'
aS'T'
aS'T'
aS'T'
aS'C'
aS'T'
aS'T'
aS'T'
aS'A'
aS'A'
aS'T'
aS'C'
aS'C'
aS'C'
aS'C'
aS'T'
aS'T'
aS'G'
aS'C'
aS'G'
aS'T'
aS'T'
aS'G'
aS'A'
aS'T'
aS'C'
aS'A'
aS'A'
aS'A'
aS'A'
aS'A'
aS'T'
aS'A'
aS'A'
aS'G'
aS'G'
aS'C'
aS'T'
aS'C'
aS'C'
aS'A'
aS'G'
aS'G'
aS'T'
aS'T'
aS'G'
aS'T'
aS'T'
aS'G'
aS'T'
aS'T'
aS'A'
aS'T'
aS'A'
aS'G'
aS'C'
aS'T'
aS'T'
aS'T'
aS'A'
aS'C'
aS'A'
aS'G'
aS'G'
aS'C'
aS'A'
aS'T'
aS'T'
aS'C'
aS'T'
aS'G'
aS'T'
aS'T'
aS'T'
aS'G'
aS'A'
aS'T'
aS'T'
aS'T'
aS'T'
aS'C'
aS'T'
aS'C'
aS'T'
aS'T'
aS'C'
aS'C'
aS'T'
aS'T'
aS'T'
aS'T'
aS'A'
aS'T'
aS'T'
aS'C'
aS'T'
aS'T'
aS'T'
aS'G'
aS'C'
aS'C'
aS'C'
aS'T'
aS'T'
aS'G'
aS'G'
aS'C'
aS'T'
aS'T'
aS'T'
aS'T'
aS'G'
aS'G'
aS'A'
aS'G'
aS'G'
aS'T'
aS'T'
aS'T'
aS'T'
aS'G'
aS'G'
aS'G'
aS'T'
aS'T'
aS'T'
aS'T'
aS'C'
aS'T'
aS'G'
aS'T'
aS'G'
aS'G'
aS'G'
aS'G'
aS'A'
aS'G'
aS'A'
aS'C'
aS'G'
assI14
(dp130
g71
g72
(g73
g74
I149701
tRp131
sg76
I91
sg77
I391
sg78
g72
(g73
g74
I149792
tRp132
sg80
(lp133
S'A'
aS'C'
aS'A'
aS'A'
aS'A'
aS'A'
aS'T'
aS'C'
aS'A'
aS'G'
aS'C'
aS'T'
aS'G'
aS'A'
aS'T'
aS'T'
aS'A'
aS'T'
aS'A'
aS'T'
aS'T'
aS'A'
aS'C'
aS'T'
aS'A'
aS'T'
aS'A'
aS'T'
aS'A'
aS'G'
aS'T'
aS'C'
aS'C'
aS'T'
aS'G'
aS'G'
aS'A'
aS'G'
aS'T'
aS'C'
aS'C'
aS'C'
aS'A'
aS'A'
aS'C'
aS'T'
aS'C'
aS'C'
aS'T'
aS'T'
aS'G'
aS'A'
aS'C'
aS'C'
aS'A'
aS'T'
aS'T'
aS'A'
aS'C'
aS'C'
aS'T'
aS'C'
aS'A'
aS'A'
aS'G'
aS'T'
aS'T'
aS'A'
aS'T'
aS'T'
aS'T'
aS'G'
aS'G'
aS'A'
aS'A'
aS'T'
aS'T'
aS'T'
aS'T'
aS'G'
aS'A'
aS'A'
aS'G'
aS'A'
aS'G'
aS'G'
aS'T'
aS'G'
aS'A'
aS'T'
aS'T'
aS'T'
aS'G'
aS'T'
aS'G'
aS'T'
aS'T'
aS'C'
aS'C'
aS'T'
aS'G'
aS'C'
aS'A'
aS'A'
aS'T'
aS'A'
aS'A'
aS'T'
aS'G'
aS'T'
aS'C'
aS'T'
aS'C'
aS'A'
aS'G'
aS'G'
aS'G'
aS'G'
aS'T'
aS'G'
aS'G'
aS'G'
aS'C'
aS'T'
aS'G'
aS'A'
aS'C'
aS'G'
aS'G'
aS'G'
aS'T'
aS'T'
aS'T'
aS'C'
aS'C'
aS'T'
aS'C'
aS'T'
aS'T'
aS'C'
aS'C'
aS'T'
aS'C'
aS'C'
aS'T'
aS'C'
aS'T'
aS'C'
aS'A'
aS'G'
aS'T'
aS'G'
aS'A'
aS'G'
aS'C'
aS'C'
aS'A'
aS'A'
aS'G'
aS'G'
aS'G'
aS'A'
aS'G'
aS'T'
aS'T'
aS'T'
aS'G'
aS'T'
aS'G'
aS'G'
aS'A'
aS'G'
aS'A'
aS'A'
aS'C'
aS'T'
aS'C'
aS'T'
aS'G'
aS'A'
aS'G'
aS'T'
aS'G'
aS'C'
aS'A'
aS'T'
aS'A'
aS'C'
aS'A'
aS'G'
aS'T'
aS'G'
aS'C'
aS'C'
aS'A'
aS'C'
aS'C'
aS'C'
aS'A'
aS'G'
aS'A'
aS'G'
aS'T'
aS'G'
aS'C'
aS'C'
aS'T'
aS'G'
aS'T'
aS'C'
aS'T'
aS'C'
aS'A'
aS'G'
aS'G'
aS'C'
aS'C'
aS'A'
aS'T'
aS'G'
aS'A'
aS'A'
aS'C'
aS'A'
aS'T'
aS'C'
aS'A'
aS'C'
aS'C'
aS'T'
aS'G'
aS'C'
aS'A'
aS'C'
aS'A'
aS'G'
aS'G'
aS'A'
aS'C'
aS'G'
aS'G'
aS'G'
aS'T'
aS'A'
aS'A'
aS'G'
aS'A'
aS'G'
aS'C'
aS'C'
aS'C'
aS'C'
aS'T'
aS'T'
aS'G'
aS'C'
aS'T'
aS'G'
aS'C'
aS'T'
aS'A'
aS'T'
aS'C'
aS'C'
aS'A'
aS'C'
aS'G'
aS'T'
aS'C'
aS'C'
aS'A'
aS'T'
aS'T'
aS'T'
aS'C'
aS'A'
aS'T'
aS'G'
aS'G'
aS'G'
aS'A'
aS'A'
aS'G'
aS'G'
aS'G'
aS'C'
aS'C'
aS'T'
aS'T'
aS'C'
aS'A'
aS'C'
aS'A'
aS'G'
aS'A'
aS'A'
aS'G'
aS'C'
aS'C'
aS'G'
aS'A'
aS'A'
aS'C'
aS'A'
aS'G'
aS'T'
aS'G'
aS'A'
aS'T'
aS'G'
aS'A'
aS'T'
aS'G'
aS'G'
aS'C'
aS'C'
aS'C'
aS'A'
aS'G'
aS'G'
aS'G'
aS'C'
aS'A'
aS'T'
aS'C'
aS'C'
aS'T'
aS'G'
aS'T'
aS'G'
aS'T'
aS'G'
aS'G'
aS'G'
aS'C'
aS'A'
aS'G'
aS'G'
aS'A'
aS'C'
aS'G'
aS'G'
aS'C'
aS'C'
aS'A'
aS'T'
aS'C'
aS'A'
aS'G'
aS'A'
aS'G'
aS'C'
aS'C'
aS'A'
aS'C'
aS'T'
aS'T'
aS'C'
aS'C'
aS'C'
aS'A'
aS'G'
aS'A'
aS'G'
aS'G'
aS'A'
aS'G'
aS'A'
aS'C'
aS'G'
aS'G'
aS'C'
aS'A'
aS'G'
aS'G'
aS'C'
aS'G'
aS'C'
aS'T'
aS'G'
aS'A'
aS'C'
aS'A'
aS'G'
aS'C'
aS'G'
aS'C'
aS'T'
aS'G'
aS'T'
aS'C'
assI15
(dp134
g71
g72
(g73
g74
I151248
tRp135
sg76
I158
sg77
I458
sg78
g72
(g73
g74
I151406
tRp136
sg80
(lp137
S'A'
aS'C'
aS'A'
aS'G'
aS'A'
aS'A'
aS'T'
aS'A'
aS'A'
aS'C'
aS'T'
aS'G'
aS'G'
aS'T'
aS'T'
aS'T'
aS'T'
aS'C'
aS'T'
aS'C'
aS'C'
aS'T'
aS'T'
aS'T'
aS'A'
aS'A'
aS'G'
aS'A'
aS'A'
aS'T'
aS'T'
aS'T'
aS'T'
aS'T'
aS'C'
aS'T'
aS'A'
aS'T'
aS'C'
aS'A'
aS'T'
aS'T'
aS'T'
aS'G'
aS'G'
aS'C'
aS'T'
aS'T'
aS'T'
aS'C'
aS'C'
aS'C'
aS'C'
aS'A'
aS'C'
aS'T'
aS'C'
aS'A'
aS'C'
aS'A'
aS'C'
aS'A'
aS'C'
aS'A'
aS'C'
aS'T'
aS'A'
aS'A'
aS'A'
aS'T'
aS'A'
aS'T'
aS'T'
aS'T'
aS'T'
aS'A'
aS'A'
aS'G'
aS'T'
aS'A'
aS'A'
aS'A'
aS'A'
aS'A'
aS'G'
aS'T'
aS'T'
aS'A'
aS'C'
aS'T'
aS'T'
aS'C'
aS'C'
aS'A'
aS'T'
aS'T'
aS'T'
aS'T'
aS'G'
aS'A'
aS'A'
aS'A'
aS'G'
aS'A'
aS'G'
aS'A'
aS'A'
aS'A'
aS'A'
aS'G'
aS'A'
aS'A'
aS'A'
aS'G'
aS'A'
aS'G'
aS'A'
aS'C'
aS'A'
aS'T'
aS'G'
aS'C'
aS'A'
aS'T'
aS'G'
aS'A'
aS'A'
aS'C'
aS'A'
aS'T'
aS'T'
aS'T'
aS'T'
aS'T'
aS'C'
aS'T'
aS'C'
aS'C'
aS'A'
aS'C'
aS'C'
aS'T'
aS'T'
aS'G'
aS'G'
aS'T'
aS'G'
aS'C'
aS'A'
aS'G'
aS'G'
aS'G'
aS'A'
aS'C'
aS'C'
aS'A'
aS'G'
aS'A'
aS'T'
aS'A'
aS'A'
aS'C'
aS'T'
aS'G'
aS'T'
aS'A'
aS'T'
aS'C'
aS'C'
aS'A'
aS'G'
aS'T'
aS'G'
aS'T'
aS'G'
aS'C'
aS'C'
aS'C'
aS'A'
aS'C'
aS'T'
aS'A'
aS'C'
aS'A'
aS'T'
aS'T'
aS'G'
aS'A'
aS'C'
aS'G'
aS'G'
aS'C'
aS'C'
aS'C'
aS'C'
aS'C'
aS'A'
aS'C'
aS'T'
aS'G'
aS'C'
aS'G'
aS'T'
aS'C'
aS'A'
aS'A'
aS'G'
aS'A'
aS'C'
aS'C'
aS'T'
aS'G'
aS'C'
aS'C'
aS'C'
aS'G'
aS'G'
aS'C'
aS'A'
aS'G'
aS'G'
aS'A'
aS'G'
aS'T'
aS'C'
aS'A'
aS'T'
aS'G'
aS'G'
aS'G'
aS'A'
aS'G'
aS'A'
aS'A'
aS'A'
aS'A'
aS'C'
aS'A'
aS'A'
aS'C'
aS'A'
aS'C'
aS'C'
aS'C'
aS'T'
aS'G'
aS'G'
aS'T'
aS'C'
aS'T'
aS'G'
aS'G'
aS'A'
aS'A'
aS'G'
aS'T'
aS'A'
aS'C'
aS'G'
aS'C'
aS'A'
aS'G'
aS'A'
aS'C'
aS'G'
aS'C'
aS'C'
aS'G'
aS'G'
aS'C'
aS'C'
aS'A'
aS'T'
aS'G'
aS'T'
aS'G'
aS'T'
aS'G'
aS'C'
aS'C'
aS'A'
aS'C'
aS'C'
aS'T'
aS'G'
aS'T'
aS'G'
aS'C'
aS'C'
aS'A'
aS'T'
aS'C'
aS'C'
aS'A'
aS'A'
aS'A'
aS'C'
aS'T'
aS'G'
aS'C'
aS'A'
aS'C'
aS'C'
aS'T'
aS'A'
aS'C'
aS'G'
aS'G'
aS'G'
aS'T'
aS'G'
aS'A'
aS'G'
aS'T'
aS'G'
aS'G'
aS'A'
aS'A'
aS'A'
aS'G'
aS'T'
aS'G'
aS'A'
aS'A'
aS'G'
aS'G'
aS'A'
aS'G'
aS'A'
aS'A'
aS'C'
aS'A'
aS'G'
aS'A'
aS'A'
aS'C'
aS'A'
aS'T'
aS'T'
aS'T'
aS'C'
aS'C'
aS'T'
aS'C'
aS'T'
aS'C'
aS'T'
aS'T'
aS'G'
aS'C'
aS'A'
aS'A'
aS'A'
aS'T'
aS'T'
aS'C'
aS'A'
aS'G'
aS'A'
aS'G'
aS'A'
aS'T'
aS'C'
aS'A'
aS'A'
aS'A'
aS'A'
aS'A'
aS'T'
aS'G'
aS'T'
aS'C'
aS'T'
aS'C'
aS'C'
aS'C'
aS'A'
aS'A'
aS'G'
aS'T'
aS'T'
aS'T'
aS'T'
aS'C'
aS'C'
aS'G'
aS'G'
aS'C'
aS'A'
aS'A'
aS'C'
aS'A'
aS'A'
aS'A'
aS'T'
aS'T'
aS'G'
aS'C'
aS'C'
aS'G'
aS'A'
aS'G'
aS'G'
aS'T'
aS'T'
aS'T'
aS'G'
aS'T'
aS'A'
aS'T'
aS'T'
aS'T'
aS'G'
aS'A'
aS'G'
aS'T'
aS'C'
aS'A'
aS'G'
aS'T'
aS'T'
aS'A'
aS'C'
aS'T'
aS'T'
aS'A'
aS'A'
aS'G'
aS'G'
aS'T'
aS'G'
aS'T'
aS'T'
aS'T'
aS'T'
aS'G'
aS'G'
aS'T'
aS'C'
aS'C'
aS'C'
aS'C'
aS'A'
aS'C'
aS'A'
aS'G'
aS'C'
aS'C'
aS'A'
aS'T'
aS'G'
aS'C'
aS'C'
aS'A'
aS'G'
aS'T'
aS'A'
aS'G'
assI16
(dp138
g71
g72
(g73
g74
I157143
tRp139
sg76
I39
sg77
I339
sg78
g72
(g73
g74
I157182
tRp140
sg80
(lp141
S'A'
aS'C'
aS'C'
aS'A'
aS'C'
aS'C'
aS'A'
aS'A'
aS'T'
aS'C'
aS'C'
aS'A'
aS'A'
aS'C'
aS'A'
aS'T'
aS'C'
aS'C'
aS'A'
aS'G'
aS'A'
aS'C'
aS'A'
aS'C'
aS'A'
aS'T'
aS'A'
aS'G'
aS'T'
aS'G'
aS'A'
aS'T'
aS'T'
aS'T'
aS'T'
aS'A'
aS'A'
aS'T'
aS'T'
aS'A'
aS'T'
aS'T'
aS'T'
aS'A'
aS'A'
aS'G'
aS'A'
aS'G'
aS'T'
aS'A'
aS'G'
aS'T'
aS'T'
aS'T'
aS'A'
aS'G'
aS'C'
aS'A'
aS'T'
aS'A'
aS'T'
aS'A'
aS'T'
aS'T'
aS'G'
aS'C'
aS'T'
aS'T'
aS'T'
aS'A'
aS'T'
aS'G'
aS'A'
aS'T'
aS'T'
aS'T'
aS'A'
aS'A'
aS'T'
aS'T'
aS'A'
aS'A'
aS'A'
aS'A'
aS'A'
aS'T'
aS'C'
aS'T'
aS'C'
aS'C'
aS'A'
aS'A'
aS'A'
aS'A'
aS'T'
aS'A'
aS'T'
aS'A'
aS'T'
aS'G'
aS'C'
aS'C'
aS'A'
aS'A'
aS'A'
aS'G'
aS'A'
aS'A'
aS'G'
aS'T'
aS'A'
aS'G'
aS'A'
aS'A'
aS'T'
aS'G'
aS'A'
aS'G'
aS'A'
aS'A'
aS'A'
aS'A'
aS'A'
aS'T'
aS'G'
aS'T'
aS'A'
aS'T'
aS'A'
aS'T'
aS'T'
aS'T'
aS'C'
aS'T'
aS'C'
aS'T'
aS'T'
aS'T'
aS'C'
aS'A'
aS'C'
aS'T'
aS'T'
aS'C'
aS'C'
aS'T'
aS'A'
aS'C'
aS'A'
aS'G'
aS'A'
aS'T'
aS'G'
aS'C'
aS'A'
aS'C'
aS'T'
aS'G'
aS'G'
aS'G'
aS'C'
aS'C'
aS'A'
aS'G'
aS'G'
aS'T'
aS'C'
aS'T'
aS'C'
aS'G'
aS'A'
aS'A'
aS'G'
aS'G'
aS'C'
aS'T'
aS'G'
aS'T'
aS'C'
aS'C'
aS'A'
aS'A'
aS'C'
aS'G'
aS'A'
aS'A'
aS'T'
aS'G'
aS'G'
aS'G'
aS'T'
aS'A'
aS'A'
aS'G'
aS'T'
aS'G'
aS'T'
aS'T'
aS'C'
aS'A'
aS'C'
aS'A'
aS'G'
aS'C'
aS'T'
aS'C'
aS'T'
aS'G'
aS'T'
aS'G'
aS'T'
aS'C'
aS'A'
aS'C'
aS'A'
aS'T'
aS'G'
aS'G'
aS'A'
aS'C'
aS'C'
aS'T'
aS'C'
aS'G'
aS'T'
aS'C'
aS'A'
aS'A'
aS'G'
aS'A'
aS'A'
aS'T'
aS'G'
aS'A'
aS'C'
aS'C'
aS'A'
aS'C'
aS'A'
aS'C'
aS'T'
aS'G'
aS'C'
aS'T'
aS'G'
aS'T'
aS'G'
aS'G'
aS'G'
aS'T'
aS'G'
aS'A'
aS'A'
aS'G'
aS'A'
aS'T'
aS'G'
aS'C'
aS'T'
aS'T'
aS'T'
aS'C'
aS'C'
aS'T'
aS'G'
aS'C'
aS'A'
aS'T'
aS'T'
aS'T'
aS'C'
aS'T'
aS'G'
aS'A'
aS'C'
aS'T'
aS'G'
aS'T'
aS'C'
aS'C'
aS'T'
aS'C'
aS'T'
aS'G'
aS'T'
aS'C'
aS'C'
aS'T'
aS'G'
aS'A'
aS'T'
aS'C'
aS'A'
aS'A'
aS'G'
aS'T'
aS'T'
aS'T'
aS'C'
aS'T'
aS'A'
aS'T'
aS'G'
aS'G'
aS'C'
aS'T'
aS'C'
aS'T'
aS'G'
aS'G'
aS'G'
aS'C'
aS'C'
aS'A'
aS'G'
aS'C'
aS'C'
aS'T'
aS'A'
aS'C'
aS'C'
aS'C'
aS'T'
aS'C'
aS'A'
aS'G'
aS'C'
aS'C'
aS'A'
aS'G'
aS'G'
aS'G'
aS'T'
aS'T'
aS'T'
aS'C'
aS'T'
aS'G'
aS'C'
assI17
(dp142
g71
g72
(g73
g74
I158951
tRp143
sg76
I142
sg77
I442
sg78
g72
(g73
g74
I159093
tRp144
sg80
(lp145
S'T'
aS'T'
aS'T'
aS'C'
aS'T'
aS'C'
aS'C'
aS'T'
aS'T'
aS'T'
aS'T'
aS'A'
aS'G'
aS'A'
aS'A'
aS'G'
aS'C'
aS'T'
aS'A'
aS'C'
aS'A'
aS'T'
aS'A'
aS'G'
aS'T'
aS'G'
aS'T'
aS'C'
aS'T'
aS'C'
aS'A'
aS'C'
aS'T'
aS'T'
aS'T'
aS'C'
aS'C'
aS'A'
aS'A'
aS'G'
aS'A'
aS'T'
aS'C'
aS'A'
aS'T'
aS'T'
aS'C'
aS'T'
aS'A'
aS'C'
aS'A'
aS'A'
aS'G'
aS'A'
aS'T'
aS'G'
aS'T'
aS'C'
aS'A'
aS'G'
aS'T'
aS'G'
aS'C'
aS'A'
aS'C'
aS'T'
aS'G'
aS'A'
aS'A'
aS'A'
aS'C'
aS'A'
aS'T'
aS'G'
aS'C'
aS'A'
aS'G'
aS'G'
aS'G'
aS'G'
aS'C'
aS'G'
aS'T'
aS'G'
aS'T'
aS'T'
aS'G'
aS'A'
aS'G'
aS'T'
aS'G'
aS'C'
aS'C'
aS'A'
aS'A'
aS'G'
aS'G'
aS'C'
aS'C'
aS'A'
aS'T'
aS'G'
aS'G'
aS'A'
aS'A'
aS'T'
aS'C'
aS'T'
aS'G'
aS'T'
aS'C'
aS'A'
aS'G'
aS'C'
aS'A'
aS'A'
aS'C'
aS'C'
aS'T'
aS'C'
aS'A'
aS'C'
aS'C'
aS'C'
aS'T'
aS'T'
aS'C'
aS'C'
aS'T'
aS'T'
aS'G'
aS'T'
aS'T'
aS'C'
aS'C'
aS'T'
aS'C'
aS'C'
aS'A'
aS'C'
aS'C'
aS'T'
aS'C'
aS'A'
aS'T'
aS'T'
aS'C'
aS'C'
aS'A'
aS'G'
aS'G'
aS'C'
aS'C'
aS'T'
aS'A'
aS'A'
aS'G'
aS'A'
aS'T'
aS'C'
aS'C'
aS'C'
aS'G'
aS'T'
aS'C'
aS'C'
aS'A'
aS'T'
aS'C'
aS'G'
aS'C'
aS'C'
aS'A'
aS'C'
aS'T'
aS'G'
aS'G'
aS'G'
aS'A'
aS'T'
aS'G'
aS'G'
aS'T'
aS'G'
aS'G'
aS'G'
aS'G'
aS'G'
aS'C'
aS'C'
aS'C'
aS'T'
aS'C'
aS'C'
aS'T'
aS'C'
aS'T'
aS'T'
aS'G'
aS'C'
aS'T'
aS'G'
aS'C'
aS'T'
aS'G'
aS'G'
aS'T'
aS'G'
aS'G'
aS'T'
aS'G'
aS'G'
aS'C'
aS'C'
aS'C'
aS'T'
aS'G'
aS'G'
aS'G'
aS'G'
aS'A'
aS'T'
aS'C'
aS'G'
aS'G'
aS'C'
aS'C'
aS'T'
aS'C'
aS'T'
aS'T'
aS'C'
aS'A'
aS'T'
aS'G'
aS'C'
aS'G'
aS'A'
aS'A'
aS'G'
aS'G'
aS'C'
aS'G'
aS'C'
aS'C'
aS'A'
aS'C'
aS'A'
aS'T'
aS'C'
aS'G'
aS'T'
aS'T'
aS'C'
aS'G'
aS'G'
aS'A'
aS'A'
aS'T'
aS'C'
aS'G'
aS'C'
aS'A'
aS'C'
aS'G'
aS'C'
aS'T'
aS'G'
aS'C'
aS'G'
aS'G'
aS'A'
aS'G'
aS'G'
aS'C'
aS'T'
aS'G'
aS'C'
aS'T'
aS'G'
aS'C'
aS'A'
aS'G'
aS'G'
aS'A'
aS'G'
aS'A'
aS'G'
aS'G'
aS'G'
aS'A'
aS'G'
aS'G'
aS'T'
aS'G'
aS'A'
aS'G'
aS'T'
aS'G'
aS'C'
aS'C'
aS'A'
aS'G'
aS'T'
aS'C'
aS'C'
aS'T'
aS'G'
aS'G'
aS'G'
aS'T'
aS'G'
aS'G'
aS'G'
aS'C'
aS'T'
aS'C'
aS'A'
aS'G'
aS'G'
aS'A'
aS'G'
aS'C'
aS'C'
aS'C'
aS'T'
aS'C'
aS'G'
aS'C'
aS'A'
aS'C'
aS'C'
aS'C'
aS'C'
aS'G'
aS'A'
aS'C'
aS'A'
aS'G'
aS'G'
aS'A'
aS'A'
aS'C'
aS'A'
aS'A'
aS'G'
aS'G'
aS'G'
aS'C'
aS'C'
aS'A'
aS'G'
aS'C'
aS'C'
aS'C'
aS'C'
aS'G'
aS'A'
aS'G'
aS'A'
aS'A'
aS'C'
aS'G'
aS'G'
aS'G'
aS'C'
aS'C'
aS'A'
aS'T'
aS'T'
aS'A'
aS'G'
aS'C'
aS'A'
aS'G'
aS'T'
aS'T'
aS'G'
aS'T'
aS'G'
aS'T'
aS'A'
aS'T'
aS'G'
aS'T'
aS'T'
aS'A'
aS'G'
aS'A'
aS'T'
aS'A'
aS'C'
aS'A'
aS'T'
aS'A'
aS'A'
aS'T'
aS'T'
aS'G'
aS'T'
aS'A'
aS'T'
aS'T'
aS'A'
aS'T'
aS'G'
aS'A'
aS'T'
aS'G'
aS'C'
aS'A'
aS'G'
aS'A'
aS'A'
aS'A'
aS'G'
aS'A'
aS'A'
aS'T'
aS'C'
aS'T'
aS'C'
aS'T'
aS'G'
aS'A'
aS'A'
aS'T'
aS'G'
aS'T'
aS'G'
aS'C'
aS'A'
aS'G'
aS'T'
aS'T'
aS'A'
aS'T'
aS'A'
aS'C'
aS'C'
aS'C'
aS'A'
assI18
(dp146
g71
g72
(g73
g74
I159889
tRp147
sg76
I123
sg77
I423
sg78
g72
(g73
g74
I160012
tRp148
sg80
(lp149
S'T'
aS'G'
aS'T'
aS'C'
aS'C'
aS'T'
aS'T'
aS'C'
aS'C'
aS'A'
aS'A'
aS'A'
aS'T'
aS'G'
aS'A'
aS'G'
aS'C'
aS'T'
aS'G'
aS'G'
aS'C'
aS'A'
aS'A'
aS'G'
aS'T'
aS'G'
aS'C'
aS'C'
aS'G'
aS'T'
aS'G'
aS'T'
aS'C'
aS'C'
aS'T'
aS'G'
aS'G'
aS'C'
aS'A'
aS'C'
aS'C'
aS'C'
aS'A'
aS'A'
aS'G'
aS'C'
aS'C'
aS'C'
aS'A'
aS'T'
aS'G'
aS'C'
aS'C'
aS'G'
aS'T'
aS'G'
aS'G'
aS'C'
aS'T'
aS'G'
aS'C'
aS'T'
aS'G'
aS'G'
aS'T'
aS'C'
aS'C'
aS'C'
aS'C'
aS'C'
aS'T'
aS'G'
aS'C'
aS'T'
aS'G'
aS'G'
aS'G'
aS'C'
aS'C'
aS'A'
aS'T'
aS'G'
aS'T'
aS'C'
aS'T'
aS'G'
aS'G'
aS'C'
aS'A'
aS'C'
aS'T'
aS'G'
aS'C'
aS'T'
aS'T'
aS'T'
aS'C'
aS'C'
aS'A'
aS'G'
aS'C'
aS'A'
aS'T'
aS'G'
aS'G'
aS'T'
aS'G'
aS'A'
aS'G'
aS'G'
aS'G'
aS'C'
aS'T'
aS'G'
aS'A'
aS'G'
aS'G'
aS'T'
aS'G'
aS'A'
aS'C'
aS'C'
aS'C'
aS'T'
aS'T'
aS'G'
aS'T'
aS'C'
aS'T'
aS'C'
aS'T'
aS'G'
aS'T'
aS'G'
aS'T'
aS'T'
aS'C'
aS'T'
aS'T'
aS'G'
aS'T'
aS'C'
aS'C'
aS'C'
aS'C'
aS'C'
aS'C'
aS'C'
aS'A'
aS'G'
aS'C'
aS'T'
aS'T'
aS'G'
aS'T'
aS'G'
aS'G'
aS'A'
aS'G'
aS'C'
aS'C'
aS'T'
aS'C'
aS'T'
aS'A'
aS'A'
aS'C'
aS'A'
aS'C'
aS'C'
aS'C'
aS'A'
aS'G'
aS'T'
aS'G'
aS'G'
aS'A'
aS'G'
aS'A'
aS'A'
aS'G'
aS'C'
aS'T'
aS'C'
aS'C'
aS'C'
aS'A'
aS'A'
aS'C'
aS'C'
aS'A'
aS'A'
aS'G'
aS'C'
aS'T'
aS'C'
aS'T'
aS'C'
aS'T'
aS'T'
aS'G'
aS'A'
aS'G'
aS'G'
aS'A'
aS'T'
aS'C'
aS'T'
aS'T'
aS'G'
aS'A'
aS'A'
aS'G'
aS'G'
aS'A'
aS'A'
aS'A'
aS'C'
aS'T'
aS'G'
aS'A'
aS'A'
aS'T'
aS'T'
aS'C'
aS'A'
aS'A'
aS'A'
aS'A'
aS'A'
aS'G'
aS'A'
aS'T'
aS'C'
aS'A'
aS'A'
aS'A'
aS'G'
aS'T'
aS'G'
aS'C'
aS'T'
aS'G'
aS'G'
aS'G'
aS'C'
aS'T'
aS'C'
aS'C'
aS'G'
aS'G'
aS'T'
aS'G'
aS'C'
aS'G'
aS'T'
aS'T'
aS'C'
aS'G'
aS'G'
aS'C'
aS'A'
aS'C'
aS'G'
aS'G'
aS'T'
aS'G'
aS'T'
aS'A'
aS'T'
aS'A'
aS'A'
aS'G'
aS'G'
aS'T'
aS'A'
aS'A'
aS'G'
aS'G'
aS'T'
aS'C'
aS'C'
aS'C'
aS'T'
aS'G'
aS'G'
aS'C'
aS'A'
aS'C'
aS'A'
aS'G'
aS'G'
aS'C'
aS'C'
aS'T'
aS'C'
aS'T'
aS'G'
aS'G'
aS'G'
aS'C'
aS'T'
aS'G'
aS'G'
aS'G'
aS'C'
aS'C'
aS'G'
aS'C'
aS'A'
aS'G'
aS'G'
aS'G'
aS'C'
aS'C'
aS'T'
aS'C'
aS'T'
aS'C'
aS'A'
aS'T'
aS'G'
aS'G'
aS'T'
aS'C'
aS'T'
aS'G'
aS'G'
aS'T'
aS'G'
aS'G'
aS'G'
aS'G'
aS'A'
aS'G'
aS'C'
aS'C'
aS'C'
aS'A'
aS'G'
aS'A'
aS'G'
aS'T'
aS'C'
aS'C'
aS'T'
aS'T'
aS'G'
aS'C'
aS'A'
aS'A'
aS'G'
aS'C'
aS'T'
aS'G'
aS'T'
aS'A'
aS'T'
aS'A'
aS'T'
aS'T'
aS'T'
aS'C'
aS'C'
aS'A'
aS'T'
aS'C'
aS'A'
aS'T'
aS'C'
aS'T'
aS'A'
aS'C'
aS'T'
aS'T'
aS'T'
aS'A'
aS'C'
aS'T'
aS'C'
aS'T'
aS'T'
aS'T'
aS'G'
aS'T'
aS'T'
aS'T'
aS'C'
aS'A'
aS'C'
aS'T'
aS'G'
aS'A'
aS'G'
aS'T'
aS'G'
aS'T'
aS'T'
aS'T'
aS'G'
aS'G'
aS'G'
aS'A'
aS'A'
aS'A'
aS'C'
aS'T'
aS'C'
aS'C'
aS'A'
aS'G'
aS'T'
aS'G'
aS'T'
aS'T'
aS'T'
aS'T'
aS'T'
aS'C'
aS'C'
aS'C'
aS'A'
aS'A'
assI19
(dp150
g71
g72
(g73
g74
I160690
tRp151
sg76
I99
sg77
I399
sg78
g72
(g73
g74
I160789
tRp152
sg80
(lp153
S'C'
aS'C'
aS'A'
aS'G'
aS'C'
aS'A'
aS'A'
aS'T'
aS'A'
aS'T'
aS'C'
aS'A'
aS'G'
aS'C'
aS'C'
aS'T'
aS'T'
aS'A'
aS'G'
aS'G'
aS'T'
aS'G'
aS'C'
aS'G'
aS'G'
aS'C'
aS'T'
aS'C'
aS'C'
aS'A'
aS'C'
aS'A'
aS'G'
aS'C'
aS'C'
aS'C'
aS'C'
aS'A'
aS'G'
aS'T'
aS'G'
aS'T'
aS'C'
aS'C'
aS'C'
aS'T'
aS'C'
aS'A'
aS'C'
aS'C'
aS'T'
aS'T'
aS'C'
aS'G'
aS'G'
aS'G'
aS'G'
aS'T'
aS'G'
aS'C'
aS'A'
aS'T'
aS'C'
aS'G'
aS'C'
aS'T'
aS'G'
aS'G'
aS'T'
aS'A'
aS'A'
aS'C'
aS'A'
aS'T'
aS'C'
aS'C'
aS'A'
aS'C'
aS'C'
aS'C'
aS'A'
aS'G'
aS'A'
aS'T'
aS'C'
aS'A'
aS'C'
aS'T'
aS'G'
aS'G'
aS'G'
aS'C'
aS'A'
aS'G'
aS'C'
aS'A'
aS'T'
aS'G'
aS'T'
aS'G'
aS'G'
aS'C'
aS'A'
aS'C'
aS'C'
aS'A'
aS'T'
aS'C'
aS'T'
aS'C'
aS'A'
aS'C'
aS'A'
aS'A'
aS'T'
aS'T'
aS'G'
aS'C'
aS'C'
aS'A'
aS'G'
aS'T'
aS'T'
aS'A'
aS'A'
aS'C'
aS'G'
aS'T'
aS'C'
aS'T'
aS'T'
aS'C'
aS'C'
aS'T'
aS'T'
aS'C'
aS'T'
aS'C'
aS'T'
aS'C'
aS'T'
aS'C'
aS'T'
aS'G'
aS'T'
aS'C'
aS'A'
aS'T'
aS'A'
aS'G'
aS'G'
aS'G'
aS'A'
aS'C'
aS'T'
aS'C'
aS'T'
aS'G'
aS'G'
aS'A'
aS'T'
aS'C'
aS'C'
aS'C'
aS'A'
aS'G'
aS'A'
aS'A'
aS'G'
aS'G'
aS'T'
aS'C'
aS'A'
aS'G'
aS'A'
aS'A'
aS'A'
aS'G'
aS'T'
aS'T'
aS'A'
aS'A'
aS'A'
aS'A'
aS'T'
aS'T'
aS'C'
aS'C'
aS'C'
aS'G'
aS'T'
aS'C'
aS'G'
aS'C'
aS'T'
aS'A'
aS'T'
aS'C'
aS'A'
aS'A'
aS'G'
aS'G'
aS'A'
aS'A'
aS'T'
aS'T'
aS'A'
aS'A'
aS'G'
aS'A'
aS'G'
aS'A'
aS'A'
aS'G'
aS'C'
aS'A'
aS'A'
aS'C'
aS'A'
aS'T'
aS'C'
aS'T'
aS'C'
aS'C'
aS'G'
aS'A'
aS'A'
aS'A'
aS'G'
aS'C'
aS'C'
aS'A'
aS'A'
aS'C'
aS'A'
aS'A'
aS'G'
aS'G'
aS'A'
aS'A'
aS'A'
aS'T'
aS'C'
aS'C'
aS'T'
aS'C'
aS'G'
aS'A'
aS'T'
aS'G'
aS'T'
aS'G'
aS'A'
aS'G'
aS'T'
aS'T'
aS'T'
aS'C'
aS'T'
aS'G'
aS'C'
aS'T'
aS'T'
aS'T'
aS'G'
aS'C'
aS'T'
aS'G'
aS'T'
aS'G'
aS'T'
aS'G'
aS'G'
aS'G'
aS'G'
aS'G'
aS'T'
aS'C'
aS'C'
aS'A'
aS'T'
aS'G'
aS'G'
aS'C'
aS'T'
aS'C'
aS'T'
aS'G'
aS'A'
aS'A'
aS'C'
aS'C'
aS'T'
aS'C'
aS'A'
aS'G'
aS'G'
aS'C'
aS'C'
aS'C'
aS'A'
aS'C'
aS'C'
aS'T'
aS'T'
aS'T'
aS'T'
aS'C'
aS'T'
aS'C'
aS'A'
aS'T'
aS'G'
aS'T'
aS'C'
aS'T'
aS'G'
aS'G'
aS'C'
aS'A'
aS'G'
aS'C'
aS'T'
aS'G'
aS'C'
aS'T'
aS'C'
aS'T'
aS'G'
aS'C'
aS'T'
aS'C'
aS'T'
aS'A'
aS'G'
aS'A'
aS'C'
aS'C'
aS'C'
aS'T'
aS'G'
aS'C'
aS'T'
aS'C'
aS'A'
aS'T'
aS'C'
aS'T'
aS'C'
aS'C'
aS'A'
aS'C'
aS'A'
aS'T'
aS'C'
aS'C'
aS'T'
aS'A'
aS'A'
aS'A'
aS'T'
aS'G'
aS'T'
aS'T'
aS'C'
aS'A'
aS'C'
aS'T'
aS'T'
aS'T'
aS'C'
aS'T'
aS'A'
aS'T'
aS'G'
aS'T'
aS'C'
aS'T'
aS'T'
aS'T'
aS'C'
aS'C'
aS'C'
aS'T'
aS'T'
aS'T'
aS'C'
aS'T'
aS'A'
aS'G'
aS'C'
aS'T'
aS'C'
aS'T'
aS'A'
aS'G'
aS'T'
aS'G'
aS'G'
assI20
(dp154
g71
g72
(g73
g74
I167261
tRp155
sg76
I186
sg77
I486
sg78
g72
(g73
g74
I167447
tRp156
sg80
(lp157
S'T'
aS'A'
aS'G'
aS'G'
aS'T'
aS'C'
aS'T'
aS'T'
aS'T'
aS'T'
aS'G'
aS'C'
aS'A'
aS'G'
aS'G'
aS'C'
aS'A'
aS'C'
aS'A'
aS'G'
aS'C'
aS'T'
aS'T'
aS'T'
aS'T'
aS'C'
aS'C'
aS'T'
aS'C'
aS'C'
aS'A'
aS'T'
aS'G'
aS'A'
aS'G'
aS'T'
aS'A'
aS'C'
aS'G'
aS'T'
aS'A'
aS'T'
aS'T'
aS'T'
aS'T'
aS'G'
aS'A'
aS'A'
aS'A'
aS'C'
aS'T'
aS'C'
aS'A'
aS'A'
aS'G'
aS'A'
aS'T'
aS'C'
aS'G'
aS'C'
aS'A'
aS'T'
aS'T'
aS'C'
aS'A'
aS'T'
aS'G'
aS'C'
aS'G'
aS'T'
aS'C'
aS'T'
aS'T'
aS'C'
aS'A'
aS'C'
aS'C'
aS'T'
aS'G'
aS'G'
aS'A'
aS'A'
aS'G'
aS'G'
aS'G'
aS'G'
aS'T'
aS'C'
aS'C'
aS'A'
aS'T'
aS'G'
aS'T'
aS'G'
aS'C'
aS'C'
aS'C'
aS'C'
aS'T'
aS'C'
aS'C'
aS'T'
aS'T'
aS'C'
aS'T'
aS'G'
aS'G'
aS'C'
aS'C'
aS'A'
aS'C'
aS'C'
aS'A'
aS'T'
aS'G'
aS'C'
aS'G'
aS'A'
aS'A'
aS'G'
aS'C'
aS'C'
aS'A'
aS'C'
aS'A'
aS'C'
aS'T'
aS'G'
aS'A'
aS'C'
aS'G'
aS'T'
aS'G'
aS'C'
aS'C'
aS'T'
aS'C'
aS'T'
aS'C'
aS'C'
aS'C'
aS'T'
aS'C'
aS'C'
aS'C'
aS'T'
aS'C'
aS'C'
aS'A'
aS'G'
aS'G'
aS'A'
aS'A'
aS'G'
aS'C'
aS'C'
aS'T'
aS'A'
aS'C'
aS'G'
aS'T'
aS'G'
aS'A'
aS'T'
aS'G'
aS'G'
aS'C'
aS'C'
aS'A'
aS'G'
aS'C'
aS'G'
aS'T'
aS'G'
aS'G'
aS'A'
aS'C'
aS'A'
aS'A'
aS'C'
aS'C'
aS'C'
aS'C'
aS'C'
aS'A'
aS'C'
aS'G'
aS'T'
aS'G'
aS'T'
aS'G'
aS'C'
aS'C'
aS'G'
aS'C'
aS'C'
aS'T'
aS'G'
aS'C'
aS'T'
aS'G'
aS'G'
aS'G'
aS'C'
aS'A'
aS'T'
aS'C'
aS'T'
aS'G'
aS'C'
aS'C'
aS'T'
aS'C'
aS'A'
aS'G'
aS'C'
aS'T'
aS'C'
aS'C'
aS'A'
aS'C'
aS'C'
aS'G'
aS'T'
aS'G'
aS'C'
aS'A'
aS'G'
aS'C'
aS'T'
aS'C'
aS'A'
aS'T'
aS'C'
aS'A'
aS'C'
aS'G'
aS'C'
aS'A'
aS'G'
aS'C'
aS'T'
aS'C'
aS'A'
aS'T'
aS'G'
aS'C'
aS'C'
aS'C'
aS'T'
aS'T'
aS'C'
aS'G'
aS'G'
aS'C'
aS'T'
aS'G'
aS'C'
aS'C'
aS'T'
aS'C'
aS'C'
aS'T'
aS'G'
aS'G'
aS'A'
aS'C'
aS'T'
aS'A'
aS'T'
aS'G'
aS'T'
aS'C'
aS'C'
aS'G'
aS'G'
aS'G'
aS'A'
aS'A'
aS'C'
aS'A'
aS'C'
aS'A'
aS'A'
aS'A'
aS'G'
aS'A'
aS'C'
aS'A'
aS'A'
aS'T'
aS'A'
aS'T'
aS'T'
aS'G'
aS'G'
aS'C'
aS'T'
aS'C'
aS'C'
aS'C'
aS'A'
aS'G'
aS'T'
aS'A'
aS'C'
aS'C'
aS'T'
aS'G'
aS'C'
aS'T'
aS'C'
aS'A'
aS'A'
aS'C'
aS'T'
aS'G'
aS'G'
aS'T'
aS'G'
aS'T'
aS'G'
aS'T'
aS'G'
aS'C'
aS'A'
aS'G'
aS'A'
aS'T'
aS'C'
aS'G'
aS'C'
aS'A'
aS'A'
aS'A'
aS'G'
aS'G'
aS'T'
aS'A'
aS'A'
aS'T'
aS'C'
aS'A'
aS'G'
aS'G'
aS'G'
aS'A'
aS'A'
aS'G'
aS'G'
aS'G'
aS'A'
aS'G'
aS'A'
aS'T'
aS'A'
aS'C'
aS'G'
aS'G'
aS'G'
aS'G'
aS'A'
aS'G'
aS'G'
aS'G'
aS'G'
aS'A'
aS'G'
aS'A'
aS'T'
aS'A'
aS'A'
aS'G'
aS'G'
aS'A'
aS'G'
aS'C'
aS'C'
aS'A'
aS'G'
aS'G'
aS'A'
aS'T'
aS'C'
aS'C'
aS'T'
aS'C'
aS'A'
aS'C'
aS'A'
aS'T'
aS'G'
aS'C'
aS'G'
aS'G'
aS'T'
aS'C'
aS'T'
aS'G'
aS'C'
aS'G'
aS'C'
aS'T'
aS'C'
aS'C'
aS'T'
aS'G'
aS'G'
aS'G'
aS'A'
aS'T'
aS'A'
aS'G'
aS'C'
aS'A'
aS'A'
aS'G'
aS'A'
aS'G'
aS'T'
aS'T'
aS'T'
aS'G'
aS'C'
aS'C'
aS'A'
aS'T'
aS'G'
aS'G'
aS'G'
aS'G'
aS'A'
aS'T'
aS'A'
aS'T'
aS'G'
aS'T'
aS'G'
aS'T'
aS'G'
aS'T'
aS'G'
aS'C'
aS'G'
aS'T'
aS'G'
aS'C'
aS'A'
aS'T'
aS'G'
aS'C'
aS'A'
aS'G'
aS'C'
aS'A'
aS'C'
aS'A'
aS'C'
aS'A'
aS'C'
aS'A'
aS'C'
aS'A'
aS'T'
aS'T'
aS'C'
aS'C'
aS'T'
aS'T'
aS'T'
aS'A'
aS'T'
aS'T'
aS'T'
aS'T'
aS'G'
aS'G'
aS'A'
aS'T'
aS'T'
aS'C'
aS'A'
aS'A'
aS'T'
aS'C'
aS'A'
assI21
(dp158
g71
g72
(g73
g74
I177687
tRp159
sg76
I156
sg77
I456
sg78
g72
(g73
g74
I177843
tRp160
sg80
(lp161
S'T'
aS'T'
aS'C'
aS'T'
aS'T'
aS'T'
aS'G'
aS'G'
aS'A'
aS'T'
aS'C'
aS'A'
aS'G'
aS'T'
aS'A'
aS'G'
aS'T'
aS'C'
aS'A'
aS'C'
aS'T'
aS'A'
aS'A'
aS'C'
aS'G'
aS'T'
aS'T'
aS'C'
aS'G'
aS'C'
aS'C'
aS'A'
aS'G'
aS'C'
aS'C'
aS'A'
aS'T'
aS'A'
aS'A'
aS'G'
aS'T'
aS'C'
aS'C'
aS'T'
aS'C'
aS'G'
aS'A'
aS'C'
aS'G'
aS'T'
aS'G'
aS'G'
aS'A'
aS'G'
aS'A'
aS'G'
aS'G'
aS'C'
aS'T'
aS'C'
aS'A'
aS'G'
aS'A'
aS'G'
aS'C'
aS'C'
aS'T'
aS'G'
aS'G'
aS'C'
aS'A'
aS'T'
aS'G'
aS'A'
aS'A'
aS'C'
aS'A'
aS'T'
aS'G'
aS'A'
aS'C'
aS'C'
aS'C'
aS'T'
aS'G'
aS'A'
aS'A'
aS'T'
aS'T'
aS'C'
aS'G'
aS'G'
aS'A'
aS'T'
aS'G'
aS'C'
aS'A'
aS'G'
aS'A'
aS'G'
aS'C'
aS'T'
aS'T'
aS'C'
aS'T'
aS'T'
aS'C'
aS'C'
aS'C'
aS'A'
aS'T'
aS'G'
aS'A'
aS'T'
aS'G'
aS'A'
aS'T'
aS'C'
aS'T'
aS'G'
aS'T'
aS'C'
aS'C'
aS'C'
aS'T'
aS'C'
aS'A'
aS'C'
aS'A'
aS'G'
aS'C'
aS'A'
aS'G'
aS'G'
aS'G'
aS'T'
aS'C'
aS'T'
aS'T'
aS'C'
aS'T'
aS'C'
aS'T'
aS'G'
aS'T'
aS'T'
aS'T'
aS'C'
aS'A'
aS'G'
aS'G'
aS'G'
aS'C'
aS'A'
aS'T'
aS'G'
aS'A'
aS'A'
aS'C'
aS'T'
aS'A'
aS'C'
aS'T'
aS'T'
aS'G'
aS'G'
aS'A'
aS'G'
aS'G'
aS'A'
aS'C'
aS'C'
aS'G'
aS'T'
aS'C'
aS'G'
aS'C'
aS'T'
aS'T'
aS'G'
aS'G'
aS'T'
aS'G'
aS'C'
aS'A'
aS'C'
aS'C'
aS'G'
aS'C'
aS'G'
aS'A'
aS'C'
aS'C'
aS'T'
aS'G'
aS'G'
aS'C'
aS'A'
aS'G'
aS'C'
aS'C'
aS'A'
aS'G'
aS'G'
aS'A'
aS'A'
aS'C'
aS'G'
aS'T'
aS'A'
aS'C'
aS'T'
aS'G'
aS'G'
aS'T'
aS'G'
aS'A'
aS'A'
aS'A'
aS'A'
aS'C'
aS'A'
aS'C'
aS'C'
aS'G'
aS'C'
aS'A'
aS'G'
aS'C'
aS'A'
aS'T'
aS'G'
aS'T'
aS'C'
aS'A'
aS'A'
aS'G'
aS'A'
aS'T'
aS'C'
aS'A'
aS'C'
aS'A'
aS'G'
aS'A'
aS'T'
aS'T'
aS'T'
aS'T'
aS'G'
aS'G'
aS'G'
aS'C'
aS'T'
aS'G'
aS'G'
aS'C'
aS'C'
aS'A'
aS'A'
aS'A'
aS'C'
aS'T'
aS'G'
aS'C'
aS'T'
aS'G'
aS'G'
aS'G'
aS'T'
aS'G'
aS'C'
aS'G'
aS'G'
aS'A'
aS'A'
aS'G'
aS'A'
aS'G'
aS'A'
aS'A'
aS'A'
aS'G'
aS'A'
aS'A'
aS'T'
aS'A'
aS'C'
aS'C'
aS'A'
aS'T'
aS'G'
aS'C'
aS'A'
aS'G'
aS'A'
aS'A'
aS'G'
aS'G'
aS'A'
aS'G'
aS'A'
aS'C'
aS'A'
aS'A'
aS'A'
aS'G'
aS'T'
aS'A'
aS'A'
aS'G'
aS'G'
aS'A'
aS'G'
aS'G'
aS'T'
aS'G'
aS'G'
aS'C'
aS'T'
aS'T'
aS'T'
aS'A'
aS'G'
aS'G'
aS'T'
aS'C'
aS'A'
aS'G'
aS'C'
aS'C'
aS'A'
aS'G'
aS'C'
aS'A'
aS'T'
aS'T'
aS'T'
aS'T'
aS'C'
aS'C'
aS'T'
aS'G'
aS'A'
aS'C'
aS'A'
aS'C'
aS'C'
aS'A'
aS'G'
aS'G'
aS'G'
aS'A'
aS'C'
aS'C'
aS'A'
aS'G'
aS'G'
aS'C'
aS'T'
aS'G'
aS'C'
aS'C'
aS'T'
aS'T'
aS'C'
aS'C'
aS'C'
aS'A'
aS'C'
aS'T'
aS'A'
aS'G'
aS'C'
aS'T'
aS'G'
aS'T'
aS'A'
aS'T'
aS'T'
aS'G'
aS'T'
aS'T'
aS'T'
aS'A'
aS'A'
aS'C'
aS'A'
aS'C'
aS'A'
aS'T'
aS'G'
aS'C'
aS'A'
aS'G'
aS'G'
aS'G'
aS'G'
aS'A'
aS'G'
aS'G'
aS'A'
aS'T'
aS'G'
aS'C'
aS'T'
aS'C'
aS'T'
aS'C'
aS'C'
aS'A'
aS'G'
aS'A'
aS'C'
aS'A'
aS'T'
aS'T'
aS'C'
aS'T'
aS'G'
aS'G'
aS'G'
aS'T'
aS'G'
aS'A'
aS'G'
aS'C'
aS'T'
aS'C'
aS'G'
aS'C'
aS'A'
aS'G'
aS'C'
aS'A'
aS'G'
aS'C'
aS'T'
aS'G'
aS'C'
aS'T'
aS'G'
aS'C'
aS'T'
aS'G'
aS'G'
aS'C'
aS'A'
aS'G'
aS'C'
aS'T'
aS'G'
aS'G'
aS'G'
aS'T'
aS'C'
assI22
(dp162
g71
g72
(g73
g74
I178734
tRp163
sg76
I76
sg77
I376
sg78
g72
(g73
g74
I178810
tRp164
sg80
(lp165
S'C'
aS'G'
aS'G'
aS'G'
aS'A'
aS'G'
aS'G'
aS'A'
aS'G'
aS'G'
aS'C'
aS'G'
aS'C'
aS'C'
aS'G'
aS'G'
aS'G'
aS'C'
aS'C'
aS'T'
aS'G'
aS'G'
aS'G'
aS'G'
aS'G'
aS'A'
aS'C'
aS'G'
aS'G'
aS'G'
aS'T'
aS'C'
aS'C'
aS'T'
aS'G'
aS'G'
aS'G'
aS'G'
aS'T'
aS'G'
aS'A'
aS'T'
aS'C'
aS'T'
aS'G'
aS'G'
aS'C'
aS'T'
aS'C'
aS'G'
aS'T'
aS'C'
aS'T'
aS'G'
aS'T'
aS'G'
aS'T'
aS'G'
aS'T'
aS'G'
aS'T'
aS'C'
aS'A'
aS'C'
aS'T'
aS'C'
aS'G'
aS'T'
aS'A'
aS'A'
aS'T'
aS'T'
aS'A'
aS'G'
aS'G'
aS'T'
aS'C'
aS'C'
aS'A'
aS'G'
aS'A'
aS'G'
aS'T'
aS'G'
aS'A'
aS'G'
aS'T'
aS'T'
aS'A'
aS'A'
aS'C'
aS'T'
aS'T'
aS'T'
aS'T'
aS'T'
aS'C'
aS'C'
aS'A'
aS'A'
aS'C'
aS'A'
aS'G'
aS'A'
aS'G'
aS'G'
aS'G'
aS'A'
aS'A'
aS'A'
aS'C'
aS'T'
aS'A'
aS'A'
aS'T'
aS'A'
aS'G'
aS'T'
aS'T'
aS'G'
aS'T'
aS'C'
aS'T'
aS'C'
aS'A'
aS'C'
aS'T'
aS'G'
aS'C'
aS'C'
aS'T'
aS'C'
aS'A'
aS'T'
aS'C'
aS'T'
aS'C'
aS'T'
aS'C'
aS'A'
aS'C'
aS'C'
aS'A'
aS'T'
aS'C'
aS'C'
aS'C'
aS'A'
aS'A'
aS'G'
aS'G'
aS'T'
aS'G'
aS'C'
aS'C'
aS'T'
aS'A'
aS'T'
aS'C'
aS'A'
aS'A'
aS'G'
aS'T'
aS'T'
aS'G'
aS'A'
aS'T'
aS'G'
aS'G'
aS'C'
aS'A'
aS'T'
aS'T'
aS'G'
aS'G'
aS'A'
aS'A'
aS'T'
aS'C'
aS'A'
aS'A'
aS'T'
aS'T'
aS'T'
aS'T'
aS'A'
aS'C'
aS'A'
aS'C'
aS'A'
aS'G'
aS'A'
aS'A'
aS'T'
aS'C'
aS'T'
aS'A'
aS'T'
aS'A'
aS'C'
aS'C'
aS'C'
aS'A'
aS'C'
aS'C'
aS'A'
aS'G'
aS'A'
aS'G'
aS'T'
aS'G'
aS'A'
aS'T'
aS'G'
aS'T'
aS'C'
aS'T'
aS'G'
aS'G'
aS'A'
aS'G'
aS'C'
aS'T'
aS'A'
aS'C'
aS'G'
aS'G'
aS'T'
aS'G'
aS'A'
aS'G'
aS'T'
aS'C'
aS'A'
aS'T'
aS'A'
aS'A'
aS'T'
aS'C'
aS'C'
aS'T'
aS'G'
aS'A'
aS'T'
aS'G'
aS'C'
aS'T'
aS'A'
aS'A'
aS'T'
aS'G'
aS'A'
aS'G'
aS'T'
aS'T'
aS'T'
aS'G'
aS'T'
aS'A'
aS'C'
aS'T'
aS'G'
aS'A'
aS'G'
aS'G'
aS'C'
aS'C'
aS'A'
aS'A'
aS'G'
aS'C'
aS'T'
aS'G'
aS'G'
aS'C'
aS'T'
aS'T'
aS'T'
aS'T'
aS'A'
aS'T'
aS'T'
aS'G'
aS'T'
aS'T'
aS'A'
aS'G'
aS'T'
aS'T'
aS'A'
aS'A'
aS'T'
aS'T'
aS'T'
aS'A'
aS'C'
aS'A'
aS'T'
aS'T'
aS'A'
aS'T'
aS'A'
aS'T'
aS'C'
aS'C'
aS'T'
aS'C'
aS'T'
aS'G'
aS'A'
aS'C'
aS'A'
aS'T'
aS'G'
aS'C'
aS'A'
aS'A'
aS'G'
aS'T'
aS'A'
aS'T'
aS'T'
aS'T'
aS'T'
aS'C'
aS'T'
aS'T'
aS'T'
aS'C'
aS'G'
aS'A'
aS'G'
aS'A'
aS'T'
aS'A'
aS'A'
aS'T'
aS'G'
aS'A'
aS'C'
aS'T'
aS'A'
aS'A'
aS'T'
aS'G'
aS'A'
aS'T'
aS'A'
aS'A'
aS'T'
aS'G'
aS'T'
aS'A'
aS'A'
aS'T'
aS'C'
aS'A'
aS'T'
aS'T'
aS'G'
aS'C'
aS'T'
aS'G'
aS'T'
aS'C'
aS'T'
aS'A'
aS'T'
aS'C'
aS'T'
aS'A'
aS'T'
aS'T'
aS'G'
aS'T'
aS'A'
assI23
(dp166
g71
g72
(g73
g74
I184685
tRp167
sg76
I147
sg77
I447
sg78
g72
(g73
g74
I184832
tRp168
sg80
(lp169
S'G'
aS'C'
aS'T'
aS'T'
aS'C'
aS'C'
aS'A'
aS'G'
aS'C'
aS'A'
aS'T'
aS'T'
aS'G'
aS'A'
aS'A'
aS'G'
aS'C'
aS'A'
aS'A'
aS'A'
aS'T'
aS'T'
aS'G'
aS'C'
aS'C'
aS'C'
aS'A'
aS'A'
aS'G'
aS'A'
aS'C'
aS'T'
aS'A'
aS'C'
aS'A'
aS'G'
aS'A'
aS'A'
aS'A'
aS'T'
aS'G'
aS'T'
aS'A'
aS'G'
aS'G'
aS'T'
aS'T'
aS'T'
aS'C'
aS'T'
aS'A'
aS'A'
aS'A'
aS'C'
aS'A'
aS'T'
aS'C'
aS'A'
aS'A'
aS'G'
aS'A'
aS'A'
aS'A'
aS'C'
aS'A'
aS'G'
aS'T'
aS'A'
aS'A'
aS'C'
aS'C'
aS'A'
aS'G'
aS'T'
aS'A'
aS'A'
aS'T'
aS'G'
aS'A'
aS'T'
aS'G'
aS'A'
aS'C'
aS'T'
aS'A'
aS'A'
aS'A'
aS'G'
aS'C'
aS'A'
aS'A'
aS'G'
aS'G'
aS'G'
aS'A'
aS'T'
aS'T'
aS'G'
aS'T'
aS'G'
aS'A'
aS'T'
aS'T'
aS'G'
aS'T'
aS'T'
aS'C'
aS'A'
aS'T'
aS'T'
aS'C'
aS'A'
aS'T'
aS'G'
aS'A'
aS'T'
aS'C'
aS'C'
aS'C'
aS'A'
aS'C'
aS'T'
aS'G'
aS'C'
aS'C'
aS'T'
aS'T'
aS'C'
aS'T'
aS'T'
aS'T'
aS'T'
aS'C'
aS'T'
aS'T'
aS'G'
aS'C'
aS'T'
aS'T'
aS'C'
aS'A'
aS'T'
aS'C'
aS'C'
aS'T'
aS'C'
aS'T'
aS'C'
aS'A'
aS'G'
aS'G'
aS'G'
aS'G'
aS'T'
aS'G'
aS'A'
aS'C'
aS'C'
aS'G'
aS'T'
aS'T'
aS'T'
aS'G'
aS'G'
aS'G'
aS'A'
aS'G'
aS'T'
aS'T'
aS'G'
aS'A'
aS'T'
aS'G'
aS'A'
aS'C'
aS'C'
aS'T'
aS'T'
aS'T'
aS'G'
aS'G'
aS'A'
aS'T'
aS'C'
aS'C'
aS'A'
aS'A'
aS'G'
aS'C'
aS'C'
aS'A'
aS'T'
aS'A'
aS'T'
aS'G'
aS'A'
aS'C'
aS'G'
aS'G'
aS'A'
aS'A'
aS'T'
aS'C'
aS'C'
aS'C'
aS'T'
aS'G'
aS'C'
aS'C'
aS'A'
aS'G'
aS'C'
aS'G'
aS'A'
aS'G'
aS'A'
aS'T'
aS'C'
aS'T'
aS'C'
aS'C'
aS'T'
aS'C'
aS'C'
aS'A'
aS'T'
aS'A'
aS'C'
aS'T'
aS'G'
aS'G'
aS'A'
aS'G'
aS'A'
aS'A'
aS'A'
aS'G'
aS'G'
aS'A'
aS'G'
aS'A'
aS'A'
aS'C'
aS'G'
aS'C'
aS'C'
aS'T'
aS'C'
aS'C'
aS'C'
aS'T'
aS'C'
aS'A'
aS'G'
aS'C'
aS'C'
aS'A'
aS'C'
aS'C'
aS'C'
aS'A'
aS'T'
aS'A'
aS'T'
aS'G'
aS'T'
aS'A'
aS'C'
aS'C'
aS'A'
aS'T'
aS'C'
aS'G'
aS'A'
aS'T'
aS'G'
aS'T'
aS'C'
aS'T'
aS'A'
aS'C'
aS'A'
aS'T'
aS'G'
aS'A'
aS'T'
aS'C'
aS'A'
aS'T'
aS'G'
aS'G'
aS'T'
aS'C'
aS'A'
aS'A'
aS'G'
aS'T'
aS'G'
aS'T'
aS'G'
aS'A'
aS'G'
aS'T'
aS'G'
aS'A'
aS'C'
aS'T'
aS'G'
aS'G'
aS'T'
aS'G'
aS'G'
aS'G'
aS'T'
aS'C'
aS'T'
aS'G'
aS'T'
aS'C'
aS'C'
aS'A'
aS'C'
aS'A'
aS'C'
aS'T'
aS'G'
aS'C'
aS'C'
aS'T'
aS'A'
aS'G'
aS'C'
aS'T'
aS'G'
aS'A'
aS'G'
aS'C'
aS'C'
aS'T'
aS'T'
aS'G'
aS'G'
aS'T'
aS'G'
aS'G'
aS'C'
aS'T'
aS'G'
aS'C'
aS'T'
aS'C'
aS'T'
aS'T'
aS'A'
aS'G'
aS'C'
aS'C'
aS'A'
aS'A'
aS'A'
aS'C'
aS'A'
aS'G'
aS'C'
aS'T'
aS'G'
aS'A'
aS'G'
aS'G'
aS'C'
aS'C'
aS'T'
aS'T'
aS'T'
aS'G'
aS'C'
aS'A'
aS'T'
aS'C'
aS'C'
aS'C'
aS'T'
aS'G'
aS'G'
aS'A'
aS'G'
aS'A'
aS'A'
aS'A'
aS'T'
aS'G'
aS'T'
aS'C'
aS'A'
aS'T'
aS'C'
aS'A'
aS'C'
aS'A'
aS'T'
aS'T'
aS'A'
aS'C'
aS'T'
aS'T'
aS'A'
aS'A'
aS'G'
aS'G'
aS'C'
aS'A'
aS'G'
aS'G'
aS'C'
aS'A'
aS'C'
aS'A'
aS'C'
aS'A'
aS'A'
aS'A'
aS'T'
aS'C'
aS'C'
aS'A'
aS'G'
aS'A'
aS'A'
aS'A'
aS'C'
aS'A'
aS'T'
aS'C'
aS'T'
aS'G'
aS'T'
aS'A'
aS'A'
aS'A'
aS'T'
aS'A'
aS'C'
aS'C'
aS'C'
aS'C'
aS'T'
aS'T'
assI24
(dp170
g71
g72
(g73
g74
I186284
tRp171
sg76
I98
sg77
I398
sg78
g72
(g73
g74
I186382
tRp172
sg80
(lp173
S'C'
aS'A'
aS'A'
aS'G'
aS'A'
aS'C'
aS'A'
aS'G'
aS'A'
aS'A'
aS'A'
aS'A'
aS'G'
aS'T'
aS'C'
aS'T'
aS'A'
aS'C'
aS'C'
aS'A'
aS'C'
aS'A'
aS'A'
aS'A'
aS'G'
aS'A'
aS'C'
aS'T'
aS'T'
aS'G'
aS'G'
aS'T'
aS'T'
aS'C'
aS'T'
aS'T'
aS'T'
aS'C'
aS'A'
aS'T'
aS'C'
aS'A'
aS'C'
aS'T'
aS'T'
aS'A'
aS'T'
aS'T'
aS'T'
aS'G'
aS'A'
aS'C'
aS'T'
aS'G'
aS'G'
aS'A'
aS'A'
aS'G'
aS'T'
aS'G'
aS'T'
aS'C'
aS'G'
aS'C'
aS'A'
aS'T'
aS'C'
aS'A'
aS'C'
aS'C'
aS'A'
aS'A'
aS'T'
aS'G'
aS'C'
aS'C'
aS'T'
aS'T'
aS'C'
aS'T'
aS'T'
aS'T'
aS'A'
aS'A'
aS'G'
aS'C'
aS'A'
aS'A'
aS'T'
aS'G'
aS'C'
aS'C'
aS'A'
aS'T'
aS'C'
aS'T'
aS'T'
aS'T'
aS'A'
aS'T'
aS'C'
aS'A'
aS'T'
aS'T'
aS'T'
aS'C'
aS'T'
aS'T'
aS'C'
aS'C'
aS'A'
aS'G'
aS'T'
aS'G'
aS'T'
aS'T'
aS'C'
aS'T'
aS'A'
aS'A'
aS'T'
aS'T'
aS'G'
aS'C'
aS'A'
aS'C'
aS'T'
aS'G'
aS'T'
aS'T'
aS'T'
aS'T'
aS'T'
aS'T'
aS'C'
aS'T'
aS'C'
aS'A'
aS'T'
aS'T'
aS'C'
aS'C'
aS'T'
aS'T'
aS'C'
aS'C'
aS'C'
aS'C'
aS'A'
aS'G'
aS'G'
aS'C'
aS'T'
aS'G'
aS'G'
aS'A'
aS'T'
aS'G'
aS'A'
aS'T'
aS'G'
aS'G'
aS'A'
aS'C'
aS'G'
aS'C'
aS'A'
aS'G'
aS'A'
aS'T'
aS'A'
aS'G'
aS'T'
aS'C'
aS'G'
aS'C'
aS'C'
aS'C'
aS'A'
aS'A'
aS'A'
aS'G'
aS'T'
aS'T'
aS'C'
aS'C'
aS'G'
aS'T'
aS'G'
aS'A'
aS'G'
aS'T'
aS'T'
aS'G'
aS'A'
aS'T'
aS'C'
aS'A'
aS'T'
aS'C'
aS'G'
aS'A'
aS'A'
aS'T'
aS'T'
aS'C'
aS'T'
aS'C'
aS'C'
aS'A'
aS'A'
aS'A'
aS'A'
aS'T'
aS'G'
aS'G'
aS'C'
aS'C'
aS'C'
aS'G'
aS'A'
aS'G'
aS'A'
aS'C'
aS'C'
aS'C'
aS'C'
aS'C'
aS'A'
aS'G'
aS'C'
aS'G'
aS'C'
aS'T'
aS'A'
aS'C'
aS'C'
aS'T'
aS'T'
aS'G'
aS'T'
aS'C'
aS'A'
aS'T'
aS'T'
aS'C'
aS'A'
aS'G'
aS'G'
aS'T'
aS'A'
aS'C'
aS'A'
aS'A'
aS'A'
aS'T'
aS'T'
aS'G'
aS'C'
aS'A'
aS'G'
aS'T'
aS'C'
aS'T'
aS'G'
aS'T'
aS'G'
aS'C'
aS'T'
aS'T'
aS'C'
aS'C'
aS'A'
aS'T'
aS'T'
aS'G'
aS'G'
aS'G'
aS'A'
aS'A'
aS'G'
aS'A'
aS'G'
aS'T'
aS'C'
aS'C'
aS'C'
aS'T'
aS'C'
aS'T'
aS'A'
aS'A'
aS'T'
aS'G'
aS'A'
aS'G'
aS'C'
aS'A'
aS'T'
aS'C'
aS'T'
aS'C'
aS'A'
aS'T'
aS'G'
aS'T'
aS'C'
aS'A'
aS'C'
aS'T'
aS'G'
aS'T'
aS'G'
aS'T'
aS'T'
aS'C'
aS'T'
aS'G'
aS'T'
aS'C'
aS'A'
aS'C'
aS'A'
aS'T'
aS'G'
aS'C'
aS'C'
aS'A'
aS'G'
aS'C'
aS'C'
aS'T'
aS'G'
aS'G'
aS'C'
aS'C'
aS'T'
aS'C'
aS'C'
aS'C'
aS'T'
aS'G'
aS'T'
aS'G'
aS'T'
aS'C'
aS'C'
aS'C'
aS'A'
aS'G'
aS'A'
aS'T'
aS'C'
aS'G'
aS'C'
aS'A'
aS'T'
aS'T'
aS'A'
aS'T'
aS'T'
aS'A'
aS'A'
aS'A'
aS'C'
aS'C'
aS'C'
aS'T'
aS'C'
aS'C'
aS'A'
aS'G'
aS'C'
aS'G'
aS'C'
aS'A'
aS'T'
aS'T'
aS'A'
aS'G'
aS'A'
aS'G'
aS'C'
aS'A'
aS'A'
aS'G'
aS'C'
aS'C'
aS'T'
aS'C'
aS'A'
aS'G'
aS'T'
aS'A'
aS'A'
aS'G'
aS'G'
aS'C'
assI25
(dp174
g71
g72
(g73
g74
I187156
tRp175
sg76
I168
sg77
I468
sg78
g72
(g73
g74
I187324
tRp176
sg80
(lp177
S'G'
aS'C'
aS'T'
aS'A'
aS'T'
aS'A'
aS'A'
aS'T'
aS'T'
aS'T'
aS'A'
aS'G'
aS'A'
aS'G'
aS'A'
aS'A'
aS'C'
aS'C'
aS'A'
aS'A'
aS'G'
aS'G'
aS'G'
aS'G'
aS'G'
aS'A'
aS'T'
aS'T'
aS'T'
aS'C'
aS'A'
aS'T'
aS'T'
aS'A'
aS'T'
aS'A'
aS'A'
aS'C'
aS'A'
aS'A'
aS'A'
aS'A'
aS'T'
aS'T'
aS'G'
aS'G'
aS'C'
aS'A'
aS'A'
aS'A'
aS'C'
aS'A'
aS'C'
aS'A'
aS'C'
aS'A'
aS'G'
aS'G'
aS'C'
aS'A'
aS'C'
aS'C'
aS'T'
aS'G'
aS'C'
aS'T'
aS'G'
aS'G'
aS'C'
aS'A'
aS'A'
aS'T'
aS'A'
aS'G'
aS'A'
aS'C'
aS'C'
aS'C'
aS'C'
aS'T'
aS'G'
aS'C'
aS'T'
aS'C'
aS'C'
aS'T'
aS'A'
aS'T'
aS'A'
aS'G'
aS'C'
aS'C'
aS'A'
aS'A'
aS'G'
aS'A'
aS'A'
aS'G'
aS'T'
aS'G'
aS'G'
aS'A'
aS'A'
aS'T'
aS'A'
aS'G'
aS'C'
aS'A'
aS'T'
aS'C'
aS'T'
aS'C'
aS'T'
aS'A'
aS'C'
aS'G'
aS'G'
aS'G'
aS'C'
aS'C'
aS'A'
aS'T'
aS'T'
aS'C'
aS'T'
aS'A'
aS'A'
aS'T'
aS'A'
aS'G'
aS'C'
aS'C'
aS'T'
aS'C'
aS'A'
aS'A'
aS'A'
aS'A'
aS'T'
aS'C'
aS'T'
aS'C'
aS'T'
aS'G'
aS'C'
aS'A'
aS'C'
aS'C'
aS'A'
aS'G'
aS'G'
aS'G'
aS'G'
aS'G'
aS'A'
aS'T'
aS'G'
aS'A'
aS'A'
aS'A'
aS'G'
aS'A'
aS'A'
aS'T'
aS'G'
aS'C'
aS'A'
aS'T'
aS'T'
aS'T'
aS'G'
aS'C'
aS'C'
aS'A'
aS'A'
aS'G'
aS'T'
aS'C'
aS'C'
aS'T'
aS'A'
aS'C'
aS'A'
aS'G'
aS'A'
aS'C'
aS'T'
aS'C'
aS'C'
aS'A'
aS'A'
aS'C'
aS'T'
aS'T'
aS'C'
aS'T'
aS'A'
aS'C'
aS'C'
aS'G'
aS'T'
aS'G'
aS'C'
aS'C'
aS'C'
aS'T'
aS'G'
aS'A'
aS'T'
aS'G'
aS'G'
aS'A'
aS'T'
aS'G'
aS'A'
aS'A'
aS'G'
aS'A'
aS'A'
aS'G'
aS'A'
aS'C'
aS'A'
aS'T'
aS'G'
aS'G'
aS'A'
aS'C'
aS'G'
aS'A'
aS'C'
aS'G'
aS'C'
aS'G'
aS'G'
aS'T'
aS'G'
aS'G'
aS'A'
aS'T'
aS'G'
aS'C'
aS'C'
aS'G'
aS'A'
aS'C'
aS'G'
aS'A'
aS'G'
aS'T'
aS'A'
aS'C'
aS'C'
aS'T'
aS'C'
aS'A'
aS'T'
aS'C'
aS'C'
aS'C'
aS'A'
aS'C'
aS'A'
aS'G'
aS'C'
aS'A'
aS'G'
aS'G'
aS'G'
aS'C'
aS'T'
aS'T'
aS'C'
aS'T'
aS'T'
aS'C'
aS'A'
aS'G'
aS'C'
aS'A'
aS'G'
aS'C'
aS'C'
aS'C'
aS'C'
aS'T'
aS'C'
aS'C'
aS'A'
aS'C'
aS'G'
aS'T'
aS'C'
aS'A'
aS'C'
aS'G'
aS'G'
aS'A'
aS'C'
aS'T'
aS'C'
aS'C'
aS'C'
aS'C'
aS'T'
aS'C'
aS'C'
aS'T'
aS'G'
aS'A'
aS'G'
aS'C'
aS'T'
aS'C'
aS'T'
aS'C'
aS'T'
aS'G'
aS'G'
aS'T'
aS'A'
aS'T'
aS'G'
aS'A'
aS'A'
aS'A'
aS'T'
aS'C'
aS'T'
aS'C'
aS'T'
aS'G'
aS'T'
aS'C'
aS'T'
aS'C'
aS'T'
aS'C'
aS'T'
aS'C'
aS'T'
aS'C'
aS'T'
aS'C'
aS'T'
aS'C'
aS'T'
aS'C'
aS'A'
aS'A'
aS'G'
aS'C'
aS'T'
aS'G'
aS'T'
aS'G'
aS'T'
aS'C'
aS'T'
aS'A'
aS'C'
aS'T'
aS'C'
aS'A'
aS'T'
aS'T'
aS'T'
aS'G'
aS'A'
aS'A'
aS'C'
aS'A'
aS'A'
aS'A'
aS'T'
aS'T'
aS'G'
aS'A'
aS'A'
aS'T'
aS'T'
aS'T'
aS'T'
aS'A'
aS'G'
aS'G'
aS'G'
aS'A'
aS'A'
aS'A'
aS'A'
aS'T'
aS'A'
aS'A'
aS'C'
aS'C'
aS'A'
aS'T'
aS'C'
aS'T'
aS'A'
aS'G'
aS'T'
aS'G'
aS'A'
aS'A'
aS'A'
aS'C'
aS'T'
aS'C'
aS'A'
aS'C'
aS'A'
aS'T'
aS'G'
aS'G'
aS'A'
aS'T'
aS'A'
aS'T'
aS'G'
aS'A'
aS'A'
aS'G'
aS'T'
aS'C'
aS'A'
aS'A'
aS'T'
aS'T'
aS'T'
aS'T'
aS'A'
aS'A'
aS'C'
aS'C'
aS'A'
aS'A'
aS'A'
aS'T'
aS'G'
aS'G'
aS'T'
aS'A'
aS'A'
aS'A'
aS'A'
aS'T'
aS'C'
aS'A'
aS'A'
aS'A'
aS'A'
aS'T'
aS'C'
aS'A'
aS'A'
aS'A'
aS'A'
aS'T'
aS'A'
aS'A'
aS'A'
aS'T'
aS'T'
aS'A'
aS'A'
aS'G'
assI26
(dp178
g71
g72
(g73
g74
I187703
tRp179
sg76
I48
sg77
I348
sg78
g72
(g73
g74
I187751
tRp180
sg80
(lp181
S'C'
aS'T'
aS'A'
aS'A'
aS'A'
aS'C'
aS'C'
aS'T'
aS'A'
aS'G'
aS'T'
aS'T'
aS'G'
aS'C'
aS'T'
aS'C'
aS'T'
aS'A'
aS'A'
aS'A'
aS'A'
aS'C'
aS'T'
aS'A'
aS'A'
aS'C'
aS'G'
aS'A'
aS'T'
aS'T'
aS'A'
aS'A'
aS'G'
aS'A'
aS'C'
aS'A'
aS'A'
aS'A'
aS'A'
aS'A'
aS'T'
aS'T'
aS'A'
aS'A'
aS'A'
aS'C'
aS'A'
aS'C'
aS'C'
aS'T'
aS'T'
aS'C'
aS'A'
aS'C'
aS'A'
aS'A'
aS'T'
aS'A'
aS'T'
aS'A'
aS'C'
aS'C'
aS'C'
aS'T'
aS'C'
aS'C'
aS'A'
aS'T'
aS'G'
aS'A'
aS'G'
aS'G'
aS'C'
aS'A'
aS'C'
aS'A'
aS'C'
aS'C'
aS'A'
aS'C'
aS'C'
aS'T'
aS'G'
aS'C'
aS'A'
aS'T'
aS'T'
aS'C'
aS'A'
aS'G'
aS'G'
aS'A'
aS'A'
aS'A'
aS'A'
aS'G'
aS'T'
aS'G'
aS'G'
aS'A'
aS'T'
aS'G'
aS'A'
aS'G'
aS'A'
aS'T'
aS'G'
aS'T'
aS'G'
aS'G'
aS'T'
aS'A'
aS'C'
aS'A'
aS'A'
aS'G'
aS'C'
aS'A'
aS'T'
aS'T'
aS'C'
aS'C'
aS'A'
aS'T'
aS'G'
aS'G'
aS'G'
aS'C'
aS'A'
aS'A'
aS'C'
aS'T'
aS'T'
aS'C'
aS'T'
aS'C'
aS'T'
aS'G'
aS'T'
aS'T'
aS'T'
aS'C'
aS'T'
aS'T'
aS'T'
aS'T'
aS'T'
aS'C'
aS'A'
aS'G'
aS'A'
aS'G'
aS'T'
aS'G'
aS'C'
aS'A'
aS'A'
aS'C'
aS'C'
aS'A'
aS'G'
aS'C'
aS'A'
aS'A'
aS'C'
aS'C'
aS'A'
aS'T'
aS'T'
aS'C'
aS'C'
aS'A'
aS'C'
aS'C'
aS'G'
aS'T'
aS'G'
aS'G'
aS'C'
aS'T'
aS'T'
aS'G'
aS'C'
aS'A'
aS'T'
aS'T'
aS'G'
aS'A'
aS'T'
aS'A'
aS'G'
aS'A'
aS'A'
aS'A'
aS'T'
aS'G'
aS'G'
aS'G'
aS'G'
aS'T'
aS'A'
aS'T'
aS'G'
aS'T'
aS'A'
aS'T'
aS'G'
aS'A'
aS'A'
aS'C'
aS'A'
aS'C'
aS'C'
aS'T'
aS'T'
aS'A'
aS'T'
aS'A'
aS'A'
aS'G'
aS'C'
aS'C'
aS'A'
aS'G'
aS'A'
aS'A'
aS'T'
aS'T'
aS'T'
aS'A'
aS'C'
aS'A'
aS'G'
aS'C'
aS'T'
aS'C'
aS'T'
aS'C'
aS'C'
aS'A'
aS'C'
aS'T'
aS'A'
aS'T'
aS'G'
aS'G'
aS'C'
aS'T'
aS'C'
aS'T'
aS'A'
aS'T'
aS'T'
aS'T'
aS'T'
aS'A'
aS'C'
aS'A'
aS'T'
aS'G'
aS'G'
aS'A'
aS'A'
aS'A'
aS'A'
aS'T'
aS'G'
aS'C'
aS'C'
aS'T'
aS'T'
aS'A'
aS'A'
aS'C'
aS'C'
aS'T'
aS'A'
aS'A'
aS'A'
aS'T'
aS'A'
aS'A'
aS'T'
aS'T'
aS'T'
aS'T'
aS'A'
aS'A'
aS'C'
aS'C'
aS'C'
aS'A'
aS'G'
aS'A'
aS'T'
aS'A'
aS'A'
aS'T'
aS'C'
aS'T'
aS'T'
aS'G'
aS'A'
aS'G'
aS'T'
aS'T'
aS'T'
aS'T'
aS'C'
aS'T'
aS'T'
aS'C'
aS'C'
aS'T'
aS'G'
aS'T'
aS'G'
aS'T'
aS'G'
aS'G'
aS'G'
aS'T'
aS'T'
aS'T'
aS'T'
aS'T'
aS'C'
aS'C'
aS'C'
aS'T'
aS'G'
aS'C'
aS'A'
aS'C'
aS'G'
aS'G'
aS'C'
aS'T'
aS'G'
aS'T'
aS'C'
aS'A'
aS'C'
aS'G'
aS'C'
aS'C'
aS'T'
aS'C'
assI27
(dp182
g71
g72
(g73
g74
I188485
tRp183
sg76
I109
sg77
I409
sg78
g72
(g73
g74
I188594
tRp184
sg80
(lp185
S'T'
aS'A'
aS'G'
aS'C'
aS'A'
aS'C'
aS'C'
aS'A'
aS'G'
aS'C'
aS'A'
aS'C'
aS'C'
aS'C'
aS'A'
aS'C'
aS'C'
aS'A'
aS'G'
aS'G'
aS'G'
aS'T'
aS'G'
aS'C'
aS'A'
aS'G'
aS'A'
aS'C'
aS'T'
aS'C'
aS'T'
aS'C'
aS'A'
aS'G'
aS'G'
aS'C'
aS'C'
aS'T'
aS'G'
aS'C'
aS'C'
aS'C'
aS'A'
aS'A'
aS'C'
aS'C'
aS'T'
aS'A'
aS'C'
aS'T'
aS'A'
aS'A'
aS'T'
aS'C'
aS'A'
aS'G'
aS'A'
aS'A'
aS'C'
aS'C'
aS'A'
aS'G'
aS'C'
aS'A'
aS'T'
aS'C'
aS'T'
aS'C'
aS'A'
aS'A'
aS'G'
aS'G'
aS'A'
aS'G'
aS'A'
aS'T'
aS'C'
aS'T'
aS'C'
aS'G'
aS'G'
aS'G'
aS'T'
aS'G'
aS'A'
aS'T'
aS'T'
aS'T'
aS'T'
aS'T'
aS'G'
aS'C'
aS'A'
aS'A'
aS'A'
aS'C'
aS'A'
aS'C'
aS'T'
aS'G'
aS'A'
aS'A'
aS'G'
aS'T'
aS'T'
aS'G'
aS'G'
aS'G'
aS'G'
aS'C'
aS'A'
aS'G'
aS'C'
aS'C'
aS'C'
aS'T'
aS'G'
aS'A'
aS'C'
aS'C'
aS'G'
aS'G'
aS'A'
aS'G'
aS'T'
aS'A'
aS'A'
aS'C'
aS'C'
aS'T'
aS'T'
aS'C'
aS'C'
aS'C'
aS'T'
aS'C'
aS'A'
aS'T'
aS'T'
aS'T'
aS'C'
aS'C'
aS'T'
aS'C'
aS'C'
aS'T'
aS'G'
aS'C'
aS'A'
aS'G'
aS'C'
aS'T'
aS'G'
aS'C'
aS'A'
aS'A'
aS'A'
aS'G'
aS'C'
aS'T'
aS'G'
aS'T'
aS'C'
aS'C'
aS'C'
aS'A'
aS'T'
aS'C'
aS'A'
aS'A'
aS'G'
aS'G'
aS'A'
aS'A'
aS'G'
aS'A'
aS'C'
aS'A'
aS'G'
aS'C'
aS'T'
aS'T'
aS'C'
aS'T'
aS'T'
aS'G'
aS'C'
aS'A'
aS'G'
aS'C'
aS'G'
aS'A'
aS'T'
aS'A'
aS'C'
aS'A'
aS'G'
aS'C'
aS'T'
aS'C'
aS'A'
aS'G'
aS'A'
aS'C'
aS'A'
aS'C'
aS'C'
aS'A'
aS'C'
aS'A'
aS'G'
aS'G'
aS'C'
aS'G'
aS'C'
aS'C'
aS'T'
aS'T'
aS'G'
aS'A'
aS'C'
aS'T'
aS'G'
aS'A'
aS'G'
aS'G'
aS'A'
aS'C'
aS'A'
aS'G'
aS'C'
aS'A'
aS'T'
aS'A'
aS'G'
aS'A'
aS'C'
aS'G'
aS'A'
aS'C'
aS'A'
aS'C'
aS'C'
aS'T'
aS'T'
aS'C'
aS'C'
aS'T'
aS'C'
aS'C'
aS'C'
aS'A'
aS'G'
aS'T'
aS'G'
aS'C'
aS'C'
aS'T'
aS'G'
aS'G'
aS'T'
aS'G'
aS'A'
aS'G'
aS'T'
aS'G'
aS'G'
aS'C'
aS'T'
aS'T'
aS'G'
aS'T'
aS'C'
aS'T'
aS'G'
aS'G'
aS'A'
aS'A'
aS'A'
aS'C'
aS'A'
aS'G'
aS'T'
aS'C'
aS'C'
aS'T'
aS'G'
aS'C'
aS'T'
aS'C'
aS'C'
aS'T'
aS'C'
aS'A'
aS'A'
aS'C'
aS'C'
aS'T'
aS'C'
aS'C'
aS'T'
aS'C'
aS'G'
aS'A'
aS'C'
aS'C'
aS'C'
aS'A'
aS'C'
aS'T'
aS'C'
aS'A'
aS'G'
aS'C'
aS'A'
aS'G'
aS'C'
aS'A'
aS'G'
aS'C'
aS'C'
aS'A'
aS'G'
aS'T'
aS'C'
aS'T'
aS'C'
aS'C'
aS'A'
aS'G'
aS'T'
aS'G'
aS'T'
aS'C'
aS'C'
aS'A'
aS'A'
aS'G'
aS'C'
aS'C'
aS'A'
aS'G'
aS'G'
aS'T'
aS'G'
aS'C'
aS'T'
aS'C'
aS'C'
aS'C'
aS'T'
aS'C'
aS'C'
aS'A'
aS'G'
aS'C'
aS'A'
aS'T'
aS'C'
aS'T'
aS'C'
aS'C'
aS'A'
aS'G'
aS'A'
aS'G'
aS'G'
aS'G'
aS'G'
aS'G'
aS'A'
aS'A'
aS'A'
aS'C'
aS'A'
aS'G'
aS'T'
aS'G'
aS'G'
aS'C'
aS'A'
aS'G'
aS'A'
aS'T'
aS'T'
aS'T'
aS'G'
aS'C'
aS'A'
aS'G'
aS'A'
aS'C'
aS'A'
aS'C'
aS'A'
aS'G'
aS'T'
aS'G'
aS'A'
aS'A'
aS'G'
aS'G'
aS'G'
aS'C'
aS'G'
aS'T'
aS'A'
aS'A'
aS'G'
assI28
(dp186
g71
g72
(g73
g74
I191224
tRp187
sg76
I2083
sg77
I2383
sg78
g72
(g73
g74
I193307
tRp188
sg80
(lp189
S'T'
aS'T'
aS'G'
aS'C'
aS'A'
aS'G'
aS'C'
aS'A'
aS'A'
aS'C'
aS'A'
aS'G'
aS'C'
aS'A'
aS'A'
aS'G'
aS'A'
aS'G'
aS'G'
aS'G'
aS'C'
aS'C'
aS'C'
aS'T'
aS'C'
aS'C'
aS'C'
aS'G'
aS'A'
aS'G'
aS'G'
aS'C'
aS'T'
aS'C'
aS'C'
aS'T'
aS'G'
aS'C'
aS'T'
aS'C'
aS'C'
aS'C'
aS'T'
aS'G'
aS'T'
aS'C'
aS'A'
aS'T'
aS'A'
aS'A'
aS'G'
aS'T'
aS'C'
aS'T'
aS'C'
aS'C'
aS'T'
aS'T'
aS'G'
aS'T'
aS'T'
aS'G'
aS'A'
aS'G'
aS'G'
aS'A'
aS'C'
aS'A'
aS'T'
aS'T'
aS'C'
aS'A'
aS'C'
aS'A'
aS'G'
aS'G'
aS'G'
aS'T'
aS'T'
aS'C'
aS'A'
aS'G'
aS'A'
aS'A'
aS'C'
aS'C'
aS'C'
aS'A'
aS'G'
aS'G'
aS'G'
aS'A'
aS'T'
aS'C'
aS'C'
aS'T'
aS'G'
aS'C'
aS'A'
aS'T'
aS'G'
aS'G'
aS'G'
aS'A'
aS'T'
aS'G'
aS'G'
aS'T'
aS'G'
aS'C'
aS'T'
aS'T'
aS'T'
aS'G'
aS'C'
aS'T'
aS'G'
aS'A'
aS'T'
aS'T'
aS'A'
aS'C'
aS'T'
aS'T'
aS'C'
aS'A'
aS'C'
aS'C'
aS'T'
aS'C'
aS'T'
aS'G'
aS'A'
aS'T'
aS'T'
aS'T'
aS'C'
aS'T'
aS'T'
aS'T'
aS'C'
aS'C'
aS'A'
aS'C'
aS'T'
aS'T'
aS'T'
aS'C'
aS'A'
aS'G'
aS'A'
aS'A'
aS'T'
aS'A'
aS'C'
aS'A'
aS'T'
aS'A'
aS'A'
aS'A'
aS'C'
aS'C'
aS'A'
aS'G'
aS'T'
aS'C'
aS'C'
aS'G'
aS'T'
aS'T'
aS'C'
aS'C'
aS'C'
aS'A'
aS'A'
aS'A'
aS'A'
aS'G'
aS'G'
aS'C'
aS'C'
aS'C'
aS'G'
aS'C'
aS'T'
aS'G'
aS'G'
aS'C'
aS'T'
aS'C'
aS'T'
aS'G'
aS'T'
aS'G'
aS'C'
aS'A'
aS'G'
aS'A'
aS'A'
aS'T'
aS'C'
aS'C'
aS'T'
aS'G'
aS'T'
aS'C'
aS'T'
aS'A'
aS'T'
aS'C'
aS'A'
aS'C'
aS'A'
aS'A'
aS'T'
aS'C'
aS'A'
aS'G'
aS'C'
aS'C'
aS'T'
aS'C'
aS'T'
aS'G'
aS'A'
aS'A'
aS'C'
aS'C'
aS'C'
aS'C'
aS'G'
aS'C'
aS'G'
aS'C'
aS'C'
aS'C'
aS'A'
aS'G'
aS'C'
aS'A'
aS'G'
aS'A'
aS'G'
aS'A'
aS'C'
aS'C'
aS'C'
aS'A'
aS'C'
aS'A'
aS'C'
aS'T'
aS'A'
aS'C'
aS'C'
aS'A'
aS'G'
aS'G'
aS'A'
aS'C'
aS'C'
aS'C'
aS'C'
aS'C'
aS'A'
aS'C'
aS'A'
aS'G'
aS'C'
aS'A'
aS'C'
aS'T'
aS'G'
aS'C'
aS'A'
aS'G'
aS'T'
aS'G'
aS'G'
aS'G'
aS'C'
aS'A'
aS'A'
aS'C'
aS'C'
aS'C'
aS'C'
aS'G'
aS'A'
aS'G'
aS'T'
aS'A'
aS'T'
aS'C'
aS'T'
aS'C'
aS'A'
aS'A'
aS'C'
aS'A'
aS'C'
aS'T'
aS'G'
aS'T'
aS'C'
aS'C'
aS'A'
aS'G'
aS'C'
aS'C'
aS'C'
aS'A'
aS'C'
aS'C'
aS'T'
aS'G'
aS'T'
aS'G'
aS'T'
aS'C'
aS'A'
aS'A'
aS'C'
aS'A'
aS'G'
aS'C'
aS'A'
aS'C'
aS'A'
aS'T'
aS'T'
aS'C'
aS'G'
aS'A'
aS'C'
aS'A'
aS'G'
aS'C'
aS'C'
aS'C'
aS'T'
aS'G'
aS'C'
aS'C'
aS'C'
aS'A'
aS'C'
aS'T'
aS'G'
aS'G'
aS'G'
aS'C'
aS'C'
aS'C'
aS'A'
aS'G'
aS'A'
aS'A'
aS'A'
aS'G'
aS'G'
aS'C'
aS'A'
aS'G'
aS'C'
aS'C'
aS'A'
aS'C'
aS'C'
aS'A'
aS'A'
aS'A'
aS'T'
aS'T'
aS'A'
aS'G'
aS'C'
aS'C'
aS'T'
aS'G'
aS'G'
aS'A'
aS'C'
aS'A'
aS'A'
aS'C'
aS'C'
aS'C'
aS'T'
aS'G'
aS'A'
aS'C'
aS'T'
aS'A'
aS'C'
aS'C'
aS'A'
aS'G'
aS'C'
aS'A'
aS'G'
aS'G'
aS'A'
aS'C'
aS'T'
aS'T'
aS'C'
aS'T'
aS'T'
aS'T'
aS'C'
aS'C'
aS'C'
aS'A'
aS'A'
aS'G'
aS'G'
aS'A'
aS'A'
aS'G'
aS'C'
aS'C'
aS'A'
aS'A'
aS'G'
aS'C'
aS'C'
aS'A'
aS'A'
aS'A'
aS'T'
aS'G'
aS'G'
aS'C'
aS'A'
aS'T'
aS'C'
aS'T'
aS'T'
aS'T'
aS'A'
aS'A'
aS'G'
aS'G'
aS'G'
aS'C'
aS'T'
aS'C'
aS'C'
aS'A'
aS'C'
aS'A'
aS'G'
aS'C'
aS'T'
aS'G'
aS'A'
aS'A'
aS'A'
aS'A'
aS'T'
aS'G'
aS'C'
aS'A'
aS'G'
aS'A'
aS'A'
aS'T'
aS'A'
aS'C'
aS'C'
aS'T'
aS'A'
aS'A'
aS'G'
aS'G'
aS'G'
aS'T'
aS'C'
aS'G'
aS'C'
aS'G'
aS'C'
aS'C'
aS'A'
aS'C'
aS'A'
aS'A'
aS'A'
aS'G'
aS'C'
aS'A'
aS'G'
aS'T'
aS'G'
aS'A'
aS'A'
aS'T'
aS'T'
aS'T'
aS'A'
aS'T'
aS'T'
aS'G'
aS'G'
aS'A'
aS'G'
aS'C'
aS'A'
aS'T'
aS'G'
aS'A'
aS'C'
aS'C'
aS'A'
aS'C'
aS'G'
aS'G'
aS'A'
aS'G'
aS'G'
aS'A'
aS'T'
aS'A'
aS'G'
aS'T'
aS'A'
aS'T'
aS'G'
aS'A'
aS'G'
aS'C'
aS'C'
aS'C'
aS'T'
aS'A'
aS'A'
aS'A'
aS'A'
aS'A'
aS'T'
aS'C'
aS'C'
aS'A'
aS'G'
aS'A'
aS'C'
aS'T'
aS'C'
aS'T'
aS'T'
aS'T'
aS'C'
aS'G'
aS'A'
aS'T'
aS'A'
aS'C'
aS'C'
aS'C'
aS'A'
aS'G'
aS'G'
aS'A'
aS'C'
aS'C'
aS'A'
aS'A'
aS'G'
aS'C'
aS'C'
aS'A'
aS'C'
aS'A'
aS'G'
aS'C'
aS'A'
aS'G'
aS'G'
aS'T'
aS'C'
aS'C'
aS'T'
aS'C'
aS'C'
aS'A'
aS'T'
aS'C'
aS'C'
aS'C'
aS'A'
aS'A'
aS'C'
aS'A'
aS'G'
aS'C'
aS'C'
aS'A'
aS'T'
aS'G'
aS'C'
aS'C'
aS'C'
aS'G'
aS'C'
aS'A'
aS'T'
aS'T'
aS'A'
aS'G'
aS'C'
aS'T'
aS'C'
aS'T'
aS'T'
aS'A'
aS'G'
aS'A'
aS'C'
aS'C'
aS'C'
aS'A'
aS'C'
aS'A'
aS'G'
aS'A'
aS'C'
aS'T'
aS'G'
aS'G'
aS'T'
aS'T'
aS'T'
aS'T'
aS'G'
aS'C'
aS'A'
aS'A'
aS'C'
aS'G'
aS'T'
aS'T'
aS'T'
aS'A'
aS'C'
aS'A'
aS'C'
aS'C'
aS'G'
aS'A'
aS'C'
aS'T'
aS'A'
aS'G'
aS'C'
aS'C'
aS'A'
aS'G'
aS'G'
aS'A'
aS'A'
aS'G'
aS'T'
aS'A'
aS'C'
aS'T'
aS'T'
aS'C'
aS'C'
aS'A'
aS'C'
aS'C'
aS'T'
aS'C'
aS'G'
aS'G'
aS'G'
aS'C'
aS'A'
aS'C'
aS'A'
aS'T'
aS'T'
aS'T'
aS'T'
aS'G'
aS'G'
aS'G'
aS'A'
aS'A'
aS'G'
aS'T'
aS'T'
aS'G'
aS'C'
aS'A'
aS'T'
aS'T'
aS'C'
aS'C'
aS'T'
aS'T'
aS'T'
aS'G'
aS'T'
aS'C'
aS'T'
aS'T'
aS'C'
aS'A'
aS'A'
aS'A'
aS'C'
aS'T'
aS'G'
aS'T'
aS'G'
aS'A'
aS'A'
aS'G'
aS'C'
aS'A'
aS'T'
aS'T'
aS'T'
aS'A'
aS'C'
aS'A'
aS'G'
aS'A'
aS'A'
aS'A'
aS'C'
aS'G'
aS'C'
aS'A'
aS'T'
aS'C'
aS'C'
aS'A'
aS'G'
aS'C'
aS'A'
aS'A'
aS'G'
aS'A'
aS'A'
aS'T'
aS'A'
aS'T'
aS'T'
aS'G'
aS'T'
aS'C'
aS'C'
aS'C'
aS'T'
aS'T'
aS'T'
aS'G'
aS'A'
aS'G'
aS'C'
aS'A'
aS'G'
aS'A'
aS'A'
aS'A'
aS'T'
aS'T'
aS'T'
aS'A'
aS'T'
aS'C'
aS'T'
aS'T'
aS'T'
aS'C'
aS'A'
aS'A'
aS'A'
aS'G'
aS'A'
aS'G'
aS'G'
aS'T'
aS'A'
aS'T'
aS'A'
aS'T'
aS'T'
aS'T'
aS'G'
aS'A'
aS'A'
aS'A'
aS'A'
aS'A'
aS'A'
aS'A'
aS'A'
aS'A'
aS'A'
aS'A'
aS'A'
aS'A'
aS'G'
aS'T'
aS'A'
aS'T'
aS'A'
aS'T'
aS'G'
aS'T'
aS'G'
aS'A'
aS'G'
aS'G'
aS'A'
aS'T'
aS'T'
aS'T'
aS'T'
aS'T'
aS'A'
aS'T'
aS'T'
aS'G'
aS'A'
aS'T'
aS'T'
aS'G'
aS'G'
aS'G'
aS'G'
aS'A'
aS'T'
aS'C'
aS'T'
aS'T'
aS'G'
aS'G'
aS'A'
aS'G'
aS'T'
aS'T'
aS'T'
aS'T'
aS'T'
aS'C'
aS'A'
aS'T'
aS'T'
aS'G'
aS'T'
aS'C'
aS'G'
aS'C'
aS'T'
aS'A'
aS'T'
aS'T'
aS'G'
aS'A'
aS'T'
aS'T'
aS'T'
aS'T'
aS'T'
aS'A'
aS'C'
aS'T'
aS'T'
aS'C'
aS'A'
aS'A'
aS'T'
aS'G'
aS'G'
aS'G'
aS'C'
aS'T'
aS'C'
aS'T'
aS'T'
aS'C'
aS'C'
aS'A'
aS'A'
aS'C'
aS'A'
aS'A'
aS'G'
aS'G'
aS'A'
aS'A'
aS'G'
aS'A'
aS'A'
aS'G'
aS'C'
aS'T'
aS'T'
aS'G'
aS'C'
aS'T'
aS'G'
aS'G'
aS'T'
aS'A'
aS'G'
aS'C'
aS'A'
aS'C'
aS'T'
aS'T'
aS'G'
aS'C'
aS'T'
aS'A'
aS'C'
aS'C'
aS'C'
aS'T'
aS'G'
aS'A'
aS'G'
aS'T'
aS'T'
aS'C'
aS'A'
aS'T'
aS'C'
aS'C'
aS'A'
aS'G'
aS'G'
aS'C'
aS'C'
aS'C'
aS'A'
aS'A'
aS'C'
aS'T'
aS'G'
aS'T'
aS'G'
aS'A'
aS'G'
aS'C'
aS'A'
aS'A'
aS'G'
aS'G'
aS'A'
aS'G'
aS'C'
aS'A'
aS'C'
aS'A'
aS'A'
aS'G'
aS'C'
aS'C'
aS'A'
aS'C'
aS'A'
aS'A'
aS'G'
aS'T'
aS'C'
aS'T'
aS'T'
aS'C'
aS'C'
aS'A'
aS'G'
aS'A'
aS'G'
aS'G'
aS'A'
aS'T'
aS'G'
aS'C'
aS'T'
aS'T'
aS'G'
aS'A'
aS'T'
aS'T'
aS'C'
aS'C'
aS'A'
aS'G'
aS'T'
aS'G'
aS'G'
aS'T'
aS'T'
aS'C'
aS'T'
aS'G'
aS'C'
aS'T'
aS'T'
aS'C'
aS'A'
aS'A'
aS'G'
aS'G'
aS'C'
aS'T'
aS'T'
aS'C'
aS'C'
aS'A'
aS'C'
aS'T'
aS'G'
aS'C'
aS'A'
aS'A'
aS'A'
aS'A'
aS'C'
aS'A'
aS'C'
aS'T'
aS'A'
aS'A'
aS'A'
aS'G'
aS'A'
aS'T'
aS'C'
aS'C'
aS'A'
aS'A'
aS'G'
aS'A'
aS'A'
aS'G'
aS'G'
aS'C'
aS'C'
aS'T'
aS'T'
aS'C'
aS'A'
aS'T'
aS'G'
aS'G'
aS'C'
aS'C'
aS'C'
aS'C'
aS'A'
aS'G'
aS'C'
aS'A'
aS'G'
aS'G'
aS'C'
aS'C'
aS'G'
aS'G'
aS'A'
aS'T'
aS'C'
aS'G'
aS'G'
aS'T'
aS'A'
aS'C'
aS'T'
aS'G'
aS'T'
aS'A'
aS'T'
aS'C'
aS'A'
aS'A'
aS'G'
aS'T'
aS'C'
aS'A'
aS'T'
aS'G'
aS'G'
aS'C'
aS'A'
aS'G'
aS'G'
aS'T'
aS'A'
aS'C'
aS'A'
aS'G'
aS'T'
aS'A'
aS'G'
aS'G'
aS'A'
aS'T'
aS'A'
aS'A'
aS'G'
aS'C'
aS'C'
aS'A'
aS'C'
aS'T'
aS'C'
aS'T'
aS'G'
aS'T'
aS'C'
aS'C'
aS'C'
aS'T'
aS'T'
aS'C'
aS'C'
aS'T'
aS'G'
aS'G'
aS'G'
aS'C'
aS'A'
aS'A'
aS'A'
aS'G'
aS'A'
aS'A'
aS'G'
aS'A'
aS'A'
aS'A'
aS'C'
aS'G'
aS'G'
aS'A'
aS'G'
aS'G'
aS'G'
aS'G'
aS'A'
aS'T'
aS'G'
aS'G'
aS'A'
aS'A'
aS'T'
aS'T'
aS'C'
aS'T'
aS'T'
aS'C'
aS'C'
aS'T'
aS'T'
aS'A'
aS'G'
aS'A'
aS'C'
aS'T'
aS'T'
aS'A'
aS'C'
aS'T'
aS'T'
aS'T'
aS'T'
aS'G'
aS'T'
aS'A'
aS'A'
aS'A'
aS'A'
aS'A'
aS'T'
aS'G'
aS'T'
aS'C'
aS'C'
aS'C'
aS'C'
aS'A'
aS'C'
aS'G'
aS'G'
aS'T'
aS'A'
aS'C'
aS'T'
aS'T'
aS'A'
aS'C'
aS'T'
aS'C'
aS'C'
aS'C'
aS'C'
aS'A'
aS'C'
aS'T'
aS'G'
aS'A'
aS'T'
aS'G'
aS'G'
aS'A'
aS'C'
aS'C'
aS'A'
aS'G'
aS'T'
aS'G'
aS'G'
aS'T'
aS'T'
aS'T'
aS'C'
aS'C'
aS'A'
aS'G'
aS'T'
aS'C'
aS'A'
aS'T'
aS'G'
aS'A'
aS'G'
aS'C'
aS'G'
aS'T'
aS'T'
aS'A'
aS'G'
aS'A'
aS'C'
aS'T'
aS'G'
aS'A'
aS'C'
aS'T'
aS'T'
aS'G'
aS'T'
aS'T'
aS'T'
aS'G'
aS'T'
aS'C'
aS'T'
aS'T'
aS'C'
aS'C'
aS'A'
aS'T'
aS'T'
aS'C'
aS'C'
aS'A'
aS'T'
aS'T'
aS'G'
aS'T'
aS'T'
aS'T'
aS'T'
aS'G'
aS'A'
aS'A'
aS'A'
aS'C'
aS'T'
aS'C'
aS'A'
aS'G'
aS'T'
aS'A'
aS'T'
aS'G'
aS'C'
aS'T'
aS'G'
aS'C'
aS'C'
aS'C'
aS'C'
aS'T'
aS'G'
aS'T'
aS'C'
aS'T'
aS'T'
aS'G'
aS'C'
aS'T'
aS'G'
aS'T'
aS'C'
aS'A'
aS'T'
aS'G'
aS'A'
aS'A'
aS'A'
aS'T'
aS'C'
aS'A'
aS'G'
aS'C'
aS'A'
aS'A'
aS'G'
aS'A'
aS'G'
aS'A'
aS'G'
aS'G'
aS'A'
aS'T'
aS'G'
aS'A'
aS'C'
aS'A'
aS'C'
aS'A'
aS'T'
aS'C'
aS'A'
aS'A'
aS'A'
aS'T'
aS'A'
aS'A'
aS'T'
aS'A'
aS'A'
aS'C'
aS'T'
aS'C'
aS'G'
aS'G'
aS'A'
aS'T'
aS'T'
aS'C'
aS'C'
aS'A'
aS'G'
aS'C'
aS'C'
aS'C'
aS'A'
aS'C'
aS'A'
aS'T'
aS'T'
aS'G'
aS'G'
aS'A'
aS'T'
aS'T'
aS'C'
aS'A'
aS'T'
aS'C'
aS'A'
aS'G'
aS'C'
aS'A'
aS'T'
aS'T'
aS'T'
aS'G'
aS'G'
aS'A'
aS'C'
aS'C'
aS'A'
aS'A'
aS'T'
aS'A'
aS'G'
aS'C'
aS'C'
aS'C'
aS'A'
aS'C'
aS'A'
aS'G'
aS'C'
aS'T'
aS'G'
aS'A'
aS'G'
aS'A'
aS'A'
aS'T'
aS'G'
aS'T'
aS'G'
aS'G'
aS'A'
aS'A'
aS'T'
aS'A'
aS'C'
aS'C'
aS'T'
aS'A'
aS'A'
aS'G'
aS'G'
aS'A'
aS'T'
aS'A'
aS'G'
aS'C'
aS'A'
aS'C'
aS'C'
aS'G'
aS'C'
aS'T'
aS'T'
aS'T'
aS'T'
aS'G'
aS'T'
aS'T'
aS'C'
aS'T'
aS'C'
aS'G'
aS'C'
aS'A'
aS'A'
aS'A'
aS'A'
aS'A'
aS'C'
aS'G'
aS'T'
aS'A'
aS'T'
aS'C'
aS'T'
aS'C'
aS'C'
aS'T'
aS'A'
aS'A'
aS'T'
aS'T'
aS'T'
aS'G'
aS'A'
aS'G'
aS'G'
aS'C'
aS'T'
aS'C'
aS'A'
aS'G'
aS'A'
aS'T'
aS'G'
aS'A'
aS'A'
aS'A'
aS'T'
aS'G'
aS'C'
aS'A'
aS'T'
aS'C'
aS'A'
aS'G'
aS'G'
aS'T'
aS'C'
aS'C'
aS'T'
aS'T'
aS'T'
aS'G'
aS'G'
aS'G'
aS'G'
aS'C'
aS'A'
aS'T'
aS'A'
aS'G'
aS'A'
aS'T'
aS'C'
aS'A'
aS'G'
aS'A'
aS'A'
aS'G'
aS'A'
aS'C'
aS'T'
aS'A'
aS'C'
aS'A'
aS'A'
aS'A'
aS'A'
aS'A'
aS'T'
aS'G'
aS'A'
aS'A'
aS'G'
aS'C'
aS'T'
aS'G'
aS'C'
aS'T'
aS'C'
aS'T'
aS'G'
aS'A'
aS'A'
aS'A'
aS'T'
aS'C'
aS'T'
aS'C'
aS'C'
aS'T'
aS'T'
aS'T'
aS'A'
aS'G'
aS'C'
aS'C'
aS'A'
aS'T'
aS'C'
aS'A'
aS'C'
aS'C'
aS'C'
aS'C'
aS'A'
aS'A'
aS'C'
aS'C'
aS'C'
aS'C'
aS'C'
aS'C'
aS'A'
aS'A'
aS'A'
aS'A'
aS'T'
aS'T'
aS'A'
aS'G'
aS'T'
aS'T'
aS'T'
aS'G'
aS'T'
aS'G'
aS'T'
aS'T'
aS'A'
aS'C'
aS'T'
aS'T'
aS'A'
aS'T'
aS'G'
aS'G'
aS'A'
aS'A'
aS'G'
aS'A'
aS'T'
aS'A'
aS'G'
aS'T'
aS'T'
aS'T'
aS'T'
aS'C'
aS'T'
aS'C'
aS'C'
aS'T'
aS'T'
aS'T'
aS'T'
aS'A'
aS'C'
aS'T'
aS'T'
aS'C'
aS'A'
aS'C'
aS'T'
aS'T'
aS'C'
aS'A'
aS'A'
aS'A'
aS'A'
aS'G'
aS'C'
aS'T'
aS'T'
aS'T'
aS'T'
aS'T'
aS'A'
aS'C'
aS'T'
aS'C'
aS'A'
aS'A'
aS'A'
aS'G'
aS'A'
aS'G'
aS'T'
aS'A'
aS'T'
aS'A'
aS'T'
aS'G'
aS'T'
aS'T'
aS'C'
aS'C'
aS'C'
aS'T'
aS'C'
aS'C'
aS'A'
aS'G'
aS'G'
aS'T'
aS'C'
aS'A'
aS'G'
aS'C'
aS'T'
aS'G'
aS'C'
aS'C'
aS'C'
aS'C'
aS'C'
aS'A'
aS'A'
aS'A'
aS'C'
aS'C'
aS'C'
aS'C'
aS'C'
aS'T'
aS'C'
aS'C'
aS'T'
aS'T'
aS'A'
aS'C'
aS'G'
aS'C'
aS'T'
aS'T'
aS'T'
aS'G'
aS'T'
aS'C'
aS'A'
aS'C'
aS'A'
aS'C'
aS'A'
aS'A'
aS'A'
aS'A'
aS'A'
aS'G'
aS'T'
aS'G'
aS'T'
aS'C'
aS'T'
aS'C'
aS'T'
aS'G'
aS'C'
aS'C'
aS'T'
aS'T'
aS'G'
aS'A'
aS'G'
aS'T'
aS'C'
aS'A'
aS'T'
aS'C'
aS'T'
aS'A'
aS'T'
aS'T'
aS'C'
aS'A'
aS'A'
aS'G'
aS'C'
aS'A'
aS'C'
aS'T'
aS'T'
aS'A'
aS'C'
aS'A'
aS'G'
aS'C'
aS'T'
aS'C'
aS'T'
aS'G'
aS'G'
aS'C'
aS'C'
aS'A'
aS'C'
aS'A'
aS'A'
aS'C'
aS'A'
aS'G'
aS'G'
aS'G'
aS'C'
aS'A'
aS'T'
aS'T'
aS'T'
aS'T'
aS'A'
aS'C'
aS'A'
aS'G'
aS'G'
aS'T'
aS'G'
aS'C'
aS'G'
aS'A'
aS'A'
aS'T'
aS'G'
aS'A'
aS'C'
aS'A'
aS'G'
aS'T'
aS'A'
aS'G'
aS'C'
aS'A'
aS'T'
aS'T'
aS'A'
aS'T'
aS'G'
aS'A'
aS'G'
aS'T'
aS'A'
aS'G'
aS'T'
aS'G'
aS'T'
aS'G'
aS'G'
aS'A'
aS'A'
aS'T'
aS'T'
aS'C'
aS'A'
aS'G'
aS'G'
aS'T'
aS'A'
aS'G'
aS'T'
aS'A'
aS'A'
aS'A'
aS'T'
aS'A'
aS'T'
aS'G'
aS'A'
aS'A'
aS'A'
aS'C'
aS'T'
aS'A'
aS'G'
aS'G'
aS'G'
aS'T'
aS'T'
aS'T'
aS'G'
aS'A'
aS'A'
aS'A'
aS'T'
aS'T'
aS'G'
aS'A'
aS'T'
aS'A'
aS'A'
aS'T'
aS'G'
aS'C'
aS'T'
aS'T'
aS'T'
aS'C'
aS'A'
aS'C'
aS'A'
aS'A'
aS'C'
aS'A'
aS'T'
aS'T'
aS'T'
aS'G'
aS'C'
aS'A'
aS'G'
aS'A'
aS'T'
aS'G'
aS'T'
aS'T'
aS'T'
aS'T'
aS'A'
aS'G'
aS'A'
aS'A'
aS'G'
aS'G'
aS'A'
aS'A'
aS'A'
aS'A'
aS'A'
aS'A'
aS'G'
aS'T'
aS'T'
aS'C'
aS'C'
aS'T'
aS'T'
aS'C'
aS'C'
aS'T'
aS'A'
aS'A'
aS'A'
aS'A'
aS'T'
aS'A'
aS'A'
aS'T'
aS'T'
aS'T'
aS'C'
aS'T'
aS'C'
aS'T'
aS'A'
aS'C'
aS'A'
aS'A'
aS'T'
aS'T'
aS'G'
aS'G'
aS'A'
aS'A'
aS'G'
aS'A'
aS'T'
aS'T'
aS'G'
aS'G'
aS'A'
aS'A'
aS'G'
aS'A'
aS'T'
aS'T'
aS'C'
aS'A'
aS'G'
aS'C'
aS'T'
aS'A'
aS'G'
aS'T'
aS'T'
aS'A'
aS'G'
aS'G'
aS'A'
aS'G'
aS'C'
aS'C'
aS'C'
aS'A'
aS'C'
aS'C'
aS'T'
aS'T'
aS'T'
aS'T'
aS'T'
aS'T'
aS'C'
aS'C'
aS'T'
aS'A'
aS'A'
aS'T'
aS'C'
aS'T'
aS'G'
aS'T'
aS'G'
aS'T'
aS'G'
aS'T'
aS'G'
aS'C'
aS'C'
aS'C'
aS'T'
aS'G'
aS'T'
aS'A'
aS'A'
aS'C'
aS'C'
aS'T'
aS'G'
aS'A'
aS'C'
aS'T'
aS'G'
aS'G'
aS'T'
aS'T'
aS'A'
aS'A'
aS'C'
aS'A'
aS'G'
aS'C'
aS'A'
aS'G'
aS'T'
aS'C'
aS'C'
aS'T'
aS'T'
aS'T'
aS'G'
aS'T'
aS'A'
aS'A'
aS'A'
aS'C'
aS'A'
aS'G'
aS'T'
aS'G'
aS'T'
aS'T'
aS'T'
aS'T'
aS'A'
aS'A'
aS'A'
aS'C'
aS'T'
aS'C'
aS'T'
aS'C'
aS'C'
aS'T'
aS'A'
aS'G'
aS'T'
aS'C'
aS'A'
aS'A'
aS'T'
aS'A'
aS'T'
aS'C'
aS'C'
aS'A'
aS'C'
aS'C'
aS'C'
aS'C'
aS'A'
aS'T'
aS'G'
aS'C'
aS'A'
aS'A'
aS'T'
aS'T'
aS'T'
aS'A'
aS'T'
aS'C'
aS'A'
aS'A'
aS'G'
aS'G'
aS'A'
aS'A'
aS'G'
aS'A'
aS'A'
aS'A'
aS'T'
aS'G'
aS'G'
aS'T'
aS'T'
aS'C'
aS'A'
aS'G'
aS'A'
aS'A'
aS'A'
aS'A'
aS'T'
aS'A'
aS'T'
aS'T'
aS'T'
aS'T'
aS'C'
aS'A'
aS'G'
aS'C'
aS'C'
aS'T'
aS'A'
aS'C'
aS'A'
aS'G'
aS'T'
aS'T'
aS'A'
aS'T'
aS'G'
aS'T'
aS'T'
aS'C'
aS'A'
aS'G'
aS'T'
aS'C'
aS'A'
aS'C'
aS'A'
aS'C'
aS'A'
aS'C'
aS'A'
aS'C'
aS'A'
aS'T'
aS'A'
aS'C'
aS'A'
aS'A'
aS'A'
aS'A'
aS'T'
aS'G'
aS'T'
aS'T'
aS'C'
aS'C'
aS'T'
aS'T'
aS'T'
aS'T'
aS'G'
aS'C'
aS'T'
aS'T'
aS'T'
aS'T'
aS'A'
aS'A'
aS'A'
aS'G'
aS'T'
aS'A'
aS'A'
aS'T'
aS'T'
aS'T'
aS'T'
aS'T'
aS'G'
aS'A'
aS'C'
aS'T'
aS'C'
aS'C'
aS'C'
aS'A'
aS'G'
aS'A'
aS'T'
aS'C'
aS'A'
aS'G'
aS'T'
aS'C'
aS'A'
aS'G'
aS'A'
aS'G'
aS'C'
aS'C'
aS'C'
aS'C'
aS'T'
aS'A'
aS'C'
aS'A'
aS'G'
aS'C'
aS'A'
aS'T'
aS'T'
aS'G'
aS'T'
aS'T'
aS'A'
aS'A'
aS'G'
aS'A'
aS'A'
aS'A'
aS'G'
aS'T'
aS'A'
aS'T'
aS'T'
aS'T'
aS'G'
aS'A'
aS'T'
aS'T'
aS'T'
aS'T'
aS'T'
aS'G'
aS'T'
aS'C'
aS'T'
aS'C'
aS'A'
aS'A'
aS'T'
aS'G'
aS'A'
aS'A'
aS'A'
aS'A'
aS'T'
aS'A'
aS'A'
aS'A'
aS'A'
aS'C'
aS'T'
aS'A'
aS'T'
aS'A'
aS'T'
aS'T'
aS'C'
aS'A'
aS'T'
aS'T'
aS'T'
aS'C'
aS'C'
aS'A'
aS'C'
aS'T'
aS'C'
aS'T'
aS'A'
aS'T'
aS'T'
aS'A'
aS'T'
aS'G'
aS'C'
aS'T'
aS'C'
aS'T'
aS'C'
aS'A'
aS'A'
aS'A'
aS'T'
aS'A'
aS'C'
aS'C'
aS'C'
aS'C'
aS'T'
aS'A'
aS'A'
aS'G'
aS'C'
aS'A'
aS'T'
aS'C'
aS'T'
aS'A'
aS'T'
aS'A'
aS'C'
aS'T'
aS'A'
aS'G'
aS'C'
aS'C'
aS'T'
aS'G'
aS'G'
aS'T'
aS'A'
aS'T'
aS'G'
aS'G'
aS'G'
aS'T'
aS'A'
aS'T'
aS'G'
aS'A'
aS'A'
aS'A'
aS'G'
aS'A'
aS'T'
aS'A'
aS'C'
aS'A'
aS'A'
aS'A'
aS'G'
aS'A'
aS'T'
aS'A'
aS'A'
aS'A'
aS'T'
aS'A'
aS'A'
aS'A'
aS'A'
aS'C'
aS'A'
aS'T'
aS'A'
aS'G'
aS'T'
aS'C'
aS'C'
aS'C'
aS'T'
aS'G'
aS'A'
aS'T'
aS'T'
aS'C'
aS'T'
aS'A'
aS'A'
aS'G'
aS'A'
aS'A'
aS'A'
aS'T'
aS'T'
aS'C'
aS'A'
aS'C'
aS'A'
aS'A'
aS'T'
aS'T'
aS'T'
aS'A'
aS'G'
aS'C'
aS'A'
aS'A'
aS'A'
aS'G'
aS'G'
aS'A'
aS'A'
aS'A'
aS'T'
aS'G'
aS'G'
aS'A'
aS'C'
aS'T'
aS'C'
aS'A'
aS'T'
aS'A'
aS'G'
aS'A'
aS'T'
aS'G'
aS'C'
aS'T'
aS'A'
aS'A'
aS'C'
aS'C'
aS'T'
aS'T'
aS'A'
aS'A'
aS'A'
aS'A'
aS'C'
aS'A'
aS'A'
aS'C'
aS'G'
aS'T'
aS'G'
aS'A'
aS'C'
assss.