c__builtin__
set
p1
((lp2
S'TXNRD2'
p3
aS'CTF1'
p4
aS'RAF1'
p5
aS'DES'
p6
aS'EGFR'
p7
aS'NTRK1'
p8
aS'PLCG2'
p9
aS'IKBKAP'
p10
aS'TTN'
p11
aS'TRPV4'
p12
aS'MYBPC3'
p13
aS'BAP1'
p14
aS'MPZ'
p15
atRp16
.