(dp1
I1
(dp2
S'exon list'
p3
(lp4
I1
aI2
aI3
aI4
aI5
aI6
aI7
aI8
aI9
aI10
aI11
aI12
aI13
aI14
aI15
aI16
aI17
aI18
aI19
aI20
aI21
aI22
aI23
aI24
aI25
aI26
aI27
aI28
aI29
aI30
aI31
aI32
aI33
aI34
aI35
aI36
aI37
aI38
aI39
aI40
aI41
aI42
aI43
aI44
aI45
aI46
aI47
asS'variants'
p5
(dp6
I1
(dp7
S'position'
p8
I5001
sS'transcript'
p9
S'NM_015074.3'
p10
sS'new base'
p11
S'C'
sS'hgvs'
p12
S'c.-21622T>C'
p13
ssI2
(dp14
g8
I26642
sg9
g10
sg11
S'C'
sg12
S'c.A20C'
p15
ssI3
(dp16
g8
I50572
sg9
g10
sg11
S'G'
sg12
S'c.T138G'
p17
ssI4
(dp18
g8
I52834
sg9
g10
sg11
S'A'
sg12
S'c.T231A'
p19
ssI5
(dp20
g8
I56223
sg9
g10
sg11
S'T'
sg12
S'c.A388T'
p21
ssI6
(dp22
g8
I61766
sg9
g10
sg11
S'C'
sg12
S'c.T522C'
p23
ssI7
(dp24
g8
I62489
sg9
g10
sg11
S'A'
sg12
S'c.C652A'
p25
ssI8
(dp26
g8
I65830
sg9
g10
sg11
S'T'
sg12
S'c.G755T'
p27
ssI9
(dp28
g8
I66570
sg9
g10
sg11
S'A'
sg12
S'c.G834A'
p29
ssI10
(dp30
g8
I69790
sg9
g10
sg11
S'G'
sg12
S'c.A933G'
p31
ssI11
(dp32
g8
I70641
sg9
g10
sg11
S'A'
sg12
S'c.G967A'
p33
ssI12
(dp34
g8
I72404
sg9
g10
sg11
S'A'
sg12
S'c.C1144A'
p35
ssI13
(dp36
g8
I76784
sg9
g10
sg11
S'C'
sg12
S'c.T1253C'
p37
ssI14
(dp38
g8
I85404
sg9
g10
sg11
S'G'
sg12
S'c.A1325G'
p39
ssI15
(dp40
g8
I86351
sg9
g10
sg11
S'G'
sg12
S'c.T1387G'
p41
ssI16
(dp42
g8
I89398
sg9
g10
sg11
S'G'
sg12
S'c.C1471G'
p43
ssI17
(dp44
g8
I90040
sg9
g10
sg11
S'C'
sg12
S'c.A1619C'
p45
ssI18
(dp46
g8
I90899
sg9
g10
sg11
S'T'
sg12
S'c.G1663T'
p47
ssI19
(dp48
g8
I91327
sg9
g10
sg11
S'C'
sg12
S'c.T1860C'
p49
ssI20
(dp50
g8
I91469
sg9
g10
sg11
S'G'
sg12
S'c.C1906G'
p51
ssI21
(dp52
g8
I114371
sg9
g10
sg11
S'T'
sg12
S'c.A2012T'
p53
ssI22
(dp54
g8
I116143
sg9
g10
sg11
S'T'
sg12
S'c.A2212T'
p55
ssI23
(dp56
g8
I118240
sg9
g10
sg11
S'A'
sg12
S'c.T2283A'
p57
ssI24
(dp58
g8
I119104
sg9
g10
sg11
S'G'
sg12
S'c.T2452G'
p59
ssI25
(dp60
g8
I120419
sg9
g10
sg11
S'G'
sg12
S'c.A2552G'
p61
ssI26
(dp62
g8
I128820
sg9
g10
sg11
S'C'
sg12
S'c.T2793C'
p63
ssI27
(dp64
g8
I131011
sg9
g10
sg11
S'G'
sg12
S'c.C2966G'
p65
ssI28
(dp66
g8
I131373
sg9
g10
sg11
S'A'
sg12
S'c.C2997A'
p67
ssI29
(dp68
g8
I131699
sg9
g10
sg11
S'C'
sg12
S'c.G3156C'
p69
ssI30
(dp70
g8
I134138
sg9
g10
sg11
S'A'
sg12
S'c.T3360A'
p71
ssI31
(dp72
g8
I136357
sg9
g10
sg11
S'A'
sg12
S'c.T3389A'
p73
ssI32
(dp74
g8
I137562
sg9
g10
sg11
S'G'
sg12
S'c.C3531G'
p75
ssI33
(dp76
g8
I140222
sg9
g10
sg11
S'C'
sg12
S'c.A3634C'
p77
ssI34
(dp78
g8
I142083
sg9
g10
sg11
S'T'
sg12
S'c.G3688T'
p79
ssI35
(dp80
g8
I142958
sg9
g10
sg11
S'C'
sg12
S'c.A3742C'
p81
ssI36
(dp82
g8
I146969
sg9
g10
sg11
S'A'
sg12
S'c.G3856A'
p83
ssI37
(dp84
g8
I155245
sg9
g10
sg11
S'T'
sg12
S'c.G3940T'
p85
ssI38
(dp86
g8
I156013
sg9
g10
sg11
S'T'
sg12
S'c.A4060T'
p87
ssI39
(dp88
g8
I157610
sg9
g10
sg11
S'T'
sg12
S'c.A4200T'
p89
ssI40
(dp90
g8
I159463
sg9
g10
sg11
S'T'
sg12
S'c.C4298T'
p91
ssI41
(dp92
g8
I159749
sg9
g10
sg11
S'T'
sg12
S'c.A4421T'
p93
ssI42
(dp94
g8
I162805
sg9
g10
sg11
S'C'
sg12
S'c.G4659C'
p95
ssI43
(dp96
g8
I165516
sg9
g10
sg11
S'T'
sg12
S'c.C4768T'
p97
ssI44
(dp98
g8
I168633
sg9
g10
sg11
S'T'
sg12
S'c.C4832T'
p99
ssI45
(dp100
g8
I169255
sg9
g10
sg11
S'A'
sg12
S'c.G5066A'
p101
ssI46
(dp102
g8
I169566
sg9
g10
sg11
S'G'
sg12
S'c.T5169G'
p103
ssI47
(dp104
g8
I172968
sg9
g10
sg11
S'C'
sg12
S'c.*2087A>C'
p105
sssS'exons'
p106
(dp107
I1
(dp108
S'start'
p109
I5001
sS'length'
p110
I172
sS'padded length'
p111
I472
sS'end'
p112
I5173
sS'padded seq'
p113
(lp114
S'G'
aS'C'
aS'C'
aS'G'
aS'A'
aS'A'
aS'G'
aS'C'
aS'G'
aS'G'
aS'G'
aS'G'
aS'C'
aS'A'
aS'G'
aS'T'
aS'G'
aS'T'
aS'G'
aS'A'
aS'C'
aS'G'
aS'G'
aS'C'
aS'A'
aS'G'
aS'C'
aS'G'
aS'G'
aS'T'
aS'C'
aS'C'
aS'T'
aS'G'
aS'G'
aS'G'
aS'A'
aS'G'
aS'G'
aS'C'
aS'G'
aS'C'
aS'C'
aS'C'
aS'G'
aS'C'
aS'G'
aS'C'
aS'G'
aS'C'
aS'G'
aS'T'
aS'C'
aS'G'
aS'G'
aS'A'
aS'G'
aS'C'
aS'A'
aS'G'
aS'C'
aS'T'
aS'C'
aS'C'
aS'C'
aS'C'
aS'G'
aS'T'
aS'C'
aS'C'
aS'T'
aS'C'
aS'C'
aS'G'
aS'C'
aS'A'
aS'G'
aS'C'
aS'C'
aS'G'
aS'T'
aS'C'
aS'A'
aS'C'
aS'C'
aS'G'
aS'C'
aS'C'
aS'G'
aS'G'
aS'C'
aS'C'
aS'G'
aS'T'
aS'C'
aS'G'
aS'C'
aS'C'
aS'G'
aS'C'
aS'G'
aS'C'
aS'C'
aS'C'
aS'T'
aS'G'
aS'G'
aS'C'
aS'C'
aS'T'
aS'C'
aS'C'
aS'C'
aS'G'
aS'C'
aS'A'
aS'C'
aS'T'
aS'C'
aS'G'
aS'C'
aS'G'
aS'C'
aS'A'
aS'C'
aS'T'
aS'C'
aS'C'
aS'T'
aS'G'
aS'T'
aS'C'
aS'C'
aS'G'
aS'C'
aS'C'
aS'G'
aS'C'
aS'C'
aS'C'
aS'A'
aS'C'
aS'C'
aS'G'
aS'C'
aS'C'
aS'C'
aS'A'
aS'C'
aS'C'
aS'C'
aS'C'
aS'C'
aS'C'
aS'A'
aS'C'
aS'C'
aS'T'
aS'C'
aS'G'
aS'A'
aS'T'
aS'G'
aS'C'
aS'G'
aS'G'
aS'T'
aS'G'
aS'C'
aS'C'
aS'G'
aS'G'
aS'G'
aS'C'
aS'T'
aS'G'
aS'C'
aS'T'
aS'G'
aS'C'
aS'G'
aS'T'
aS'G'
aS'A'
aS'T'
aS'G'
aS'G'
aS'G'
aS'G'
aS'C'
aS'T'
aS'G'
aS'C'
aS'G'
aS'G'
aS'A'
aS'G'
aS'C'
aS'G'
aS'G'
aS'C'
aS'G'
aS'C'
aS'C'
aS'C'
aS'T'
aS'G'
aS'C'
aS'G'
aS'G'
aS'C'
aS'T'
aS'C'
aS'G'
aS'C'
aS'G'
aS'G'
aS'C'
aS'G'
aS'G'
aS'C'
aS'C'
aS'G'
aS'C'
aS'T'
aS'G'
aS'C'
aS'T'
aS'C'
aS'G'
aS'C'
aS'G'
aS'C'
aS'T'
aS'G'
aS'A'
aS'G'
aS'G'
aS'T'
aS'G'
aS'C'
aS'G'
aS'T'
aS'C'
aS'G'
aS'G'
aS'T'
aS'G'
aS'C'
aS'C'
aS'C'
aS'G'
aS'G'
aS'C'
aS'C'
aS'C'
aS'C'
aS'C'
aS'C'
aS'G'
aS'C'
aS'G'
aS'C'
aS'C'
aS'C'
aS'C'
aS'C'
aS'G'
aS'C'
aS'G'
aS'C'
aS'G'
aS'C'
aS'C'
aS'G'
aS'C'
aS'G'
aS'G'
aS'C'
aS'T'
aS'C'
aS'C'
aS'T'
aS'G'
aS'T'
aS'T'
aS'G'
aS'A'
aS'C'
aS'C'
aS'C'
aS'G'
aS'G'
aS'T'
aS'C'
aS'C'
aS'G'
aS'C'
aS'C'
aS'C'
aS'G'
aS'T'
aS'C'
aS'G'
aS'G'
aS'T'
aS'C'
aS'T'
aS'G'
aS'C'
aS'A'
aS'G'
aS'C'
aS'G'
aS'C'
aS'G'
aS'G'
aS'C'
aS'T'
aS'G'
aS'A'
aS'G'
aS'G'
aS'T'
aS'A'
aS'A'
aS'G'
aS'G'
aS'C'
aS'G'
aS'G'
aS'C'
aS'G'
aS'G'
aS'G'
aS'G'
aS'C'
aS'T'
aS'G'
aS'G'
aS'C'
aS'C'
aS'G'
aS'C'
aS'G'
aS'G'
aS'T'
aS'T'
aS'G'
aS'G'
aS'C'
aS'G'
aS'C'
aS'C'
aS'G'
aS'C'
aS'G'
aS'G'
aS'T'
aS'C'
aS'G'
aS'C'
aS'G'
aS'G'
aS'G'
aS'G'
aS'T'
aS'T'
aS'G'
aS'G'
aS'G'
aS'G'
aS'A'
aS'G'
aS'G'
aS'G'
aS'G'
aS'G'
aS'C'
aS'C'
aS'G'
aS'C'
aS'T'
aS'T'
aS'C'
aS'C'
aS'G'
aS'C'
aS'G'
aS'G'
aS'G'
aS'G'
aS'A'
aS'G'
aS'G'
aS'A'
aS'G'
aS'C'
aS'G'
aS'G'
aS'C'
aS'C'
aS'G'
aS'G'
aS'G'
aS'C'
aS'C'
aS'G'
aS'G'
aS'G'
aS'G'
aS'T'
aS'C'
aS'C'
aS'G'
aS'G'
aS'G'
aS'C'
aS'G'
aS'G'
aS'G'
aS'G'
aS'T'
aS'C'
aS'T'
aS'G'
aS'A'
aS'G'
aS'G'
aS'G'
aS'G'
aS'A'
aS'G'
aS'G'
aS'T'
aS'A'
aS'G'
aS'C'
aS'G'
aS'C'
aS'G'
aS'G'
aS'G'
aS'A'
aS'C'
aS'G'
aS'G'
aS'G'
aS'C'
aS'G'
aS'C'
aS'C'
aS'G'
aS'G'
aS'G'
aS'T'
aS'G'
aS'C'
aS'G'
aS'G'
aS'G'
aS'A'
aS'G'
aS'C'
aS'C'
aS'T'
aS'C'
aS'G'
aS'C'
aS'C'
aS'C'
aS'T'
assI2
(dp115
g109
I26545
sg110
I184
sg111
I484
sg112
I26729
sg113
(lp116
S'A'
aS'A'
aS'C'
aS'A'
aS'A'
aS'A'
aS'A'
aS'G'
aS'A'
aS'T'
aS'T'
aS'T'
aS'G'
aS'C'
aS'A'
aS'C'
aS'G'
aS'G'
aS'G'
aS'A'
aS'G'
aS'A'
aS'A'
aS'A'
aS'A'
aS'G'
aS'G'
aS'G'
aS'A'
aS'T'
aS'G'
aS'A'
aS'A'
aS'T'
aS'A'
aS'T'
aS'C'
aS'G'
aS'T'
aS'T'
aS'T'
aS'T'
aS'T'
aS'A'
aS'T'
aS'A'
aS'A'
aS'A'
aS'T'
aS'G'
aS'G'
aS'A'
aS'A'
aS'A'
aS'C'
aS'A'
aS'G'
aS'A'
aS'A'
aS'A'
aS'T'
aS'A'
aS'G'
aS'A'
aS'A'
aS'C'
aS'T'
aS'A'
aS'A'
aS'G'
aS'A'
aS'T'
aS'A'
aS'G'
aS'T'
aS'A'
aS'G'
aS'T'
aS'T'
aS'C'
aS'T'
aS'T'
aS'A'
aS'T'
aS'G'
aS'C'
aS'T'
aS'T'
aS'A'
aS'A'
aS'G'
aS'T'
aS'T'
aS'A'
aS'G'
aS'C'
aS'C'
aS'A'
aS'G'
aS'T'
aS'T'
aS'C'
aS'T'
aS'T'
aS'G'
aS'C'
aS'T'
aS'T'
aS'T'
aS'A'
aS'A'
aS'T'
aS'T'
aS'C'
aS'T'
aS'G'
aS'A'
aS'C'
aS'T'
aS'A'
aS'C'
aS'C'
aS'T'
aS'C'
aS'A'
aS'T'
aS'A'
aS'T'
aS'G'
aS'G'
aS'A'
aS'A'
aS'T'
aS'T'
aS'T'
aS'T'
aS'T'
aS'T'
aS'T'
aS'C'
aS'T'
aS'T'
aS'T'
aS'T'
aS'C'
aS'A'
aS'A'
aS'A'
aS'G'
aS'G'
aS'A'
aS'A'
aS'A'
aS'C'
aS'T'
aS'T'
aS'G'
aS'G'
aS'C'
aS'T'
aS'G'
aS'T'
aS'A'
aS'A'
aS'C'
aS'T'
aS'T'
aS'C'
aS'A'
aS'A'
aS'A'
aS'A'
aS'G'
aS'A'
aS'A'
aS'G'
aS'A'
aS'T'
aS'T'
aS'T'
aS'G'
aS'A'
aS'T'
aS'T'
aS'C'
aS'T'
aS'T'
aS'T'
aS'A'
aS'T'
aS'T'
aS'T'
aS'C'
aS'T'
aS'G'
aS'G'
aS'A'
aS'C'
aS'T'
aS'G'
aS'C'
aS'A'
aS'T'
aS'A'
aS'T'
aS'A'
aS'T'
aS'A'
aS'T'
aS'A'
aS'T'
aS'A'
aS'T'
aS'A'
aS'A'
aS'C'
aS'A'
aS'A'
aS'G'
aS'G'
aS'C'
aS'C'
aS'A'
aS'T'
aS'T'
aS'A'
aS'A'
aS'A'
aS'A'
aS'T'
aS'G'
aS'T'
aS'C'
aS'G'
aS'G'
aS'G'
aS'A'
aS'G'
aS'C'
aS'C'
aS'T'
aS'C'
aS'A'
aS'G'
aS'T'
aS'G'
aS'A'
aS'C'
aS'G'
aS'G'
aS'T'
aS'G'
aS'G'
aS'C'
aS'T'
aS'G'
aS'T'
aS'C'
aS'C'
aS'G'
aS'G'
aS'G'
aS'T'
aS'A'
aS'A'
aS'G'
aS'G'
aS'C'
aS'C'
aS'C'
aS'T'
aS'T'
aS'C'
aS'A'
aS'A'
aS'T'
aS'T'
aS'C'
aS'T'
aS'C'
aS'G'
aS'A'
aS'G'
aS'A'
aS'G'
aS'A'
aS'C'
aS'C'
aS'A'
aS'G'
aS'C'
aS'A'
aS'A'
aS'G'
aS'G'
aS'A'
aS'A'
aS'T'
aS'C'
aS'C'
aS'A'
aS'A'
aS'A'
aS'T'
aS'G'
aS'C'
aS'A'
aS'T'
aS'C'
aS'A'
aS'T'
aS'T'
aS'C'
aS'A'
aS'G'
aS'A'
aS'T'
aS'G'
aS'C'
aS'A'
aS'A'
aS'G'
aS'G'
aS'C'
aS'A'
aS'A'
aS'C'
aS'T'
aS'C'
aS'G'
aS'A'
aS'C'
aS'C'
aS'A'
aS'G'
aS'T'
aS'G'
aS'A'
aS'G'
aS'T'
aS'A'
aS'C'
aS'A'
aS'T'
aS'G'
aS'T'
aS'T'
aS'G'
aS'T'
aS'T'
aS'T'
aS'T'
aS'C'
aS'T'
aS'C'
aS'T'
aS'C'
aS'A'
aS'G'
aS'C'
aS'T'
aS'G'
aS'T'
aS'G'
aS'T'
aS'A'
aS'T'
aS'C'
aS'T'
aS'T'
aS'A'
aS'C'
aS'T'
aS'T'
aS'T'
aS'C'
aS'C'
aS'T'
aS'T'
aS'T'
aS'C'
aS'T'
aS'T'
aS'C'
aS'T'
aS'T'
aS'T'
aS'C'
aS'C'
aS'C'
aS'T'
aS'G'
aS'T'
aS'C'
aS'G'
aS'T'
aS'C'
aS'T'
aS'T'
aS'G'
aS'C'
aS'T'
aS'G'
aS'T'
aS'G'
aS'T'
aS'T'
aS'C'
aS'A'
aS'G'
aS'A'
aS'A'
aS'T'
aS'A'
aS'G'
aS'A'
aS'T'
aS'G'
aS'A'
aS'A'
aS'C'
aS'A'
aS'T'
aS'C'
aS'T'
aS'G'
aS'T'
aS'A'
aS'T'
aS'G'
aS'T'
aS'T'
aS'A'
aS'A'
aS'C'
aS'A'
aS'C'
aS'T'
aS'T'
aS'T'
aS'G'
aS'A'
aS'A'
aS'C'
aS'T'
aS'T'
aS'T'
aS'G'
aS'C'
aS'T'
aS'A'
aS'T'
aS'T'
aS'C'
aS'T'
aS'G'
aS'A'
aS'A'
aS'T'
aS'G'
aS'A'
aS'T'
aS'C'
aS'C'
aS'A'
aS'T'
aS'T'
aS'G'
aS'A'
aS'A'
aS'T'
aS'G'
aS'T'
aS'A'
aS'T'
aS'T'
aS'C'
aS'C'
aS'C'
aS'C'
aS'T'
aS'C'
aS'T'
aS'G'
assI3
(dp117
g109
I50542
sg110
I76
sg111
I376
sg112
I50618
sg113
(lp118
S'T'
aS'G'
aS'A'
aS'G'
aS'C'
aS'C'
aS'C'
aS'A'
aS'G'
aS'C'
aS'C'
aS'T'
aS'A'
aS'T'
aS'T'
aS'A'
aS'A'
aS'T'
aS'T'
aS'T'
aS'T'
aS'T'
aS'G'
aS'A'
aS'T'
aS'T'
aS'G'
aS'C'
aS'C'
aS'C'
aS'T'
aS'A'
aS'T'
aS'T'
aS'C'
aS'A'
aS'G'
aS'A'
aS'T'
aS'T'
aS'T'
aS'A'
aS'G'
aS'T'
aS'G'
aS'G'
aS'T'
aS'A'
aS'T'
aS'G'
aS'A'
aS'A'
aS'T'
aS'T'
aS'T'
aS'A'
aS'C'
aS'T'
aS'G'
aS'A'
aS'T'
aS'T'
aS'G'
aS'G'
aS'G'
aS'A'
aS'T'
aS'G'
aS'T'
aS'T'
aS'T'
aS'T'
aS'G'
aS'A'
aS'A'
aS'C'
aS'A'
aS'C'
aS'A'
aS'C'
aS'A'
aS'G'
aS'A'
aS'A'
aS'T'
aS'A'
aS'A'
aS'C'
aS'A'
aS'T'
aS'G'
aS'T'
aS'T'
aS'T'
aS'A'
aS'A'
aS'C'
aS'T'
aS'A'
aS'A'
aS'A'
aS'G'
aS'A'
aS'A'
aS'C'
aS'T'
aS'T'
aS'G'
aS'T'
aS'A'
aS'A'
aS'T'
aS'T'
aS'G'
aS'A'
aS'G'
aS'T'
aS'G'
aS'A'
aS'C'
aS'T'
aS'T'
aS'A'
aS'T'
aS'A'
aS'A'
aS'A'
aS'A'
aS'T'
aS'G'
aS'A'
aS'A'
aS'A'
aS'C'
aS'A'
aS'T'
aS'T'
aS'T'
aS'T'
aS'T'
aS'A'
aS'T'
aS'C'
aS'T'
aS'T'
aS'C'
aS'T'
aS'A'
aS'G'
aS'G'
aS'T'
aS'A'
aS'T'
aS'T'
aS'A'
aS'T'
aS'T'
aS'A'
aS'A'
aS'C'
aS'C'
aS'C'
aS'A'
aS'A'
aS'A'
aS'G'
aS'A'
aS'A'
aS'T'
aS'C'
aS'C'
aS'A'
aS'A'
aS'A'
aS'G'
aS'G'
aS'A'
aS'A'
aS'G'
aS'C'
aS'G'
aS'C'
aS'C'
aS'A'
aS'A'
aS'A'
aS'G'
aS'T'
aS'C'
aS'C'
aS'T'
aS'T'
aS'C'
aS'A'
aS'G'
aS'C'
aS'T'
aS'T'
aS'C'
aS'G'
aS'A'
aS'C'
aS'T'
aS'A'
aS'T'
aS'T'
aS'C'
aS'C'
aS'T'
aS'A'
aS'C'
aS'T'
aS'G'
aS'G'
aS'T'
aS'C'
aS'T'
aS'C'
aS'A'
aS'T'
aS'A'
aS'C'
aS'C'
aS'T'
aS'C'
aS'A'
aS'G'
aS'T'
aS'G'
aS'A'
aS'G'
aS'T'
aS'A'
aS'C'
aS'C'
aS'C'
aS'T'
aS'C'
aS'A'
aS'T'
aS'G'
aS'C'
aS'C'
aS'A'
aS'C'
aS'A'
aS'G'
aS'C'
aS'A'
aS'C'
aS'T'
aS'G'
aS'C'
aS'C'
aS'A'
aS'G'
aS'C'
aS'T'
aS'C'
aS'C'
aS'T'
aS'G'
aS'C'
aS'C'
aS'T'
aS'C'
aS'C'
aS'T'
aS'T'
aS'T'
aS'C'
aS'C'
aS'T'
aS'C'
aS'T'
aS'T'
aS'T'
aS'C'
aS'C'
aS'T'
aS'T'
aS'G'
aS'C'
aS'C'
aS'G'
aS'A'
aS'T'
aS'T'
aS'T'
aS'G'
aS'T'
aS'C'
aS'T'
aS'T'
aS'T'
aS'T'
aS'C'
aS'T'
aS'C'
aS'T'
aS'T'
aS'A'
aS'G'
aS'C'
aS'T'
aS'G'
aS'A'
aS'G'
aS'C'
aS'A'
aS'G'
aS'A'
aS'T'
aS'C'
aS'C'
aS'A'
aS'A'
aS'G'
aS'T'
aS'T'
aS'T'
aS'T'
aS'G'
aS'C'
aS'T'
aS'T'
aS'C'
aS'T'
aS'T'
aS'A'
aS'A'
aS'C'
aS'T'
aS'G'
aS'T'
aS'T'
aS'G'
aS'T'
aS'G'
aS'T'
aS'A'
aS'G'
aS'C'
aS'A'
aS'T'
aS'G'
aS'A'
aS'G'
aS'T'
aS'T'
aS'C'
aS'A'
aS'T'
aS'T'
aS'C'
aS'T'
aS'T'
aS'T'
aS'G'
aS'A'
aS'T'
aS'A'
aS'C'
aS'A'
aS'G'
aS'T'
aS'G'
aS'A'
aS'T'
aS'A'
aS'T'
aS'A'
aS'G'
aS'T'
aS'A'
aS'T'
assI4
(dp119
g109
I52788
sg110
I179
sg111
I479
sg112
I52967
sg113
(lp120
S'G'
aS'T'
aS'A'
aS'A'
aS'A'
aS'C'
aS'T'
aS'T'
aS'G'
aS'T'
aS'G'
aS'T'
aS'A'
aS'T'
aS'A'
aS'G'
aS'G'
aS'A'
aS'G'
aS'G'
aS'C'
aS'T'
aS'T'
aS'A'
aS'A'
aS'A'
aS'A'
aS'A'
aS'A'
aS'T'
aS'G'
aS'T'
aS'G'
aS'T'
aS'A'
aS'G'
aS'G'
aS'G'
aS'A'
aS'A'
aS'T'
aS'T'
aS'T'
aS'T'
aS'A'
aS'G'
aS'G'
aS'T'
aS'G'
aS'A'
aS'C'
aS'T'
aS'G'
aS'T'
aS'T'
aS'C'
aS'T'
aS'G'
aS'A'
aS'T'
aS'T'
aS'C'
aS'C'
aS'A'
aS'G'
aS'A'
aS'C'
aS'A'
aS'C'
aS'T'
aS'T'
aS'T'
aS'T'
aS'A'
aS'T'
aS'T'
aS'A'
aS'T'
aS'G'
aS'G'
aS'A'
aS'A'
aS'G'
aS'C'
aS'A'
aS'A'
aS'T'
aS'C'
aS'A'
aS'A'
aS'G'
aS'T'
aS'A'
aS'A'
aS'G'
aS'T'
aS'A'
aS'T'
aS'A'
aS'G'
aS'G'
aS'A'
aS'A'
aS'G'
aS'A'
aS'A'
aS'A'
aS'T'
aS'A'
aS'T'
aS'T'
aS'A'
aS'A'
aS'T'
aS'A'
aS'A'
aS'A'
aS'A'
aS'G'
aS'G'
aS'T'
aS'T'
aS'A'
aS'T'
aS'T'
aS'T'
aS'A'
aS'T'
aS'T'
aS'T'
aS'C'
aS'T'
aS'C'
aS'C'
aS'T'
aS'T'
aS'T'
aS'T'
aS'A'
aS'C'
aS'T'
aS'C'
aS'T'
aS'T'
aS'T'
aS'A'
aS'C'
aS'A'
aS'G'
aS'C'
aS'C'
aS'C'
aS'G'
aS'A'
aS'A'
aS'G'
aS'A'
aS'T'
aS'C'
aS'C'
aS'C'
aS'T'
aS'G'
aS'T'
aS'T'
aS'T'
aS'T'
aS'G'
aS'C'
aS'A'
aS'T'
aS'C'
aS'T'
aS'C'
aS'A'
aS'A'
aS'A'
aS'A'
aS'C'
aS'C'
aS'G'
aS'T'
aS'G'
aS'T'
aS'G'
aS'T'
aS'A'
aS'C'
aS'A'
aS'A'
aS'T'
aS'G'
aS'A'
aS'C'
aS'A'
aS'T'
aS'A'
aS'G'
aS'G'
aS'C'
aS'A'
aS'A'
aS'G'
aS'G'
aS'A'
aS'A'
aS'A'
aS'T'
aS'G'
aS'C'
aS'T'
aS'C'
aS'T'
aS'T'
aS'A'
aS'C'
aS'A'
aS'C'
aS'G'
aS'C'
aS'C'
aS'T'
aS'T'
aS'T'
aS'G'
aS'A'
aS'G'
aS'G'
aS'G'
aS'A'
aS'T'
aS'A'
aS'T'
aS'A'
aS'A'
aS'T'
aS'G'
aS'T'
aS'C'
aS'T'
aS'G'
aS'T'
aS'A'
aS'T'
aS'T'
aS'T'
aS'T'
aS'T'
aS'G'
aS'C'
aS'C'
aS'T'
aS'A'
aS'T'
aS'G'
aS'G'
aS'G'
aS'C'
aS'A'
aS'G'
aS'A'
aS'C'
aS'T'
aS'G'
aS'G'
aS'T'
aS'G'
aS'C'
aS'T'
aS'G'
aS'G'
aS'A'
aS'A'
aS'A'
aS'A'
aS'T'
aS'C'
aS'T'
aS'T'
aS'A'
aS'T'
aS'A'
aS'C'
aS'A'
aS'A'
aS'T'
aS'G'
aS'A'
aS'T'
aS'G'
aS'G'
aS'G'
aS'T'
aS'A'
aS'A'
aS'A'
aS'C'
aS'A'
aS'A'
aS'G'
aS'A'
aS'A'
aS'G'
aS'A'
aS'A'
aS'A'
aS'G'
aS'C'
aS'C'
aS'A'
aS'G'
aS'G'
aS'C'
aS'T'
aS'G'
aS'G'
aS'C'
aS'A'
aS'T'
aS'C'
aS'A'
aS'T'
aS'T'
aS'C'
aS'C'
aS'A'
aS'C'
aS'A'
aS'G'
aS'G'
aS'T'
aS'G'
aS'A'
aS'A'
aS'A'
aS'A'
aS'A'
aS'C'
aS'A'
aS'A'
aS'A'
aS'A'
aS'C'
aS'A'
aS'A'
aS'A'
aS'A'
aS'C'
aS'A'
aS'A'
aS'A'
aS'A'
aS'A'
aS'T'
aS'C'
aS'T'
aS'T'
aS'C'
aS'T'
aS'C'
aS'T'
aS'T'
aS'C'
aS'A'
aS'T'
aS'T'
aS'A'
aS'T'
aS'T'
aS'A'
aS'G'
aS'T'
aS'G'
aS'T'
aS'T'
aS'A'
aS'G'
aS'T'
aS'C'
aS'T'
aS'T'
aS'A'
aS'A'
aS'A'
aS'T'
aS'T'
aS'G'
aS'C'
aS'T'
aS'T'
aS'T'
aS'A'
aS'A'
aS'C'
aS'A'
aS'G'
aS'T'
aS'T'
aS'A'
aS'T'
aS'T'
aS'T'
aS'T'
aS'T'
aS'A'
aS'T'
aS'T'
aS'T'
aS'G'
aS'G'
aS'C'
aS'G'
aS'A'
aS'A'
aS'C'
aS'A'
aS'T'
aS'T'
aS'T'
aS'A'
aS'T'
aS'G'
aS'C'
aS'G'
aS'G'
aS'G'
aS'G'
aS'A'
aS'T'
aS'T'
aS'G'
aS'T'
aS'T'
aS'T'
aS'T'
aS'A'
aS'T'
aS'G'
aS'T'
aS'C'
aS'A'
aS'G'
aS'G'
aS'C'
aS'A'
aS'C'
aS'A'
aS'A'
aS'A'
aS'G'
aS'A'
aS'T'
aS'G'
aS'A'
aS'A'
aS'C'
aS'A'
aS'A'
aS'C'
aS'C'
aS'C'
aS'A'
aS'T'
aS'T'
aS'A'
aS'T'
aS'T'
aS'T'
aS'T'
aS'C'
aS'C'
aS'C'
aS'T'
aS'C'
aS'A'
aS'G'
aS'A'
aS'G'
aS'G'
assI5
(dp121
g109
I56200
sg110
I65
sg111
I365
sg112
I56265
sg113
(lp122
S'A'
aS'A'
aS'A'
aS'G'
aS'C'
aS'A'
aS'T'
aS'T'
aS'A'
aS'A'
aS'T'
aS'C'
aS'G'
aS'T'
aS'A'
aS'T'
aS'C'
aS'T'
aS'T'
aS'G'
aS'A'
aS'T'
aS'G'
aS'T'
aS'T'
aS'T'
aS'A'
aS'T'
aS'G'
aS'A'
aS'C'
aS'A'
aS'T'
aS'A'
aS'A'
aS'T'
aS'A'
aS'T'
aS'A'
aS'T'
aS'T'
aS'T'
aS'T'
aS'G'
aS'A'
aS'G'
aS'A'
aS'T'
aS'G'
aS'G'
aS'A'
aS'G'
aS'C'
aS'A'
aS'A'
aS'G'
aS'A'
aS'A'
aS'A'
aS'G'
aS'G'
aS'A'
aS'C'
aS'G'
aS'T'
aS'C'
aS'T'
aS'G'
aS'G'
aS'C'
aS'T'
aS'A'
aS'A'
aS'T'
aS'T'
aS'C'
aS'A'
aS'T'
aS'T'
aS'G'
aS'A'
aS'G'
aS'C'
aS'A'
aS'C'
aS'G'
aS'C'
aS'G'
aS'T'
aS'G'
aS'G'
aS'A'
aS'T'
aS'G'
aS'A'
aS'C'
aS'T'
aS'T'
aS'A'
aS'G'
aS'T'
aS'A'
aS'C'
aS'T'
aS'C'
aS'C'
aS'T'
aS'C'
aS'T'
aS'C'
aS'A'
aS'T'
aS'T'
aS'T'
aS'G'
aS'T'
aS'G'
aS'C'
aS'T'
aS'C'
aS'T'
aS'T'
aS'C'
aS'A'
aS'T'
aS'G'
aS'C'
aS'C'
aS'T'
aS'C'
aS'T'
aS'C'
aS'T'
aS'C'
aS'A'
aS'T'
aS'T'
aS'C'
aS'T'
aS'A'
aS'C'
aS'T'
aS'T'
aS'C'
aS'C'
aS'C'
aS'T'
aS'A'
aS'G'
aS'T'
aS'T'
aS'A'
aS'T'
aS'G'
aS'T'
aS'G'
aS'A'
aS'A'
aS'G'
aS'A'
aS'A'
aS'C'
aS'T'
aS'T'
aS'T'
aS'T'
aS'T'
aS'G'
aS'A'
aS'G'
aS'A'
aS'A'
aS'A'
aS'T'
aS'T'
aS'C'
aS'A'
aS'A'
aS'T'
aS'G'
aS'A'
aS'C'
aS'A'
aS'A'
aS'C'
aS'T'
aS'G'
aS'T'
aS'A'
aS'A'
aS'T'
aS'G'
aS'A'
aS'A'
aS'G'
aS'A'
aS'A'
aS'A'
aS'T'
aS'G'
aS'T'
aS'C'
aS'T'
aS'T'
aS'A'
aS'C'
aS'T'
aS'C'
aS'T'
aS'G'
aS'T'
aS'A'
aS'G'
aS'A'
aS'G'
aS'G'
aS'T'
aS'G'
aS'A'
aS'G'
aS'T'
aS'A'
aS'C'
aS'A'
aS'G'
aS'C'
aS'C'
aS'G'
aS'T'
aS'G'
aS'A'
aS'G'
aS'T'
aS'T'
aS'G'
aS'A'
aS'C'
aS'A'
aS'C'
aS'C'
aS'G'
aS'T'
aS'A'
aS'A'
aS'G'
aS'C'
aS'C'
aS'C'
aS'T'
aS'T'
aS'G'
aS'T'
aS'T'
aS'T'
aS'T'
aS'C'
aS'C'
aS'A'
aS'T'
aS'T'
aS'C'
aS'T'
aS'C'
aS'T'
aS'C'
aS'A'
aS'A'
aS'G'
aS'C'
aS'A'
aS'T'
aS'C'
aS'A'
aS'C'
aS'T'
aS'T'
aS'A'
aS'A'
aS'A'
aS'T'
aS'G'
aS'G'
aS'C'
aS'T'
aS'C'
aS'C'
aS'A'
aS'A'
aS'A'
aS'T'
aS'T'
aS'A'
aS'T'
aS'G'
aS'A'
aS'C'
aS'T'
aS'G'
aS'T'
aS'G'
aS'G'
aS'T'
aS'A'
aS'C'
aS'A'
aS'C'
aS'A'
aS'T'
aS'C'
aS'A'
aS'C'
aS'T'
aS'T'
aS'C'
aS'A'
aS'C'
aS'C'
aS'A'
aS'T'
aS'T'
aS'C'
aS'C'
aS'T'
aS'T'
aS'C'
aS'A'
aS'T'
aS'T'
aS'T'
aS'T'
aS'T'
aS'G'
aS'T'
aS'C'
aS'C'
aS'T'
aS'T'
aS'T'
aS'C'
aS'A'
aS'G'
aS'G'
aS'C'
aS'T'
aS'A'
aS'T'
aS'T'
aS'T'
aS'C'
aS'T'
aS'G'
aS'G'
aS'G'
aS'T'
aS'T'
aS'T'
aS'T'
aS'G'
aS'G'
aS'G'
aS'T'
aS'A'
aS'T'
aS'A'
aS'A'
assI6
(dp123
g109
I61675
sg110
I178
sg111
I478
sg112
I61853
sg113
(lp124
S'C'
aS'T'
aS'G'
aS'G'
aS'T'
aS'C'
aS'T'
aS'C'
aS'G'
aS'A'
aS'A'
aS'C'
aS'T'
aS'C'
aS'G'
aS'T'
aS'A'
aS'G'
aS'T'
aS'T'
aS'C'
aS'G'
aS'A'
aS'G'
aS'T'
aS'G'
aS'A'
aS'T'
aS'C'
aS'T'
aS'C'
aS'A'
aS'A'
aS'G'
aS'T'
aS'G'
aS'A'
aS'T'
aS'C'
aS'C'
aS'G'
aS'C'
aS'C'
aS'C'
aS'T'
aS'C'
aS'C'
aS'T'
aS'T'
aS'G'
aS'G'
aS'C'
aS'C'
aS'T'
aS'C'
aS'C'
aS'C'
aS'A'
aS'A'
aS'A'
aS'G'
aS'T'
aS'G'
aS'C'
aS'T'
aS'G'
aS'G'
aS'G'
aS'A'
aS'T'
aS'T'
aS'A'
aS'C'
aS'A'
aS'G'
aS'G'
aS'C'
aS'G'
aS'T'
aS'G'
aS'A'
aS'G'
aS'C'
aS'C'
aS'A'
aS'C'
aS'C'
aS'G'
aS'C'
aS'G'
aS'C'
aS'C'
aS'C'
aS'G'
aS'G'
aS'C'
aS'T'
aS'T'
aS'C'
aS'T'
aS'G'
aS'T'
aS'A'
aS'T'
aS'G'
aS'T'
aS'G'
aS'A'
aS'T'
aS'T'
aS'T'
aS'C'
aS'T'
aS'T'
aS'T'
aS'T'
aS'T'
aS'C'
aS'A'
aS'C'
aS'T'
aS'C'
aS'T'
aS'A'
aS'A'
aS'T'
aS'T'
aS'C'
aS'A'
aS'C'
aS'T'
aS'T'
aS'T'
aS'A'
aS'C'
aS'T'
aS'A'
aS'A'
aS'T'
aS'T'
aS'T'
aS'G'
aS'T'
aS'T'
aS'C'
aS'A'
aS'T'
aS'A'
aS'G'
aS'G'
aS'T'
aS'G'
aS'A'
aS'G'
aS'C'
aS'T'
aS'A'
aS'C'
aS'A'
aS'T'
aS'G'
aS'G'
aS'A'
aS'A'
aS'A'
aS'T'
aS'T'
aS'T'
aS'A'
aS'C'
aS'T'
aS'G'
aS'T'
aS'G'
aS'A'
aS'A'
aS'A'
aS'G'
aS'A'
aS'G'
aS'T'
aS'A'
aS'C'
aS'G'
aS'A'
aS'G'
aS'A'
aS'T'
aS'T'
aS'T'
aS'G'
aS'C'
aS'T'
aS'G'
aS'A'
aS'A'
aS'T'
aS'C'
aS'C'
aS'A'
aS'A'
aS'A'
aS'A'
aS'A'
aS'A'
aS'C'
aS'A'
aS'A'
aS'G'
aS'G'
aS'G'
aS'T'
aS'A'
aS'A'
aS'T'
aS'T'
aS'T'
aS'G'
aS'C'
aS'G'
aS'T'
aS'G'
aS'T'
aS'G'
aS'C'
aS'G'
aS'T'
aS'G'
aS'A'
aS'A'
aS'C'
aS'A'
aS'C'
aS'C'
aS'C'
aS'A'
aS'C'
aS'T'
aS'T'
aS'C'
aS'T'
aS'C'
aS'G'
aS'G'
aS'A'
aS'C'
aS'C'
aS'C'
aS'T'
aS'A'
aS'T'
aS'G'
aS'T'
aS'G'
aS'G'
aS'A'
aS'G'
aS'G'
aS'A'
aS'T'
aS'C'
aS'T'
aS'G'
aS'T'
aS'C'
aS'C'
aS'A'
aS'A'
aS'G'
aS'T'
aS'T'
aS'G'
aS'G'
aS'C'
aS'A'
aS'G'
aS'T'
aS'T'
aS'A'
aS'C'
aS'T'
aS'T'
aS'C'
aS'C'
aS'T'
aS'A'
aS'C'
aS'A'
aS'C'
aS'A'
aS'G'
aS'A'
aS'C'
aS'A'
aS'T'
aS'T'
aS'G'
aS'C'
aS'T'
aS'G'
aS'A'
aS'C'
aS'C'
aS'T'
aS'C'
aS'A'
aS'T'
aS'G'
aS'G'
aS'A'
aS'T'
aS'G'
aS'C'
aS'T'
aS'G'
aS'G'
aS'G'
aS'A'
aS'A'
aS'C'
aS'A'
aS'A'
aS'A'
aS'G'
aS'C'
aS'C'
aS'A'
aS'G'
aS'G'
aS'T'
aS'A'
aS'T'
aS'G'
aS'G'
aS'T'
aS'A'
aS'G'
aS'G'
aS'A'
aS'A'
aS'A'
aS'T'
aS'A'
aS'G'
aS'A'
aS'G'
aS'T'
aS'A'
aS'A'
aS'T'
aS'G'
aS'A'
aS'C'
aS'T'
aS'G'
aS'A'
aS'G'
aS'G'
aS'T'
aS'C'
aS'T'
aS'T'
aS'T'
aS'G'
aS'G'
aS'C'
aS'A'
aS'C'
aS'C'
aS'T'
aS'T'
aS'T'
aS'T'
aS'G'
aS'A'
aS'G'
aS'G'
aS'T'
aS'C'
aS'C'
aS'T'
aS'T'
aS'T'
aS'T'
aS'T'
aS'T'
aS'C'
aS'C'
aS'C'
aS'A'
aS'G'
aS'T'
aS'T'
aS'A'
aS'A'
aS'G'
aS'G'
aS'G'
aS'T'
aS'T'
aS'T'
aS'G'
aS'A'
aS'G'
aS'G'
aS'C'
aS'C'
aS'A'
aS'C'
aS'A'
aS'T'
aS'T'
aS'T'
aS'A'
aS'T'
aS'A'
aS'G'
aS'C'
aS'T'
aS'A'
aS'T'
aS'G'
aS'A'
aS'A'
aS'A'
aS'G'
aS'T'
aS'T'
aS'G'
aS'C'
aS'T'
aS'T'
aS'T'
aS'A'
aS'A'
aS'T'
aS'T'
aS'G'
aS'T'
aS'G'
aS'G'
aS'A'
aS'G'
aS'T'
aS'C'
aS'C'
aS'T'
aS'C'
aS'T'
aS'G'
aS'A'
aS'T'
aS'C'
aS'C'
aS'T'
aS'T'
aS'T'
aS'G'
aS'A'
aS'C'
aS'T'
aS'G'
aS'T'
aS'G'
aS'C'
aS'T'
aS'G'
aS'T'
aS'A'
aS'A'
aS'C'
aS'A'
aS'G'
aS'T'
aS'G'
aS'A'
aS'G'
aS'G'
assI7
(dp125
g109
I62447
sg110
I111
sg111
I411
sg112
I62558
sg113
(lp126
S'A'
aS'G'
aS'C'
aS'A'
aS'A'
aS'T'
aS'T'
aS'G'
aS'T'
aS'G'
aS'T'
aS'A'
aS'A'
aS'G'
aS'T'
aS'G'
aS'A'
aS'C'
aS'A'
aS'A'
aS'T'
aS'C'
aS'T'
aS'T'
aS'G'
aS'C'
aS'A'
aS'A'
aS'T'
aS'C'
aS'T'
aS'G'
aS'T'
aS'G'
aS'A'
aS'A'
aS'T'
aS'A'
aS'A'
aS'G'
aS'T'
aS'T'
aS'T'
aS'A'
aS'A'
aS'G'
aS'A'
aS'C'
aS'T'
aS'A'
aS'T'
aS'T'
aS'G'
aS'C'
aS'T'
aS'T'
aS'G'
aS'T'
aS'G'
aS'A'
aS'T'
aS'T'
aS'G'
aS'T'
aS'T'
aS'A'
aS'T'
aS'G'
aS'C'
aS'T'
aS'T'
aS'A'
aS'T'
aS'A'
aS'A'
aS'T'
aS'G'
aS'T'
aS'G'
aS'G'
aS'A'
aS'G'
aS'C'
aS'C'
aS'T'
aS'G'
aS'C'
aS'T'
aS'G'
aS'T'
aS'C'
aS'C'
aS'A'
aS'T'
aS'T'
aS'T'
aS'C'
aS'A'
aS'A'
aS'C'
aS'T'
aS'C'
aS'T'
aS'C'
aS'A'
aS'T'
aS'C'
aS'T'
aS'A'
aS'A'
aS'G'
aS'A'
aS'A'
aS'T'
aS'T'
aS'C'
aS'C'
aS'C'
aS'T'
aS'T'
aS'G'
aS'T'
aS'C'
aS'A'
aS'C'
aS'G'
aS'T'
aS'G'
aS'G'
aS'T'
aS'C'
aS'A'
aS'C'
aS'C'
aS'T'
aS'T'
aS'T'
aS'A'
aS'T'
aS'G'
aS'T'
aS'T'
aS'T'
aS'A'
aS'T'
aS'T'
aS'T'
aS'A'
aS'G'
aS'G'
aS'A'
aS'C'
aS'A'
aS'G'
aS'T'
aS'G'
aS'G'
aS'C'
aS'A'
aS'G'
aS'C'
aS'T'
aS'A'
aS'C'
aS'A'
aS'A'
aS'A'
aS'C'
aS'A'
aS'T'
aS'G'
aS'A'
aS'A'
aS'T'
aS'G'
aS'A'
aS'A'
aS'A'
aS'C'
aS'A'
aS'A'
aS'G'
aS'T'
aS'A'
aS'G'
aS'C'
aS'C'
aS'G'
aS'T'
aS'T'
aS'C'
aS'C'
aS'A'
aS'A'
aS'C'
aS'G'
aS'C'
aS'T'
aS'G'
aS'T'
aS'G'
aS'T'
aS'T'
aS'T'
aS'A'
aS'C'
aS'G'
aS'A'
aS'T'
aS'T'
aS'G'
aS'T'
aS'T'
aS'T'
aS'T'
aS'C'
aS'A'
aS'C'
aS'C'
aS'C'
aS'A'
aS'G'
aS'A'
aS'A'
aS'G'
aS'A'
aS'A'
aS'A'
aS'C'
aS'A'
aS'C'
aS'G'
aS'A'
aS'T'
aS'A'
aS'A'
aS'T'
aS'G'
aS'A'
aS'G'
aS'A'
aS'C'
aS'C'
aS'A'
aS'A'
aS'C'
aS'C'
aS'T'
aS'T'
aS'T'
aS'C'
aS'C'
aS'A'
aS'C'
aS'T'
aS'G'
aS'A'
aS'G'
aS'A'
aS'A'
aS'G'
aS'G'
aS'T'
aS'A'
aS'G'
aS'G'
aS'A'
aS'G'
aS'A'
aS'G'
aS'T'
aS'T'
aS'T'
aS'C'
aS'A'
aS'G'
aS'T'
aS'C'
aS'T'
aS'C'
aS'T'
aS'A'
aS'G'
aS'G'
aS'C'
aS'T'
aS'T'
aS'G'
aS'A'
aS'G'
aS'T'
aS'T'
aS'G'
aS'T'
aS'G'
aS'A'
aS'A'
aS'G'
aS'G'
aS'A'
aS'T'
aS'G'
aS'G'
aS'A'
aS'G'
aS'A'
aS'T'
aS'T'
aS'T'
aS'T'
aS'G'
aS'A'
aS'G'
aS'A'
aS'A'
aS'G'
aS'T'
aS'C'
aS'C'
aS'C'
aS'T'
aS'T'
aS'T'
aS'T'
aS'G'
aS'T'
aS'T'
aS'G'
aS'C'
aS'C'
aS'C'
aS'T'
aS'C'
aS'T'
aS'G'
aS'C'
aS'T'
aS'T'
aS'T'
aS'T'
aS'T'
aS'G'
aS'T'
aS'G'
aS'G'
aS'A'
aS'A'
aS'G'
aS'G'
aS'T'
aS'T'
aS'G'
aS'G'
aS'G'
aS'T'
aS'G'
aS'T'
aS'T'
aS'G'
aS'G'
aS'G'
aS'G'
aS'G'
aS'G'
aS'T'
aS'G'
aS'C'
aS'T'
aS'C'
aS'T'
aS'T'
aS'T'
aS'T'
aS'A'
aS'C'
aS'T'
aS'T'
aS'A'
aS'A'
aS'T'
aS'G'
aS'G'
aS'A'
aS'G'
aS'G'
aS'G'
aS'T'
aS'G'
aS'T'
aS'T'
aS'T'
aS'T'
aS'A'
aS'T'
aS'A'
aS'C'
aS'C'
aS'T'
aS'C'
aS'T'
aS'G'
aS'C'
aS'T'
aS'T'
aS'A'
aS'T'
aS'C'
aS'A'
aS'T'
aS'T'
aS'T'
assI8
(dp127
g109
I65797
sg110
I77
sg111
I377
sg112
I65874
sg113
(lp128
S'G'
aS'T'
aS'C'
aS'T'
aS'T'
aS'G'
aS'A'
aS'T'
aS'C'
aS'T'
aS'T'
aS'T'
aS'T'
aS'T'
aS'G'
aS'T'
aS'G'
aS'C'
aS'C'
aS'A'
aS'T'
aS'A'
aS'T'
aS'T'
aS'T'
aS'A'
aS'A'
aS'A'
aS'A'
aS'G'
aS'C'
aS'T'
aS'C'
aS'T'
aS'A'
aS'A'
aS'T'
aS'A'
aS'C'
aS'T'
aS'T'
aS'T'
aS'T'
aS'A'
aS'G'
aS'T'
aS'T'
aS'T'
aS'T'
aS'T'
aS'T'
aS'C'
aS'C'
aS'A'
aS'T'
aS'A'
aS'C'
aS'C'
aS'T'
aS'T'
aS'A'
aS'A'
aS'T'
aS'C'
aS'T'
aS'T'
aS'T'
aS'T'
aS'A'
aS'A'
aS'A'
aS'A'
aS'A'
aS'G'
aS'C'
aS'A'
aS'T'
aS'T'
aS'C'
aS'T'
aS'G'
aS'C'
aS'C'
aS'T'
aS'C'
aS'T'
aS'A'
aS'A'
aS'A'
aS'T'
aS'A'
aS'T'
aS'T'
aS'T'
aS'C'
aS'C'
aS'T'
aS'G'
aS'C'
aS'T'
aS'T'
aS'C'
aS'T'
aS'A'
aS'T'
aS'C'
aS'T'
aS'T'
aS'G'
aS'C'
aS'T'
aS'T'
aS'A'
aS'T'
aS'T'
aS'T'
aS'T'
aS'T'
aS'G'
aS'A'
aS'A'
aS'T'
aS'T'
aS'G'
aS'C'
aS'C'
aS'C'
aS'C'
aS'C'
aS'A'
aS'T'
aS'G'
aS'T'
aS'T'
aS'A'
aS'T'
aS'T'
aS'G'
aS'T'
aS'T'
aS'C'
aS'T'
aS'T'
aS'T'
aS'A'
aS'T'
aS'C'
aS'A'
aS'G'
aS'G'
aS'T'
aS'C'
aS'A'
aS'G'
aS'T'
aS'A'
aS'A'
aS'A'
aS'A'
aS'T'
aS'C'
aS'A'
aS'G'
aS'C'
aS'T'
aS'T'
aS'G'
aS'G'
aS'T'
aS'G'
aS'G'
aS'A'
aS'T'
aS'C'
aS'T'
aS'A'
aS'G'
aS'C'
aS'A'
aS'G'
aS'G'
aS'A'
aS'A'
aS'T'
aS'T'
aS'G'
aS'A'
aS'A'
aS'C'
aS'G'
aS'A'
aS'G'
aS'C'
aS'T'
aS'G'
aS'A'
aS'T'
aS'T'
aS'C'
aS'A'
aS'A'
aS'C'
aS'T'
aS'G'
aS'G'
aS'T'
aS'G'
aS'C'
aS'C'
aS'A'
aS'A'
aS'A'
aS'G'
aS'G'
aS'G'
aS'A'
aS'C'
aS'T'
aS'C'
aS'G'
aS'A'
aS'T'
aS'T'
aS'A'
aS'A'
aS'A'
aS'G'
aS'G'
aS'T'
aS'A'
aS'T'
aS'T'
aS'T'
aS'A'
aS'T'
aS'T'
aS'T'
aS'T'
aS'A'
aS'G'
aS'C'
aS'A'
aS'A'
aS'A'
aS'T'
aS'A'
aS'A'
aS'A'
aS'T'
aS'G'
aS'G'
aS'C'
aS'C'
aS'T'
aS'G'
aS'A'
aS'T'
aS'C'
aS'A'
aS'A'
aS'T'
aS'A'
aS'A'
aS'A'
aS'T'
aS'G'
aS'G'
aS'C'
aS'C'
aS'A'
aS'C'
aS'T'
aS'A'
aS'C'
aS'C'
aS'T'
aS'G'
aS'T'
aS'T'
aS'T'
aS'T'
aS'T'
aS'G'
aS'T'
aS'A'
aS'A'
aS'A'
aS'T'
aS'A'
aS'A'
aS'A'
aS'A'
aS'T'
aS'T'
aS'T'
aS'T'
aS'A'
aS'T'
aS'T'
aS'G'
aS'A'
aS'A'
aS'A'
aS'C'
aS'A'
aS'C'
aS'A'
aS'G'
aS'C'
aS'T'
aS'A'
aS'C'
aS'A'
aS'T'
aS'A'
aS'C'
aS'A'
aS'T'
aS'T'
aS'T'
aS'G'
aS'T'
aS'T'
aS'T'
aS'A'
aS'T'
aS'G'
aS'T'
aS'A'
aS'T'
aS'T'
aS'G'
aS'T'
aS'C'
aS'T'
aS'A'
aS'T'
aS'G'
aS'G'
aS'C'
aS'T'
aS'G'
aS'C'
aS'T'
aS'T'
aS'T'
aS'T'
aS'G'
aS'C'
aS'A'
aS'C'
aS'T'
aS'A'
aS'C'
aS'A'
aS'A'
aS'T'
aS'G'
aS'G'
aS'C'
aS'A'
aS'G'
aS'T'
aS'G'
aS'T'
aS'T'
aS'G'
aS'T'
aS'G'
aS'A'
aS'C'
aS'A'
aS'G'
aS'A'
aS'G'
aS'A'
aS'C'
assI9
(dp129
g109
I66536
sg110
I65
sg111
I365
sg112
I66601
sg113
(lp130
S'A'
aS'A'
aS'A'
aS'A'
aS'G'
aS'A'
aS'G'
aS'G'
aS'A'
aS'C'
aS'A'
aS'G'
aS'A'
aS'T'
aS'G'
aS'G'
aS'A'
aS'G'
aS'G'
aS'A'
aS'C'
aS'T'
aS'A'
aS'A'
aS'A'
aS'G'
aS'G'
aS'T'
aS'T'
aS'G'
aS'T'
aS'T'
aS'T'
aS'T'
aS'T'
aS'A'
aS'G'
aS'A'
aS'A'
aS'C'
aS'T'
aS'T'
aS'G'
aS'T'
aS'A'
aS'A'
aS'T'
aS'A'
aS'A'
aS'A'
aS'G'
aS'A'
aS'A'
aS'A'
aS'T'
aS'A'
aS'T'
aS'G'
aS'C'
aS'T'
aS'A'
aS'G'
aS'C'
aS'A'
aS'T'
aS'A'
aS'T'
aS'G'
aS'G'
aS'C'
aS'A'
aS'A'
aS'A'
aS'T'
aS'C'
aS'A'
aS'T'
aS'A'
aS'T'
aS'T'
aS'T'
aS'T'
aS'A'
aS'T'
aS'G'
aS'T'
aS'T'
aS'C'
aS'T'
aS'G'
aS'T'
aS'A'
aS'T'
aS'G'
aS'A'
aS'T'
aS'A'
aS'T'
aS'A'
aS'G'
aS'C'
aS'A'
aS'G'
aS'T'
aS'A'
aS'G'
aS'T'
aS'A'
aS'G'
aS'A'
aS'A'
aS'A'
aS'T'
aS'T'
aS'C'
aS'T'
aS'T'
aS'C'
aS'A'
aS'T'
aS'C'
aS'A'
aS'T'
aS'T'
aS'C'
aS'T'
aS'T'
aS'T'
aS'C'
aS'A'
aS'T'
aS'A'
aS'T'
aS'T'
aS'T'
aS'G'
aS'G'
aS'T'
aS'A'
aS'T'
aS'T'
aS'T'
aS'A'
aS'T'
aS'T'
aS'T'
aS'T'
aS'A'
aS'G'
aS'G'
aS'A'
aS'A'
aS'G'
aS'G'
aS'A'
aS'G'
aS'C'
aS'A'
aS'A'
aS'A'
aS'T'
aS'A'
aS'T'
aS'T'
aS'A'
aS'A'
aS'T'
aS'A'
aS'A'
aS'G'
aS'T'
aS'C'
aS'T'
aS'C'
aS'T'
aS'T'
aS'A'
aS'C'
aS'A'
aS'A'
aS'C'
aS'T'
aS'T'
aS'T'
aS'A'
aS'G'
aS'G'
aS'C'
aS'A'
aS'A'
aS'A'
aS'G'
aS'T'
aS'C'
aS'A'
aS'T'
aS'T'
aS'T'
aS'C'
aS'A'
aS'G'
aS'C'
aS'C'
aS'T'
aS'T'
aS'G'
aS'G'
aS'C'
aS'C'
aS'G'
aS'A'
aS'G'
aS'G'
aS'T'
aS'G'
aS'G'
aS'T'
aS'A'
aS'A'
aS'G'
aS'T'
aS'T'
aS'T'
aS'T'
aS'A'
aS'T'
aS'A'
aS'C'
aS'T'
aS'T'
aS'C'
aS'A'
aS'T'
aS'T'
aS'A'
aS'T'
aS'A'
aS'A'
aS'G'
aS'G'
aS'G'
aS'G'
aS'A'
aS'G'
aS'T'
aS'T'
aS'G'
aS'T'
aS'G'
aS'T'
aS'C'
aS'T'
aS'G'
aS'T'
aS'T'
aS'C'
aS'A'
aS'G'
aS'C'
aS'A'
aS'A'
aS'A'
aS'T'
aS'A'
aS'T'
aS'A'
aS'C'
aS'T'
aS'T'
aS'G'
aS'A'
aS'T'
aS'G'
aS'A'
aS'T'
aS'A'
aS'T'
aS'T'
aS'T'
aS'T'
aS'A'
aS'T'
aS'T'
aS'A'
aS'T'
aS'T'
aS'G'
aS'T'
aS'T'
aS'T'
aS'A'
aS'T'
aS'G'
aS'A'
aS'A'
aS'G'
aS'G'
aS'C'
aS'T'
aS'G'
aS'T'
aS'C'
aS'T'
aS'T'
aS'T'
aS'T'
aS'T'
aS'G'
aS'T'
aS'G'
aS'G'
aS'C'
aS'C'
aS'C'
aS'T'
aS'T'
aS'T'
aS'T'
aS'C'
aS'T'
aS'G'
aS'T'
aS'A'
aS'A'
aS'T'
aS'C'
aS'T'
aS'T'
aS'G'
aS'C'
aS'C'
aS'T'
aS'T'
aS'T'
aS'C'
aS'T'
aS'C'
aS'C'
aS'T'
aS'T'
aS'T'
aS'T'
aS'A'
aS'G'
aS'A'
aS'G'
aS'C'
aS'T'
aS'T'
aS'T'
aS'T'
aS'C'
aS'A'
aS'G'
aS'A'
aS'T'
aS'A'
aS'A'
aS'G'
aS'A'
aS'T'
aS'A'
aS'C'
aS'T'
aS'A'
assI10
(dp131
g109
I69723
sg110
I75
sg111
I375
sg112
I69798
sg113
(lp132
S'T'
aS'G'
aS'A'
aS'A'
aS'G'
aS'A'
aS'A'
aS'T'
aS'T'
aS'G'
aS'A'
aS'A'
aS'A'
aS'C'
aS'T'
aS'A'
aS'T'
aS'G'
aS'A'
aS'A'
aS'T'
aS'G'
aS'A'
aS'T'
aS'A'
aS'A'
aS'A'
aS'C'
aS'T'
aS'T'
aS'C'
aS'C'
aS'A'
aS'C'
aS'A'
aS'G'
aS'T'
aS'G'
aS'T'
aS'C'
aS'G'
aS'G'
aS'G'
aS'G'
aS'T'
aS'T'
aS'G'
aS'T'
aS'A'
aS'C'
aS'T'
aS'G'
aS'T'
aS'A'
aS'A'
aS'T'
aS'T'
aS'T'
aS'A'
aS'A'
aS'T'
aS'T'
aS'T'
aS'A'
aS'C'
aS'T'
aS'T'
aS'G'
aS'G'
aS'G'
aS'A'
aS'A'
aS'T'
aS'T'
aS'T'
aS'T'
aS'A'
aS'G'
aS'A'
aS'C'
aS'T'
aS'G'
aS'A'
aS'T'
aS'T'
aS'T'
aS'G'
aS'C'
aS'C'
aS'T'
aS'T'
aS'T'
aS'C'
aS'T'
aS'T'
aS'G'
aS'G'
aS'G'
aS'A'
aS'A'
aS'T'
aS'T'
aS'T'
aS'T'
aS'T'
aS'T'
aS'T'
aS'C'
aS'C'
aS'C'
aS'T'
aS'A'
aS'A'
aS'C'
aS'G'
aS'A'
aS'A'
aS'A'
aS'A'
aS'A'
aS'T'
aS'G'
aS'C'
aS'T'
aS'A'
aS'A'
aS'G'
aS'A'
aS'C'
aS'C'
aS'A'
aS'T'
aS'T'
aS'T'
aS'C'
aS'T'
aS'T'
aS'T'
aS'T'
aS'C'
aS'C'
aS'T'
aS'T'
aS'T'
aS'A'
aS'A'
aS'T'
aS'A'
aS'G'
aS'A'
aS'G'
aS'T'
aS'A'
aS'A'
aS'A'
aS'A'
aS'A'
aS'G'
aS'A'
aS'A'
aS'G'
aS'A'
aS'A'
aS'G'
aS'A'
aS'A'
aS'A'
aS'A'
aS'C'
aS'A'
aS'G'
aS'A'
aS'T'
aS'T'
aS'T'
aS'T'
aS'A'
aS'T'
aS'T'
aS'C'
aS'C'
aS'C'
aS'T'
aS'A'
aS'C'
aS'A'
aS'G'
aS'G'
aS'G'
aS'A'
aS'T'
aS'T'
aS'C'
aS'T'
aS'G'
aS'T'
aS'A'
aS'C'
aS'T'
aS'T'
aS'A'
aS'C'
aS'T'
aS'T'
aS'G'
aS'G'
aS'C'
aS'T'
aS'C'
aS'C'
aS'T'
aS'T'
aS'C'
aS'G'
aS'A'
aS'G'
aS'A'
aS'G'
aS'A'
aS'A'
aS'T'
aS'T'
aS'T'
aS'A'
aS'G'
aS'G'
aS'T'
aS'A'
aS'T'
aS'G'
aS'T'
aS'T'
aS'G'
aS'A'
aS'C'
aS'C'
aS'A'
aS'C'
aS'T'
aS'A'
aS'G'
aS'T'
aS'G'
aS'A'
aS'A'
aS'A'
aS'A'
aS'G'
aS'T'
aS'A'
aS'G'
aS'T'
aS'T'
aS'A'
aS'T'
aS'C'
aS'T'
aS'T'
aS'T'
aS'T'
aS'T'
aS'A'
aS'A'
aS'C'
aS'T'
aS'T'
aS'T'
aS'G'
aS'A'
aS'T'
aS'T'
aS'A'
aS'T'
aS'C'
aS'T'
aS'T'
aS'T'
aS'T'
aS'G'
aS'T'
aS'G'
aS'G'
aS'T'
aS'T'
aS'A'
aS'A'
aS'T'
aS'T'
aS'G'
aS'T'
aS'C'
aS'C'
aS'T'
aS'G'
aS'T'
aS'G'
aS'T'
aS'C'
aS'T'
aS'G'
aS'T'
aS'T'
aS'T'
aS'T'
aS'G'
aS'G'
aS'A'
aS'G'
aS'A'
aS'C'
aS'A'
aS'A'
aS'A'
aS'T'
aS'A'
aS'A'
aS'T'
aS'C'
aS'T'
aS'C'
aS'T'
aS'A'
aS'G'
aS'A'
aS'T'
aS'A'
aS'T'
aS'T'
aS'C'
aS'A'
aS'T'
aS'G'
aS'T'
aS'T'
aS'A'
aS'C'
aS'T'
aS'A'
aS'C'
aS'T'
aS'T'
aS'G'
aS'A'
aS'G'
aS'T'
aS'G'
aS'T'
aS'T'
aS'C'
aS'C'
aS'T'
aS'T'
aS'G'
aS'C'
aS'C'
aS'T'
aS'G'
aS'C'
aS'T'
aS'T'
aS'T'
aS'C'
aS'A'
aS'T'
aS'T'
aS'T'
aS'T'
aS'T'
aS'A'
aS'C'
aS'T'
aS'C'
aS'C'
aS'T'
aS'A'
assI11
(dp133
g109
I70616
sg110
I78
sg111
I378
sg112
I70694
sg113
(lp134
S'A'
aS'G'
aS'A'
aS'C'
aS'T'
aS'C'
aS'C'
aS'C'
aS'T'
aS'C'
aS'T'
aS'C'
aS'A'
aS'A'
aS'A'
aS'A'
aS'A'
aS'A'
aS'A'
aS'A'
aS'A'
aS'A'
aS'T'
aS'A'
aS'A'
aS'A'
aS'A'
aS'G'
aS'A'
aS'A'
aS'A'
aS'G'
aS'A'
aS'A'
aS'A'
aS'T'
aS'T'
aS'T'
aS'G'
aS'A'
aS'C'
aS'A'
aS'T'
aS'T'
aS'A'
aS'C'
aS'A'
aS'T'
aS'T'
aS'A'
aS'A'
aS'A'
aS'T'
aS'C'
aS'T'
aS'T'
aS'A'
aS'G'
aS'G'
aS'A'
aS'T'
aS'C'
aS'T'
aS'G'
aS'A'
aS'G'
aS'A'
aS'T'
aS'T'
aS'A'
aS'C'
aS'A'
aS'A'
aS'T'
aS'A'
aS'T'
aS'C'
aS'A'
aS'G'
aS'A'
aS'T'
aS'T'
aS'T'
aS'G'
aS'A'
aS'C'
aS'A'
aS'C'
aS'A'
aS'T'
aS'T'
aS'C'
aS'C'
aS'A'
aS'T'
aS'A'
aS'A'
aS'A'
aS'A'
aS'T'
aS'T'
aS'T'
aS'T'
aS'T'
aS'C'
aS'T'
aS'T'
aS'C'
aS'T'
aS'A'
aS'A'
aS'A'
aS'A'
aS'T'
aS'G'
aS'A'
aS'G'
aS'T'
aS'G'
aS'T'
aS'G'
aS'A'
aS'T'
aS'T'
aS'T'
aS'G'
aS'A'
aS'T'
aS'A'
aS'C'
aS'T'
aS'C'
aS'A'
aS'T'
aS'G'
aS'A'
aS'T'
aS'T'
aS'A'
aS'A'
aS'T'
aS'C'
aS'T'
aS'T'
aS'T'
aS'T'
aS'T'
aS'A'
aS'G'
aS'G'
aS'T'
aS'G'
aS'G'
aS'C'
aS'A'
aS'A'
aS'T'
aS'T'
aS'C'
aS'T'
aS'C'
aS'G'
aS'G'
aS'A'
aS'C'
aS'T'
aS'G'
aS'C'
aS'A'
aS'A'
aS'T'
aS'G'
aS'G'
aS'T'
aS'T'
aS'A'
aS'C'
aS'T'
aS'G'
aS'C'
aS'T'
aS'C'
aS'T'
aS'G'
aS'A'
aS'G'
aS'C'
aS'C'
aS'C'
aS'C'
aS'G'
aS'C'
aS'G'
aS'G'
aS'A'
aS'T'
aS'A'
aS'T'
aS'C'
aS'A'
aS'A'
aS'C'
aS'T'
aS'A'
aS'C'
aS'G'
aS'A'
aS'T'
aS'G'
aS'A'
aS'G'
aS'A'
aS'C'
aS'T'
aS'T'
aS'T'
aS'G'
aS'A'
aS'G'
aS'C'
aS'A'
aS'C'
aS'T'
aS'C'
aS'T'
aS'G'
aS'A'
aS'G'
aS'G'
aS'T'
aS'A'
aS'C'
aS'T'
aS'T'
aS'T'
aS'C'
aS'T'
aS'T'
aS'T'
aS'T'
aS'G'
aS'A'
aS'T'
aS'C'
aS'T'
aS'C'
aS'A'
aS'G'
aS'T'
aS'A'
aS'A'
aS'C'
aS'A'
aS'A'
aS'C'
aS'A'
aS'T'
aS'A'
aS'G'
aS'A'
aS'C'
aS'C'
aS'A'
aS'C'
aS'A'
aS'T'
aS'T'
aS'G'
aS'C'
aS'C'
aS'A'
aS'T'
aS'C'
aS'A'
aS'G'
aS'A'
aS'A'
aS'G'
aS'C'
aS'C'
aS'A'
aS'T'
aS'T'
aS'T'
aS'T'
aS'G'
aS'T'
aS'G'
aS'A'
aS'T'
aS'A'
aS'C'
aS'C'
aS'A'
aS'T'
aS'G'
aS'G'
aS'A'
aS'T'
aS'G'
aS'T'
aS'T'
aS'T'
aS'T'
aS'T'
aS'A'
aS'T'
aS'G'
aS'C'
aS'T'
aS'A'
aS'T'
aS'C'
aS'T'
aS'G'
aS'G'
aS'G'
aS'T'
aS'A'
aS'G'
aS'T'
aS'T'
aS'A'
aS'T'
aS'T'
aS'T'
aS'A'
aS'T'
aS'G'
aS'T'
aS'A'
aS'A'
aS'A'
aS'T'
aS'A'
aS'A'
aS'T'
aS'G'
aS'T'
aS'T'
aS'C'
aS'C'
aS'T'
aS'T'
aS'T'
aS'C'
aS'C'
aS'T'
aS'C'
aS'T'
aS'C'
aS'A'
aS'T'
aS'A'
aS'A'
aS'C'
aS'A'
aS'G'
aS'G'
aS'G'
aS'A'
aS'A'
aS'A'
aS'A'
aS'C'
aS'T'
aS'T'
aS'A'
aS'G'
aS'G'
aS'G'
aS'A'
aS'A'
aS'A'
aS'A'
aS'A'
aS'G'
aS'T'
assI12
(dp135
g109
I72281
sg110
I142
sg111
I442
sg112
I72423
sg113
(lp136
S'G'
aS'G'
aS'T'
aS'A'
aS'C'
aS'T'
aS'A'
aS'T'
aS'A'
aS'A'
aS'A'
aS'G'
aS'C'
aS'T'
aS'T'
aS'T'
aS'A'
aS'T'
aS'A'
aS'C'
aS'A'
aS'A'
aS'A'
aS'T'
aS'G'
aS'T'
aS'A'
aS'T'
aS'T'
aS'A'
aS'T'
aS'T'
aS'A'
aS'T'
aS'C'
aS'A'
aS'A'
aS'G'
aS'G'
aS'C'
aS'T'
aS'C'
aS'A'
aS'T'
aS'A'
aS'A'
aS'A'
aS'A'
aS'T'
aS'G'
aS'T'
aS'A'
aS'A'
aS'A'
aS'C'
aS'A'
aS'C'
aS'T'
aS'C'
aS'A'
aS'G'
aS'G'
aS'A'
aS'T'
aS'A'
aS'T'
aS'T'
aS'T'
aS'G'
aS'A'
aS'T'
aS'T'
aS'T'
aS'A'
aS'G'
aS'A'
aS'G'
aS'A'
aS'T'
aS'A'
aS'A'
aS'T'
aS'A'
aS'G'
aS'T'
aS'A'
aS'T'
aS'G'
aS'T'
aS'T'
aS'A'
aS'C'
aS'T'
aS'T'
aS'A'
aS'T'
aS'G'
aS'A'
aS'G'
aS'A'
aS'A'
aS'G'
aS'T'
aS'A'
aS'G'
aS'A'
aS'A'
aS'C'
aS'A'
aS'T'
aS'A'
aS'T'
aS'G'
aS'A'
aS'G'
aS'A'
aS'A'
aS'A'
aS'T'
aS'G'
aS'A'
aS'C'
aS'A'
aS'A'
aS'G'
aS'A'
aS'A'
aS'C'
aS'A'
aS'A'
aS'A'
aS'T'
aS'T'
aS'T'
aS'T'
aS'C'
aS'T'
aS'T'
aS'T'
aS'T'
aS'T'
aS'G'
aS'G'
aS'A'
aS'T'
aS'C'
aS'T'
aS'A'
aS'G'
aS'A'
aS'T'
aS'A'
aS'T'
aS'G'
aS'C'
aS'A'
aS'G'
aS'A'
aS'T'
aS'C'
aS'G'
aS'T'
aS'G'
aS'C'
aS'A'
aS'A'
aS'A'
aS'A'
aS'C'
aS'A'
aS'A'
aS'A'
aS'T'
aS'T'
aS'A'
aS'A'
aS'A'
aS'T'
aS'G'
aS'C'
aS'A'
aS'A'
aS'T'
aS'G'
aS'C'
aS'T'
aS'G'
aS'T'
aS'T'
aS'A'
aS'T'
aS'C'
aS'A'
aS'A'
aS'T'
aS'G'
aS'A'
aS'G'
aS'G'
aS'A'
aS'C'
aS'C'
aS'C'
aS'C'
aS'A'
aS'A'
aS'T'
aS'G'
aS'C'
aS'C'
aS'A'
aS'A'
aS'A'
aS'C'
aS'T'
aS'G'
aS'G'
aS'T'
aS'T'
aS'C'
aS'G'
aS'T'
aS'G'
aS'A'
aS'A'
aS'T'
aS'T'
aS'A'
aS'A'
aS'A'
aS'G'
aS'G'
aS'A'
aS'G'
aS'G'
aS'A'
aS'G'
aS'G'
aS'T'
aS'G'
aS'A'
aS'C'
aS'A'
aS'C'
aS'G'
aS'G'
aS'C'
aS'T'
aS'G'
aS'A'
aS'A'
aS'G'
aS'G'
aS'A'
aS'C'
aS'C'
aS'T'
aS'T'
aS'C'
aS'T'
aS'T'
aS'C'
aS'G'
aS'T'
aS'G'
aS'C'
aS'T'
aS'C'
aS'A'
aS'G'
aS'G'
aS'G'
aS'C'
aS'A'
aS'T'
aS'G'
aS'G'
aS'G'
aS'A'
aS'G'
aS'A'
aS'T'
aS'A'
aS'T'
aS'T'
aS'A'
aS'T'
aS'T'
aS'G'
aS'A'
aS'T'
aS'A'
aS'G'
aS'T'
aS'A'
aS'A'
aS'G'
aS'T'
aS'G'
aS'A'
aS'A'
aS'T'
aS'T'
aS'A'
aS'A'
aS'G'
aS'G'
aS'A'
aS'T'
aS'C'
aS'G'
aS'T'
aS'T'
aS'A'
aS'C'
aS'A'
aS'A'
aS'A'
aS'A'
aS'T'
aS'C'
aS'T'
aS'A'
aS'A'
aS'T'
aS'C'
aS'C'
aS'T'
aS'T'
aS'T'
aS'C'
aS'T'
aS'T'
aS'C'
aS'T'
aS'T'
aS'C'
aS'A'
aS'G'
aS'G'
aS'G'
aS'T'
aS'T'
aS'C'
aS'T'
aS'T'
aS'A'
aS'T'
aS'T'
aS'C'
aS'A'
aS'G'
aS'C'
aS'G'
aS'T'
aS'T'
aS'C'
aS'T'
aS'T'
aS'A'
aS'T'
aS'A'
aS'T'
aS'T'
aS'T'
aS'A'
aS'A'
aS'A'
aS'A'
aS'T'
aS'A'
aS'A'
aS'A'
aS'C'
aS'T'
aS'T'
aS'C'
aS'A'
aS'A'
aS'G'
aS'T'
aS'T'
aS'A'
aS'A'
aS'G'
aS'G'
aS'A'
aS'G'
aS'C'
aS'A'
aS'T'
aS'G'
aS'A'
aS'T'
aS'G'
aS'A'
aS'A'
aS'G'
aS'C'
aS'T'
aS'A'
aS'A'
aS'A'
aS'T'
aS'G'
aS'G'
aS'T'
aS'A'
aS'G'
aS'T'
aS'G'
aS'A'
aS'A'
aS'A'
aS'A'
aS'T'
aS'G'
aS'T'
aS'T'
aS'T'
aS'T'
aS'G'
aS'T'
aS'T'
aS'T'
aS'T'
aS'G'
aS'T'
aS'T'
aS'T'
aS'T'
aS'G'
aS'T'
aS'T'
aS'T'
aS'T'
aS'C'
aS'T'
aS'T'
aS'T'
aS'T'
aS'T'
assI13
(dp137
g109
I76695
sg110
I133
sg111
I433
sg112
I76828
sg113
(lp138
S'G'
aS'T'
aS'C'
aS'T'
aS'T'
aS'T'
aS'T'
aS'T'
aS'T'
aS'T'
aS'C'
aS'T'
aS'T'
aS'C'
aS'C'
aS'T'
aS'C'
aS'T'
aS'G'
aS'C'
aS'T'
aS'T'
aS'C'
aS'T'
aS'T'
aS'T'
aS'C'
aS'C'
aS'C'
aS'T'
aS'T'
aS'T'
aS'T'
aS'C'
aS'C'
aS'C'
aS'T'
aS'A'
aS'C'
aS'T'
aS'T'
aS'T'
aS'T'
aS'C'
aS'C'
aS'T'
aS'G'
aS'C'
aS'C'
aS'T'
aS'T'
aS'C'
aS'T'
aS'C'
aS'T'
aS'T'
aS'C'
aS'T'
aS'T'
aS'T'
aS'C'
aS'T'
aS'A'
aS'T'
aS'C'
aS'T'
aS'C'
aS'C'
aS'C'
aS'A'
aS'G'
aS'A'
aS'T'
aS'C'
aS'T'
aS'G'
aS'A'
aS'A'
aS'A'
aS'G'
aS'A'
aS'T'
aS'T'
aS'T'
aS'T'
aS'C'
aS'A'
aS'G'
aS'A'
aS'A'
aS'C'
aS'A'
aS'A'
aS'T'
aS'A'
aS'A'
aS'G'
aS'C'
aS'A'
aS'T'
aS'A'
aS'G'
aS'A'
aS'T'
aS'A'
aS'C'
aS'T'
aS'T'
aS'G'
aS'C'
aS'T'
aS'A'
aS'G'
aS'C'
aS'C'
aS'T'
aS'C'
aS'T'
aS'G'
aS'A'
aS'G'
aS'A'
aS'A'
aS'T'
aS'C'
aS'A'
aS'A'
aS'C'
aS'G'
aS'C'
aS'C'
aS'C'
aS'T'
aS'G'
aS'G'
aS'C'
aS'C'
aS'A'
aS'T'
aS'T'
aS'T'
aS'T'
aS'T'
aS'C'
aS'C'
aS'A'
aS'C'
aS'A'
aS'G'
aS'C'
aS'A'
aS'T'
aS'C'
aS'C'
aS'A'
aS'T'
aS'G'
aS'G'
aS'G'
aS'G'
aS'T'
aS'C'
aS'C'
aS'C'
aS'T'
aS'C'
aS'A'
aS'C'
aS'T'
aS'T'
aS'C'
aS'A'
aS'T'
aS'C'
aS'C'
aS'C'
aS'C'
aS'A'
aS'T'
aS'C'
aS'T'
aS'T'
aS'C'
aS'C'
aS'T'
aS'G'
aS'C'
aS'T'
aS'C'
aS'A'
aS'C'
aS'T'
aS'C'
aS'A'
aS'G'
aS'T'
aS'A'
aS'G'
aS'T'
aS'C'
aS'A'
aS'G'
aS'G'
aS'T'
aS'G'
aS'G'
aS'G'
aS'C'
aS'T'
aS'T'
aS'G'
aS'A'
aS'C'
aS'G'
aS'T'
aS'C'
aS'T'
aS'G'
aS'T'
aS'G'
aS'A'
aS'C'
aS'C'
aS'A'
aS'G'
aS'T'
aS'A'
aS'T'
aS'T'
aS'C'
aS'A'
aS'A'
aS'G'
aS'A'
aS'G'
aS'A'
aS'G'
aS'G'
aS'A'
aS'C'
aS'C'
aS'A'
aS'T'
aS'G'
aS'T'
aS'C'
aS'T'
aS'A'
aS'C'
aS'A'
aS'C'
aS'C'
aS'T'
aS'G'
aS'G'
aS'A'
aS'G'
aS'G'
aS'A'
aS'G'
aS'A'
aS'G'
aS'G'
aS'A'
aS'A'
aS'G'
aS'C'
aS'T'
aS'A'
aS'T'
aS'T'
aS'G'
aS'A'
aS'A'
aS'C'
aS'G'
aS'T'
aS'T'
aS'T'
aS'A'
aS'A'
aS'A'
aS'G'
aS'G'
aS'T'
aS'A'
aS'A'
aS'G'
aS'T'
aS'A'
aS'A'
aS'T'
aS'A'
aS'G'
aS'T'
aS'T'
aS'C'
aS'A'
aS'G'
aS'A'
aS'C'
aS'T'
aS'G'
aS'A'
aS'A'
aS'T'
aS'A'
aS'C'
aS'A'
aS'A'
aS'G'
aS'G'
aS'T'
aS'A'
aS'T'
aS'T'
aS'C'
aS'T'
aS'A'
aS'T'
aS'G'
aS'T'
aS'A'
aS'G'
aS'C'
aS'T'
aS'C'
aS'C'
aS'A'
aS'C'
aS'A'
aS'A'
aS'G'
aS'G'
aS'A'
aS'A'
aS'G'
aS'A'
aS'A'
aS'C'
aS'T'
aS'A'
aS'G'
aS'G'
aS'A'
aS'G'
aS'T'
aS'A'
aS'A'
aS'A'
aS'A'
aS'A'
aS'T'
aS'C'
aS'A'
aS'C'
aS'T'
aS'A'
aS'A'
aS'G'
aS'A'
aS'T'
aS'T'
aS'T'
aS'C'
aS'G'
aS'A'
aS'C'
aS'T'
aS'C'
aS'A'
aS'G'
aS'C'
aS'A'
aS'T'
aS'A'
aS'T'
aS'G'
aS'G'
aS'A'
aS'G'
aS'A'
aS'A'
aS'C'
aS'T'
aS'C'
aS'T'
aS'T'
aS'T'
aS'G'
aS'A'
aS'C'
aS'T'
aS'C'
aS'T'
aS'T'
aS'A'
aS'G'
aS'A'
aS'A'
aS'G'
aS'T'
aS'G'
aS'T'
aS'C'
aS'C'
aS'T'
aS'G'
aS'A'
aS'A'
aS'A'
aS'A'
aS'T'
aS'T'
aS'G'
aS'A'
aS'A'
aS'T'
aS'T'
aS'T'
aS'T'
aS'G'
aS'T'
aS'G'
aS'C'
aS'T'
aS'T'
aS'T'
aS'G'
aS'T'
aS'A'
aS'A'
aS'G'
assI14
(dp139
g109
I85377
sg110
I79
sg111
I379
sg112
I85456
sg113
(lp140
S'C'
aS'T'
aS'T'
aS'A'
aS'T'
aS'C'
aS'T'
aS'T'
aS'A'
aS'T'
aS'G'
aS'T'
aS'A'
aS'T'
aS'T'
aS'A'
aS'A'
aS'T'
aS'A'
aS'A'
aS'A'
aS'A'
aS'G'
aS'A'
aS'A'
aS'A'
aS'A'
aS'A'
aS'T'
aS'C'
aS'T'
aS'C'
aS'T'
aS'T'
aS'T'
aS'A'
aS'C'
aS'A'
aS'T'
aS'T'
aS'T'
aS'A'
aS'A'
aS'T'
aS'T'
aS'C'
aS'T'
aS'G'
aS'G'
aS'C'
aS'C'
aS'T'
aS'G'
aS'T'
aS'A'
aS'T'
aS'C'
aS'C'
aS'T'
aS'C'
aS'A'
aS'A'
aS'A'
aS'G'
aS'G'
aS'G'
aS'C'
aS'A'
aS'T'
aS'G'
aS'A'
aS'T'
aS'T'
aS'T'
aS'G'
aS'C'
aS'T'
aS'T'
aS'C'
aS'T'
aS'T'
aS'G'
aS'C'
aS'T'
aS'T'
aS'T'
aS'T'
aS'C'
aS'T'
aS'A'
aS'G'
aS'C'
aS'A'
aS'T'
aS'G'
aS'G'
aS'T'
aS'A'
aS'T'
aS'G'
aS'T'
aS'T'
aS'A'
aS'A'
aS'A'
aS'T'
aS'T'
aS'A'
aS'T'
aS'A'
aS'A'
aS'G'
aS'A'
aS'C'
aS'T'
aS'C'
aS'T'
aS'T'
aS'T'
aS'G'
aS'C'
aS'C'
aS'T'
aS'C'
aS'T'
aS'T'
aS'T'
aS'A'
aS'A'
aS'C'
aS'T'
aS'G'
aS'T'
aS'G'
aS'C'
aS'G'
aS'C'
aS'T'
aS'T'
aS'C'
aS'C'
aS'T'
aS'T'
aS'C'
aS'C'
aS'T'
aS'T'
aS'A'
aS'G'
aS'G'
aS'A'
aS'A'
aS'T'
aS'C'
aS'A'
aS'G'
aS'A'
aS'G'
aS'A'
aS'A'
aS'G'
aS'A'
aS'T'
aS'C'
aS'A'
aS'T'
aS'T'
aS'G'
aS'C'
aS'T'
aS'G'
aS'A'
aS'G'
aS'T'
aS'T'
aS'G'
aS'A'
aS'G'
aS'T'
aS'G'
aS'A'
aS'A'
aS'A'
aS'C'
aS'T'
aS'T'
aS'G'
aS'G'
aS'G'
aS'A'
aS'A'
aS'G'
aS'A'
aS'G'
aS'A'
aS'A'
aS'G'
aS'C'
aS'T'
aS'T'
aS'C'
aS'G'
aS'T'
aS'A'
aS'A'
aS'A'
aS'A'
aS'C'
aS'A'
aS'G'
aS'A'
aS'G'
aS'G'
aS'C'
aS'C'
aS'A'
aS'T'
aS'C'
aS'A'
aS'G'
aS'A'
aS'A'
aS'T'
aS'G'
aS'G'
aS'A'
aS'G'
aS'A'
aS'G'
aS'G'
aS'T'
aS'C'
aS'A'
aS'G'
aS'G'
aS'A'
aS'G'
aS'G'
aS'T'
aS'T'
aS'A'
aS'A'
aS'A'
aS'A'
aS'T'
aS'C'
aS'T'
aS'G'
aS'G'
aS'A'
aS'A'
aS'A'
aS'T'
aS'G'
aS'T'
aS'T'
aS'T'
aS'C'
aS'T'
aS'A'
aS'A'
aS'G'
aS'T'
aS'T'
aS'T'
aS'T'
aS'C'
aS'T'
aS'A'
aS'G'
aS'G'
aS'G'
aS'G'
aS'A'
aS'T'
aS'G'
aS'T'
aS'G'
aS'G'
aS'A'
aS'T'
aS'T'
aS'A'
aS'C'
aS'T'
aS'T'
aS'T'
aS'A'
aS'T'
aS'C'
aS'G'
aS'T'
aS'A'
aS'A'
aS'G'
aS'A'
aS'A'
aS'A'
aS'A'
aS'G'
aS'A'
aS'T'
aS'A'
aS'A'
aS'A'
aS'A'
aS'T'
aS'A'
aS'T'
aS'A'
aS'A'
aS'A'
aS'T'
aS'T'
aS'A'
aS'A'
aS'A'
aS'A'
aS'T'
aS'C'
aS'A'
aS'A'
aS'A'
aS'G'
aS'A'
aS'G'
aS'T'
aS'C'
aS'T'
aS'G'
aS'C'
aS'C'
aS'C'
aS'T'
aS'T'
aS'C'
aS'T'
aS'A'
aS'A'
aS'A'
aS'A'
aS'C'
aS'A'
aS'C'
aS'A'
aS'A'
aS'A'
aS'A'
aS'C'
aS'G'
aS'A'
aS'A'
aS'A'
aS'C'
aS'C'
aS'A'
aS'A'
aS'A'
aS'A'
aS'A'
aS'A'
aS'A'
aS'T'
aS'G'
aS'G'
aS'A'
aS'C'
aS'A'
aS'G'
aS'G'
aS'G'
aS'A'
aS'T'
aS'T'
aS'T'
aS'A'
aS'T'
aS'G'
aS'G'
assI15
(dp141
g109
I86342
sg110
I75
sg111
I375
sg112
I86417
sg113
(lp142
S'T'
aS'G'
aS'A'
aS'G'
aS'A'
aS'T'
aS'A'
aS'A'
aS'G'
aS'C'
aS'A'
aS'C'
aS'A'
aS'T'
aS'T'
aS'A'
aS'T'
aS'T'
aS'T'
aS'T'
aS'A'
aS'T'
aS'G'
aS'T'
aS'T'
aS'T'
aS'G'
aS'C'
aS'A'
aS'T'
aS'T'
aS'A'
aS'T'
aS'T'
aS'G'
aS'G'
aS'C'
aS'T'
aS'A'
aS'T'
aS'A'
aS'A'
aS'A'
aS'C'
aS'A'
aS'T'
aS'G'
aS'G'
aS'C'
aS'C'
aS'A'
aS'G'
aS'T'
aS'T'
aS'G'
aS'T'
aS'T'
aS'T'
aS'T'
aS'T'
aS'G'
aS'C'
aS'T'
aS'T'
aS'T'
aS'G'
aS'C'
aS'A'
aS'G'
aS'G'
aS'C'
aS'T'
aS'T'
aS'T'
aS'A'
aS'T'
aS'T'
aS'T'
aS'T'
aS'C'
aS'C'
aS'A'
aS'A'
aS'T'
aS'T'
aS'C'
aS'A'
aS'T'
aS'A'
aS'T'
aS'T'
aS'A'
aS'G'
aS'A'
aS'C'
aS'T'
aS'G'
aS'A'
aS'T'
aS'T'
aS'T'
aS'A'
aS'A'
aS'T'
aS'T'
aS'G'
aS'A'
aS'C'
aS'A'
aS'T'
aS'T'
aS'T'
aS'T'
aS'G'
aS'G'
aS'T'
aS'A'
aS'T'
aS'T'
aS'A'
aS'G'
aS'T'
aS'G'
aS'T'
aS'T'
aS'C'
aS'T'
aS'G'
aS'A'
aS'T'
aS'A'
aS'T'
aS'A'
aS'C'
aS'C'
aS'T'
aS'G'
aS'T'
aS'T'
aS'T'
aS'T'
aS'T'
aS'T'
aS'T'
aS'C'
aS'C'
aS'T'
aS'A'
aS'G'
aS'A'
aS'G'
aS'A'
aS'G'
aS'G'
aS'C'
aS'T'
aS'T'
aS'T'
aS'G'
aS'G'
aS'T'
aS'G'
aS'G'
aS'C'
aS'T'
aS'G'
aS'A'
aS'G'
aS'A'
aS'T'
aS'G'
aS'G'
aS'G'
aS'A'
aS'G'
aS'T'
aS'T'
aS'G'
aS'C'
aS'C'
aS'A'
aS'T'
aS'T'
aS'C'
aS'G'
aS'G'
aS'G'
aS'A'
aS'A'
aS'G'
aS'A'
aS'T'
aS'G'
aS'G'
aS'A'
aS'G'
aS'G'
aS'A'
aS'A'
aS'C'
aS'C'
aS'C'
aS'T'
aS'A'
aS'G'
aS'G'
aS'G'
aS'G'
aS'T'
aS'T'
aS'T'
aS'T'
aS'C'
aS'T'
aS'C'
aS'A'
aS'C'
aS'C'
aS'T'
aS'A'
aS'A'
aS'A'
aS'A'
aS'A'
aS'G'
aS'G'
aS'T'
aS'A'
aS'G'
aS'G'
aS'A'
aS'A'
aS'A'
aS'C'
aS'A'
aS'A'
aS'T'
aS'G'
aS'C'
aS'T'
aS'G'
aS'T'
aS'G'
aS'A'
aS'A'
aS'A'
aS'C'
aS'C'
aS'T'
aS'A'
aS'A'
aS'T'
aS'C'
aS'A'
aS'G'
aS'A'
aS'C'
aS'A'
aS'G'
aS'A'
aS'G'
aS'A'
aS'C'
aS'A'
aS'C'
aS'T'
aS'T'
aS'T'
aS'T'
aS'T'
aS'G'
aS'T'
aS'T'
aS'T'
aS'G'
aS'T'
aS'C'
aS'T'
aS'T'
aS'T'
aS'G'
aS'T'
aS'T'
aS'A'
aS'C'
aS'T'
aS'G'
aS'G'
aS'G'
aS'G'
aS'C'
aS'A'
aS'C'
aS'T'
aS'T'
aS'C'
aS'A'
aS'T'
aS'G'
aS'T'
aS'C'
aS'T'
aS'T'
aS'T'
aS'C'
aS'A'
aS'G'
aS'G'
aS'A'
aS'C'
aS'C'
aS'T'
aS'A'
aS'C'
aS'T'
aS'C'
aS'T'
aS'C'
aS'C'
aS'C'
aS'C'
aS'C'
aS'T'
aS'T'
aS'A'
aS'T'
aS'T'
aS'A'
aS'T'
aS'C'
aS'T'
aS'T'
aS'G'
aS'A'
aS'T'
aS'A'
aS'C'
aS'T'
aS'T'
aS'G'
aS'C'
aS'C'
aS'T'
aS'T'
aS'A'
aS'A'
aS'T'
aS'T'
aS'T'
aS'C'
aS'A'
aS'G'
aS'A'
aS'T'
aS'A'
aS'T'
aS'T'
aS'T'
aS'C'
aS'T'
aS'G'
aS'A'
aS'T'
aS'T'
aS'T'
aS'C'
aS'A'
aS'T'
aS'C'
aS'T'
aS'T'
aS'A'
aS'G'
aS'A'
aS'G'
assI16
(dp143
g109
I89381
sg110
I79
sg111
I379
sg112
I89460
sg113
(lp144
S'T'
aS'A'
aS'T'
aS'T'
aS'A'
aS'T'
aS'G'
aS'G'
aS'A'
aS'A'
aS'C'
aS'C'
aS'G'
aS'C'
aS'A'
aS'A'
aS'C'
aS'T'
aS'A'
aS'G'
aS'G'
aS'G'
aS'A'
aS'T'
aS'A'
aS'A'
aS'A'
aS'A'
aS'A'
aS'G'
aS'A'
aS'A'
aS'A'
aS'T'
aS'C'
aS'C'
aS'C'
aS'T'
aS'C'
aS'T'
aS'C'
aS'T'
aS'A'
aS'G'
aS'G'
aS'C'
aS'T'
aS'C'
aS'T'
aS'G'
aS'T'
aS'G'
aS'G'
aS'A'
aS'G'
aS'A'
aS'G'
aS'T'
aS'T'
aS'G'
aS'G'
aS'A'
aS'G'
aS'A'
aS'A'
aS'G'
aS'C'
aS'C'
aS'T'
aS'G'
aS'G'
aS'C'
aS'C'
aS'T'
aS'C'
aS'T'
aS'T'
aS'G'
aS'T'
aS'A'
aS'G'
aS'G'
aS'C'
aS'C'
aS'C'
aS'C'
aS'T'
aS'G'
aS'T'
aS'T'
aS'G'
aS'T'
aS'T'
aS'A'
aS'C'
aS'C'
aS'A'
aS'C'
aS'A'
aS'G'
aS'C'
aS'T'
aS'C'
aS'T'
aS'C'
aS'T'
aS'C'
aS'A'
aS'T'
aS'G'
aS'G'
aS'T'
aS'G'
aS'C'
aS'C'
aS'C'
aS'T'
aS'G'
aS'C'
aS'T'
aS'C'
aS'C'
aS'A'
aS'A'
aS'A'
aS'T'
aS'T'
aS'G'
aS'A'
aS'T'
aS'C'
aS'A'
aS'T'
aS'C'
aS'T'
aS'G'
aS'T'
aS'A'
aS'A'
aS'T'
aS'C'
aS'T'
aS'T'
aS'T'
aS'T'
aS'T'
aS'C'
aS'A'
aS'G'
aS'A'
aS'C'
aS'C'
aS'C'
aS'C'
aS'A'
aS'C'
aS'A'
aS'T'
aS'C'
aS'T'
aS'T'
aS'G'
aS'T'
aS'T'
aS'A'
aS'A'
aS'C'
aS'G'
aS'T'
aS'C'
aS'A'
aS'A'
aS'T'
aS'G'
aS'A'
aS'A'
aS'G'
aS'A'
aS'C'
aS'C'
aS'C'
aS'A'
aS'C'
aS'T'
aS'A'
aS'A'
aS'T'
aS'G'
aS'T'
aS'C'
aS'T'
aS'G'
aS'A'
aS'G'
aS'T'
aS'G'
aS'C'
aS'C'
aS'T'
aS'A'
aS'C'
aS'T'
aS'T'
aS'T'
aS'A'
aS'T'
aS'T'
aS'A'
aS'C'
aS'A'
aS'T'
aS'C'
aS'A'
aS'A'
aS'A'
aS'G'
aS'A'
aS'T'
aS'G'
aS'G'
aS'A'
aS'A'
aS'T'
aS'T'
aS'A'
aS'C'
aS'A'
aS'A'
aS'G'
aS'G'
aS'T'
aS'A'
aS'T'
aS'A'
aS'T'
aS'T'
aS'T'
aS'A'
aS'T'
aS'T'
aS'T'
aS'C'
aS'C'
aS'T'
aS'G'
aS'T'
aS'T'
aS'T'
aS'T'
aS'G'
aS'G'
aS'T'
aS'C'
aS'A'
aS'C'
aS'T'
aS'T'
aS'C'
aS'G'
aS'T'
aS'G'
aS'T'
aS'G'
aS'T'
aS'T'
aS'T'
aS'T'
aS'C'
aS'C'
aS'C'
aS'C'
aS'C'
aS'T'
aS'C'
aS'T'
aS'T'
aS'A'
aS'G'
aS'A'
aS'T'
aS'A'
aS'A'
aS'T'
aS'T'
aS'G'
aS'A'
aS'A'
aS'T'
aS'A'
aS'A'
aS'C'
aS'T'
aS'A'
aS'A'
aS'A'
aS'G'
aS'G'
aS'G'
aS'A'
aS'A'
aS'G'
aS'G'
aS'G'
aS'G'
aS'T'
aS'T'
aS'G'
aS'A'
aS'A'
aS'A'
aS'A'
aS'A'
aS'A'
aS'T'
aS'T'
aS'A'
aS'A'
aS'C'
aS'G'
aS'T'
aS'A'
aS'A'
aS'T'
aS'G'
aS'A'
aS'T'
aS'T'
aS'T'
aS'G'
aS'C'
aS'T'
aS'G'
aS'T'
aS'A'
aS'T'
aS'T'
aS'T'
aS'T'
aS'T'
aS'T'
aS'G'
aS'T'
aS'C'
aS'T'
aS'G'
aS'A'
aS'A'
aS'A'
aS'T'
aS'A'
aS'G'
aS'T'
aS'T'
aS'A'
aS'C'
aS'A'
aS'A'
aS'A'
aS'C'
aS'T'
aS'A'
aS'T'
aS'G'
aS'C'
aS'T'
aS'C'
aS'T'
aS'C'
aS'T'
aS'T'
aS'T'
aS'C'
aS'C'
aS'A'
aS'A'
aS'A'
aS'T'
aS'A'
aS'A'
assI17
(dp145
g109
I89955
sg110
I106
sg111
I406
sg112
I90061
sg113
(lp146
S'G'
aS'A'
aS'T'
aS'A'
aS'G'
aS'A'
aS'A'
aS'T'
aS'T'
aS'C'
aS'A'
aS'T'
aS'A'
aS'G'
aS'T'
aS'T'
aS'G'
aS'A'
aS'A'
aS'A'
aS'G'
aS'C'
aS'T'
aS'T'
aS'C'
aS'T'
aS'G'
aS'A'
aS'T'
aS'G'
aS'C'
aS'A'
aS'A'
aS'C'
aS'A'
aS'A'
aS'G'
aS'G'
aS'C'
aS'A'
aS'A'
aS'T'
aS'A'
aS'C'
aS'C'
aS'T'
aS'T'
aS'T'
aS'T'
aS'T'
aS'T'
aS'G'
aS'T'
aS'A'
aS'C'
aS'G'
aS'T'
aS'A'
aS'C'
aS'C'
aS'A'
aS'A'
aS'A'
aS'G'
aS'G'
aS'A'
aS'T'
aS'A'
aS'T'
aS'T'
aS'C'
aS'T'
aS'T'
aS'T'
aS'G'
aS'G'
aS'A'
aS'A'
aS'T'
aS'A'
aS'A'
aS'A'
aS'G'
aS'A'
aS'G'
aS'G'
aS'T'
aS'T'
aS'C'
aS'A'
aS'T'
aS'T'
aS'G'
aS'T'
aS'T'
aS'T'
aS'G'
aS'T'
aS'A'
aS'G'
aS'T'
aS'G'
aS'C'
aS'T'
aS'T'
aS'T'
aS'C'
aS'T'
aS'G'
aS'T'
aS'G'
aS'T'
aS'C'
aS'T'
aS'G'
aS'A'
aS'A'
aS'T'
aS'T'
aS'T'
aS'C'
aS'C'
aS'C'
aS'T'
aS'G'
aS'G'
aS'G'
aS'A'
aS'A'
aS'A'
aS'C'
aS'A'
aS'C'
aS'T'
aS'T'
aS'T'
aS'C'
aS'T'
aS'C'
aS'T'
aS'T'
aS'G'
aS'T'
aS'G'
aS'T'
aS'T'
aS'C'
aS'A'
aS'G'
aS'G'
aS'G'
aS'T'
aS'T'
aS'G'
aS'G'
aS'C'
aS'C'
aS'A'
aS'A'
aS'G'
aS'C'
aS'A'
aS'G'
aS'A'
aS'T'
aS'G'
aS'C'
aS'T'
aS'G'
aS'A'
aS'G'
aS'C'
aS'G'
aS'G'
aS'C'
aS'G'
aS'C'
aS'C'
aS'A'
aS'G'
aS'G'
aS'A'
aS'C'
aS'A'
aS'T'
aS'A'
aS'G'
aS'T'
aS'G'
aS'C'
aS'T'
aS'G'
aS'A'
aS'G'
aS'C'
aS'G'
aS'G'
aS'G'
aS'G'
aS'C'
aS'T'
aS'C'
aS'A'
aS'C'
aS'A'
aS'T'
aS'T'
aS'A'
aS'A'
aS'A'
aS'G'
aS'A'
aS'A'
aS'G'
aS'A'
aS'G'
aS'C'
aS'A'
aS'T'
aS'T'
aS'G'
aS'T'
aS'A'
aS'T'
aS'C'
aS'T'
aS'T'
aS'C'
aS'C'
aS'G'
aS'G'
aS'A'
aS'G'
aS'T'
aS'G'
aS'C'
aS'G'
aS'A'
aS'G'
aS'A'
aS'A'
aS'G'
aS'C'
aS'A'
aS'A'
aS'C'
aS'A'
aS'G'
aS'C'
aS'G'
aS'G'
aS'G'
aS'G'
aS'A'
aS'A'
aS'G'
aS'G'
aS'T'
aS'G'
aS'A'
aS'G'
aS'C'
aS'A'
aS'T'
aS'T'
aS'C'
aS'C'
aS'T'
aS'G'
aS'G'
aS'C'
aS'T'
aS'G'
aS'G'
aS'A'
aS'G'
aS'C'
aS'T'
aS'T'
aS'C'
aS'A'
aS'G'
aS'C'
aS'A'
aS'A'
aS'C'
aS'A'
aS'A'
aS'C'
aS'A'
aS'T'
aS'T'
aS'T'
aS'T'
aS'C'
aS'A'
aS'T'
aS'T'
aS'T'
aS'T'
aS'A'
aS'T'
aS'A'
aS'T'
aS'T'
aS'A'
aS'T'
aS'G'
aS'A'
aS'G'
aS'A'
aS'A'
aS'A'
aS'T'
aS'C'
aS'C'
aS'T'
aS'T'
aS'A'
aS'A'
aS'G'
aS'A'
aS'C'
aS'T'
aS'T'
aS'T'
aS'G'
aS'T'
aS'A'
aS'T'
aS'T'
aS'C'
aS'T'
aS'C'
aS'T'
aS'G'
aS'T'
aS'C'
aS'T'
aS'A'
aS'T'
aS'C'
aS'A'
aS'G'
aS'T'
aS'A'
aS'G'
aS'T'
aS'A'
aS'C'
aS'T'
aS'T'
aS'T'
aS'C'
aS'T'
aS'T'
aS'A'
aS'T'
aS'A'
aS'C'
aS'A'
aS'A'
aS'T'
aS'C'
aS'T'
aS'A'
aS'A'
aS'T'
aS'T'
aS'C'
aS'T'
aS'G'
aS'A'
aS'A'
aS'A'
aS'A'
aS'A'
aS'T'
aS'G'
aS'G'
aS'A'
aS'G'
aS'A'
aS'G'
aS'A'
aS'C'
aS'C'
aS'T'
aS'G'
aS'G'
aS'G'
aS'C'
aS'T'
aS'G'
aS'C'
aS'T'
aS'T'
aS'A'
aS'T'
aS'G'
aS'A'
aS'A'
aS'T'
aS'G'
aS'C'
aS'A'
assI18
(dp147
g109
I90877
sg110
I83
sg111
I383
sg112
I90960
sg113
(lp148
S'A'
aS'A'
aS'A'
aS'A'
aS'T'
aS'G'
aS'A'
aS'A'
aS'C'
aS'T'
aS'A'
aS'C'
aS'T'
aS'G'
aS'T'
aS'A'
aS'T'
aS'A'
aS'G'
aS'A'
aS'C'
aS'A'
aS'A'
aS'C'
aS'T'
aS'T'
aS'C'
aS'A'
aS'G'
aS'C'
aS'C'
aS'A'
aS'C'
aS'T'
aS'T'
aS'G'
aS'A'
aS'T'
aS'T'
aS'G'
aS'A'
aS'T'
aS'T'
aS'G'
aS'C'
aS'A'
aS'G'
aS'G'
aS'G'
aS'A'
aS'T'
aS'T'
aS'T'
aS'A'
aS'T'
aS'T'
aS'C'
aS'T'
aS'A'
aS'C'
aS'T'
aS'T'
aS'A'
aS'C'
aS'T'
aS'G'
aS'C'
aS'A'
aS'A'
aS'A'
aS'T'
aS'C'
aS'C'
aS'T'
aS'G'
aS'A'
aS'T'
aS'A'
aS'A'
aS'G'
aS'C'
aS'A'
aS'A'
aS'C'
aS'T'
aS'G'
aS'C'
aS'T'
aS'T'
aS'T'
aS'C'
aS'C'
aS'A'
aS'T'
aS'T'
aS'A'
aS'T'
aS'T'
aS'T'
aS'G'
aS'A'
aS'T'
aS'T'
aS'C'
aS'C'
aS'A'
aS'A'
aS'T'
aS'A'
aS'G'
aS'T'
aS'T'
aS'T'
aS'G'
aS'T'
aS'A'
aS'A'
aS'T'
aS'G'
aS'A'
aS'T'
aS'A'
aS'A'
aS'C'
aS'A'
aS'T'
aS'T'
aS'A'
aS'G'
aS'T'
aS'T'
aS'T'
aS'G'
aS'T'
aS'G'
aS'T'
aS'T'
aS'T'
aS'G'
aS'T'
aS'T'
aS'C'
aS'C'
aS'T'
aS'C'
aS'T'
aS'T'
aS'A'
aS'G'
aS'T'
aS'T'
aS'A'
aS'T'
aS'C'
aS'G'
aS'T'
aS'G'
aS'A'
aS'C'
aS'C'
aS'T'
aS'T'
aS'A'
aS'G'
aS'A'
aS'G'
aS'C'
aS'C'
aS'C'
aS'T'
aS'G'
aS'T'
aS'T'
aS'A'
aS'G'
aS'C'
aS'G'
aS'C'
aS'T'
aS'C'
aS'A'
aS'G'
aS'A'
aS'A'
aS'A'
aS'C'
aS'C'
aS'T'
aS'A'
aS'C'
aS'G'
aS'T'
aS'A'
aS'A'
aS'A'
aS'T'
aS'G'
aS'G'
aS'C'
aS'A'
aS'A'
aS'G'
aS'A'
aS'G'
aS'G'
aS'G'
aS'T'
aS'G'
aS'T'
aS'C'
aS'C'
aS'C'
aS'A'
aS'G'
aS'C'
aS'C'
aS'T'
aS'G'
aS'T'
aS'T'
aS'C'
aS'A'
aS'G'
aS'C'
aS'T'
aS'G'
aS'C'
aS'G'
aS'C'
aS'T'
aS'C'
aS'A'
aS'G'
aS'G'
aS'T'
aS'G'
aS'A'
aS'G'
aS'A'
aS'C'
aS'T'
aS'G'
aS'G'
aS'G'
aS'A'
aS'G'
aS'A'
aS'G'
aS'G'
aS'T'
aS'T'
aS'T'
aS'G'
aS'C'
aS'C'
aS'A'
aS'T'
aS'C'
aS'T'
aS'T'
aS'C'
aS'A'
aS'G'
aS'C'
aS'A'
aS'A'
aS'T'
aS'G'
aS'T'
aS'G'
aS'C'
aS'A'
aS'C'
aS'A'
aS'T'
aS'G'
aS'G'
aS'C'
aS'T'
aS'T'
aS'C'
aS'T'
aS'G'
aS'T'
aS'G'
aS'A'
aS'C'
aS'A'
aS'A'
aS'C'
aS'T'
aS'C'
aS'T'
aS'A'
aS'A'
aS'T'
aS'T'
aS'T'
aS'T'
aS'T'
aS'G'
aS'G'
aS'C'
aS'T'
aS'G'
aS'T'
aS'T'
aS'T'
aS'A'
aS'A'
aS'A'
aS'G'
aS'G'
aS'C'
aS'T'
aS'G'
aS'A'
aS'A'
aS'G'
aS'T'
aS'A'
aS'A'
aS'T'
aS'A'
aS'G'
aS'T'
aS'C'
aS'A'
aS'G'
aS'C'
aS'A'
aS'T'
aS'T'
aS'A'
aS'G'
aS'G'
aS'A'
aS'T'
aS'T'
aS'T'
aS'T'
aS'T'
aS'G'
aS'T'
aS'T'
aS'C'
aS'T'
aS'T'
aS'G'
aS'T'
aS'A'
aS'A'
aS'A'
aS'A'
aS'A'
aS'C'
aS'A'
aS'A'
aS'C'
aS'A'
aS'G'
aS'C'
aS'T'
aS'C'
aS'T'
aS'G'
aS'A'
aS'A'
aS'A'
aS'G'
aS'C'
aS'T'
aS'G'
aS'T'
aS'C'
aS'T'
aS'T'
aS'T'
aS'T'
aS'C'
aS'A'
aS'C'
aS'A'
assI19
(dp149
g109
I91192
sg110
I180
sg111
I480
sg112
I91372
sg113
(lp150
S'G'
aS'A'
aS'A'
aS'G'
aS'T'
aS'A'
aS'A'
aS'T'
aS'A'
aS'G'
aS'T'
aS'C'
aS'A'
aS'G'
aS'C'
aS'A'
aS'T'
aS'T'
aS'A'
aS'G'
aS'G'
aS'A'
aS'T'
aS'T'
aS'T'
aS'T'
aS'T'
aS'G'
aS'T'
aS'T'
aS'C'
aS'T'
aS'T'
aS'G'
aS'T'
aS'A'
aS'A'
aS'A'
aS'A'
aS'A'
aS'C'
aS'A'
aS'A'
aS'C'
aS'A'
aS'G'
aS'C'
aS'T'
aS'C'
aS'T'
aS'G'
aS'A'
aS'A'
aS'A'
aS'G'
aS'C'
aS'T'
aS'G'
aS'T'
aS'C'
aS'T'
aS'T'
aS'T'
aS'T'
aS'C'
aS'A'
aS'C'
aS'A'
aS'T'
aS'T'
aS'A'
aS'G'
aS'G'
aS'G'
aS'A'
aS'G'
aS'G'
aS'G'
aS'G'
aS'T'
aS'G'
aS'A'
aS'G'
aS'G'
aS'T'
aS'T'
aS'G'
aS'T'
aS'T'
aS'A'
aS'A'
aS'A'
aS'T'
aS'A'
aS'G'
aS'A'
aS'T'
aS'A'
aS'C'
aS'T'
aS'A'
aS'T'
aS'A'
aS'T'
aS'A'
aS'T'
aS'T'
aS'A'
aS'A'
aS'A'
aS'A'
aS'A'
aS'A'
aS'A'
aS'T'
aS'T'
aS'A'
aS'T'
aS'T'
aS'T'
aS'C'
aS'T'
aS'T'
aS'A'
aS'A'
aS'C'
aS'C'
aS'C'
aS'T'
aS'A'
aS'T'
aS'T'
aS'T'
aS'T'
aS'T'
aS'C'
aS'T'
aS'G'
aS'T'
aS'T'
aS'T'
aS'T'
aS'G'
aS'T'
aS'G'
aS'C'
aS'T'
aS'A'
aS'G'
aS'G'
aS'A'
aS'A'
aS'A'
aS'C'
aS'C'
aS'G'
aS'T'
aS'A'
aS'T'
aS'C'
aS'A'
aS'T'
aS'C'
aS'A'
aS'T'
aS'G'
aS'G'
aS'G'
aS'T'
aS'A'
aS'A'
aS'A'
aS'A'
aS'A'
aS'C'
aS'C'
aS'A'
aS'T'
aS'G'
aS'T'
aS'T'
aS'T'
aS'T'
aS'C'
aS'C'
aS'G'
aS'C'
aS'T'
aS'T'
aS'T'
aS'A'
aS'A'
aS'C'
aS'C'
aS'A'
aS'C'
aS'C'
aS'C'
aS'G'
aS'G'
aS'A'
aS'A'
aS'C'
aS'A'
aS'A'
aS'G'
aS'C'
aS'A'
aS'C'
aS'G'
aS'A'
aS'G'
aS'C'
aS'T'
aS'G'
aS'A'
aS'G'
aS'C'
aS'G'
aS'A'
aS'G'
aS'A'
aS'G'
aS'A'
aS'A'
aS'G'
aS'A'
aS'C'
aS'T'
aS'C'
aS'C'
aS'T'
aS'T'
aS'C'
aS'T'
aS'G'
aS'C'
aS'T'
aS'G'
aS'A'
aS'G'
aS'A'
aS'C'
aS'C'
aS'C'
aS'C'
aS'C'
aS'T'
aS'C'
aS'T'
aS'G'
aS'A'
aS'G'
aS'C'
aS'C'
aS'T'
aS'G'
aS'T'
aS'G'
aS'G'
aS'A'
aS'C'
aS'T'
aS'G'
aS'G'
aS'A'
aS'C'
aS'A'
aS'T'
aS'T'
aS'T'
aS'G'
aS'C'
aS'C'
aS'C'
aS'A'
aS'G'
aS'A'
aS'G'
aS'G'
aS'G'
aS'A'
aS'G'
aS'C'
aS'T'
aS'C'
aS'C'
aS'T'
aS'G'
aS'G'
aS'A'
aS'A'
aS'A'
aS'A'
aS'A'
aS'C'
aS'A'
aS'A'
aS'G'
aS'G'
aS'A'
aS'A'
aS'T'
aS'T'
aS'G'
aS'A'
aS'T'
aS'A'
aS'T'
aS'G'
aS'A'
aS'A'
aS'A'
aS'C'
aS'A'
aS'A'
aS'G'
aS'A'
aS'G'
aS'A'
aS'T'
aS'G'
aS'G'
aS'A'
aS'G'
aS'A'
aS'A'
aS'A'
aS'A'
aS'G'
aS'G'
aS'T'
aS'A'
aS'A'
aS'T'
aS'G'
aS'C'
aS'A'
aS'C'
aS'A'
aS'G'
aS'T'
aS'T'
aS'A'
aS'C'
aS'G'
aS'C'
aS'A'
aS'G'
aS'C'
aS'C'
aS'C'
aS'A'
aS'T'
aS'A'
aS'T'
aS'G'
aS'A'
aS'C'
aS'T'
aS'G'
aS'T'
aS'T'
aS'T'
aS'C'
aS'T'
aS'T'
aS'C'
aS'T'
aS'T'
aS'T'
aS'T'
aS'A'
aS'A'
aS'A'
aS'C'
aS'A'
aS'T'
aS'G'
aS'T'
aS'A'
aS'A'
aS'T'
aS'A'
aS'C'
aS'T'
aS'A'
aS'A'
aS'T'
aS'A'
aS'G'
aS'C'
aS'A'
aS'T'
aS'T'
aS'C'
aS'T'
aS'T'
aS'G'
aS'A'
aS'A'
aS'T'
aS'T'
aS'T'
aS'T'
aS'T'
aS'T'
aS'T'
aS'T'
aS'T'
aS'T'
aS'T'
aS'T'
aS'T'
aS'T'
aS'T'
aS'T'
aS'T'
aS'A'
aS'C'
aS'T'
aS'T'
aS'C'
aS'T'
aS'A'
aS'G'
aS'G'
aS'G'
aS'T'
aS'A'
aS'C'
aS'A'
aS'G'
aS'G'
aS'A'
aS'A'
aS'A'
aS'T'
aS'G'
aS'G'
aS'A'
aS'G'
aS'A'
aS'T'
aS'C'
aS'T'
aS'T'
aS'A'
aS'T'
aS'A'
aS'C'
aS'A'
aS'A'
aS'A'
aS'A'
aS'A'
aS'G'
aS'G'
aS'A'
aS'G'
aS'A'
aS'A'
aS'G'
aS'G'
aS'A'
aS'A'
aS'G'
aS'A'
aS'A'
aS'G'
aS'C'
aS'A'
aS'G'
aS'A'
aS'T'
aS'C'
aS'T'
aS'T'
aS'C'
aS'T'
assI20
(dp151
g109
I91469
sg110
I72
sg111
I372
sg112
I91541
sg113
(lp152
S'A'
aS'G'
aS'G'
aS'G'
aS'A'
aS'G'
aS'C'
aS'T'
aS'C'
aS'C'
aS'T'
aS'G'
aS'G'
aS'A'
aS'A'
aS'A'
aS'A'
aS'A'
aS'C'
aS'A'
aS'A'
aS'G'
aS'G'
aS'A'
aS'A'
aS'T'
aS'T'
aS'G'
aS'A'
aS'T'
aS'A'
aS'T'
aS'G'
aS'A'
aS'A'
aS'A'
aS'C'
aS'A'
aS'A'
aS'G'
aS'A'
aS'G'
aS'A'
aS'T'
aS'G'
aS'G'
aS'A'
aS'G'
aS'A'
aS'A'
aS'A'
aS'A'
aS'G'
aS'G'
aS'T'
aS'A'
aS'A'
aS'T'
aS'G'
aS'C'
aS'A'
aS'C'
aS'A'
aS'G'
aS'T'
aS'T'
aS'A'
aS'C'
aS'G'
aS'C'
aS'A'
aS'G'
aS'C'
aS'C'
aS'C'
aS'A'
aS'T'
aS'A'
aS'T'
aS'G'
aS'A'
aS'C'
aS'T'
aS'G'
aS'T'
aS'T'
aS'T'
aS'C'
aS'T'
aS'T'
aS'C'
aS'T'
aS'T'
aS'T'
aS'T'
aS'A'
aS'A'
aS'A'
aS'C'
aS'A'
aS'T'
aS'G'
aS'T'
aS'A'
aS'A'
aS'T'
aS'A'
aS'C'
aS'T'
aS'A'
aS'A'
aS'T'
aS'A'
aS'G'
aS'C'
aS'A'
aS'T'
aS'T'
aS'C'
aS'T'
aS'T'
aS'G'
aS'A'
aS'A'
aS'T'
aS'T'
aS'T'
aS'T'
aS'T'
aS'T'
aS'T'
aS'T'
aS'T'
aS'T'
aS'T'
aS'T'
aS'T'
aS'T'
aS'T'
aS'T'
aS'T'
aS'A'
aS'C'
aS'T'
aS'T'
aS'C'
aS'T'
aS'A'
aS'G'
aS'G'
aS'G'
aS'T'
aS'A'
aS'C'
aS'A'
aS'G'
aS'G'
aS'A'
aS'A'
aS'A'
aS'T'
aS'G'
aS'G'
aS'A'
aS'G'
aS'A'
aS'T'
aS'C'
aS'T'
aS'T'
aS'A'
aS'T'
aS'A'
aS'C'
aS'A'
aS'A'
aS'A'
aS'A'
aS'A'
aS'G'
aS'G'
aS'A'
aS'G'
aS'A'
aS'A'
aS'G'
aS'G'
aS'A'
aS'A'
aS'G'
aS'A'
aS'A'
aS'G'
aS'C'
aS'A'
aS'G'
aS'A'
aS'T'
aS'C'
aS'T'
aS'T'
aS'C'
aS'T'
aS'T'
aS'T'
aS'T'
aS'G'
aS'G'
aS'A'
aS'G'
aS'C'
aS'A'
aS'G'
aS'C'
aS'A'
aS'G'
aS'A'
aS'G'
aS'A'
aS'C'
aS'T'
aS'G'
aS'G'
aS'T'
aS'A'
aS'G'
aS'G'
aS'A'
aS'G'
aS'T'
aS'C'
aS'C'
aS'T'
aS'G'
aS'A'
aS'A'
aS'T'
aS'C'
aS'T'
aS'G'
aS'C'
aS'T'
aS'A'
aS'A'
aS'A'
aS'C'
aS'T'
aS'G'
aS'T'
aS'T'
aS'G'
aS'G'
aS'G'
aS'A'
aS'A'
aS'A'
aS'A'
aS'G'
aS'G'
aS'G'
aS'C'
aS'A'
aS'G'
aS'C'
aS'T'
aS'T'
aS'G'
aS'T'
aS'T'
aS'C'
aS'C'
aS'C'
aS'A'
aS'T'
aS'A'
aS'C'
aS'T'
aS'T'
aS'T'
aS'C'
aS'C'
aS'C'
aS'T'
aS'G'
aS'T'
aS'T'
aS'C'
aS'C'
aS'A'
aS'C'
aS'A'
aS'G'
aS'A'
aS'G'
aS'C'
aS'A'
aS'G'
aS'T'
aS'A'
aS'C'
aS'T'
aS'C'
aS'A'
aS'C'
aS'C'
aS'C'
aS'A'
aS'A'
aS'A'
aS'T'
aS'T'
aS'G'
aS'C'
aS'T'
aS'T'
aS'C'
aS'T'
aS'G'
aS'T'
aS'C'
aS'T'
aS'C'
aS'A'
aS'A'
aS'T'
aS'G'
aS'A'
aS'T'
aS'A'
aS'C'
aS'C'
aS'A'
aS'A'
aS'G'
aS'C'
aS'A'
aS'C'
aS'T'
aS'A'
aS'T'
aS'T'
aS'C'
aS'T'
aS'T'
aS'T'
aS'A'
aS'A'
aS'T'
aS'T'
aS'T'
aS'C'
aS'C'
aS'T'
aS'T'
aS'A'
aS'A'
aS'T'
aS'G'
aS'G'
aS'A'
aS'G'
aS'A'
aS'A'
aS'T'
aS'G'
aS'A'
aS'A'
aS'C'
aS'T'
aS'T'
aS'A'
aS'A'
assI21
(dp153
g109
I114338
sg110
I93
sg111
I393
sg112
I114431
sg113
(lp154
S'C'
aS'T'
aS'G'
aS'T'
aS'A'
aS'T'
aS'G'
aS'T'
aS'C'
aS'T'
aS'T'
aS'T'
aS'T'
aS'T'
aS'A'
aS'T'
aS'T'
aS'A'
aS'T'
aS'T'
aS'G'
aS'T'
aS'T'
aS'T'
aS'C'
aS'C'
aS'T'
aS'G'
aS'C'
aS'C'
aS'T'
aS'T'
aS'T'
aS'G'
aS'T'
aS'C'
aS'T'
aS'C'
aS'T'
aS'T'
aS'T'
aS'T'
aS'C'
aS'C'
aS'T'
aS'T'
aS'G'
aS'T'
aS'C'
aS'C'
aS'T'
aS'T'
aS'T'
aS'G'
aS'C'
aS'T'
aS'T'
aS'T'
aS'C'
aS'T'
aS'C'
aS'T'
aS'A'
aS'C'
aS'T'
aS'T'
aS'C'
aS'C'
aS'C'
aS'C'
aS'C'
aS'A'
aS'A'
aS'T'
aS'A'
aS'T'
aS'T'
aS'C'
aS'C'
aS'T'
aS'T'
aS'C'
aS'C'
aS'A'
aS'T'
aS'T'
aS'T'
aS'C'
aS'T'
aS'C'
aS'T'
aS'T'
aS'T'
aS'C'
aS'C'
aS'C'
aS'T'
aS'G'
aS'C'
aS'C'
aS'C'
aS'T'
aS'C'
aS'T'
aS'T'
aS'A'
aS'T'
aS'T'
aS'T'
aS'C'
aS'T'
aS'T'
aS'C'
aS'C'
aS'C'
aS'T'
aS'C'
aS'T'
aS'C'
aS'C'
aS'T'
aS'A'
aS'C'
aS'A'
aS'T'
aS'G'
aS'T'
aS'T'
aS'A'
aS'T'
aS'C'
aS'T'
aS'C'
aS'C'
aS'T'
aS'T'
aS'T'
aS'C'
aS'T'
aS'T'
aS'T'
aS'T'
aS'C'
aS'A'
aS'T'
aS'T'
aS'C'
aS'A'
aS'G'
aS'G'
aS'A'
aS'C'
aS'T'
aS'A'
aS'T'
aS'G'
aS'A'
aS'G'
aS'A'
aS'G'
aS'T'
aS'A'
aS'A'
aS'A'
aS'T'
aS'T'
aS'G'
aS'C'
aS'A'
aS'G'
aS'G'
aS'C'
aS'C'
aS'T'
aS'T'
aS'G'
aS'C'
aS'A'
aS'G'
aS'A'
aS'A'
aS'G'
aS'C'
aS'T'
aS'G'
aS'G'
aS'T'
aS'T'
aS'G'
aS'A'
aS'A'
aS'A'
aS'C'
aS'C'
aS'C'
aS'G'
aS'A'
aS'T'
aS'C'
aS'T'
aS'C'
aS'T'
aS'G'
aS'G'
aS'C'
aS'T'
aS'G'
aS'C'
aS'A'
aS'G'
aS'A'
aS'A'
aS'A'
aS'C'
aS'A'
aS'A'
aS'C'
aS'T'
aS'G'
aS'A'
aS'A'
aS'G'
aS'A'
aS'G'
aS'G'
aS'A'
aS'G'
aS'G'
aS'A'
aS'A'
aS'G'
aS'A'
aS'A'
aS'G'
aS'A'
aS'G'
aS'G'
aS'A'
aS'A'
aS'G'
aS'A'
aS'A'
aS'G'
aS'G'
aS'T'
aS'G'
aS'A'
aS'A'
aS'A'
aS'T'
aS'C'
aS'T'
aS'A'
aS'G'
aS'A'
aS'G'
aS'A'
aS'C'
aS'C'
aS'G'
aS'A'
aS'A'
aS'A'
aS'G'
aS'T'
aS'T'
aS'T'
aS'C'
aS'C'
aS'T'
aS'G'
aS'T'
aS'G'
aS'T'
aS'A'
aS'T'
aS'A'
aS'T'
aS'C'
aS'T'
aS'T'
aS'T'
aS'T'
aS'T'
aS'G'
aS'A'
aS'A'
aS'G'
aS'T'
aS'T'
aS'A'
aS'T'
aS'A'
aS'T'
aS'T'
aS'A'
aS'T'
aS'C'
aS'A'
aS'A'
aS'A'
aS'T'
aS'T'
aS'A'
aS'G'
aS'T'
aS'C'
aS'A'
aS'T'
aS'T'
aS'T'
aS'A'
aS'T'
aS'G'
aS'C'
aS'A'
aS'T'
aS'A'
aS'A'
aS'T'
aS'C'
aS'A'
aS'A'
aS'A'
aS'G'
aS'C'
aS'T'
aS'G'
aS'G'
aS'A'
aS'T'
aS'T'
aS'C'
aS'C'
aS'T'
aS'C'
aS'T'
aS'T'
aS'A'
aS'G'
aS'T'
aS'T'
aS'G'
aS'G'
aS'C'
aS'C'
aS'C'
aS'T'
aS'A'
aS'T'
aS'C'
aS'A'
aS'T'
aS'T'
aS'T'
aS'A'
aS'T'
aS'T'
aS'G'
aS'A'
aS'C'
aS'A'
aS'T'
aS'T'
aS'T'
aS'T'
aS'A'
aS'C'
aS'T'
aS'G'
aS'A'
aS'G'
aS'C'
aS'C'
aS'A'
aS'G'
aS'T'
aS'T'
aS'T'
aS'A'
aS'C'
aS'A'
aS'G'
aS'A'
aS'T'
aS'G'
aS'A'
aS'T'
aS'T'
aS'G'
aS'A'
aS'A'
aS'T'
assI22
(dp155
g109
I116004
sg110
I148
sg111
I448
sg112
I116152
sg113
(lp156
S'G'
aS'G'
aS'T'
aS'A'
aS'A'
aS'G'
aS'C'
aS'T'
aS'T'
aS'T'
aS'A'
aS'C'
aS'T'
aS'A'
aS'A'
aS'A'
aS'A'
aS'A'
aS'G'
aS'A'
aS'A'
aS'A'
aS'C'
aS'A'
aS'A'
aS'A'
aS'A'
aS'G'
aS'C'
aS'A'
aS'G'
aS'C'
aS'T'
aS'G'
aS'A'
aS'A'
aS'T'
aS'G'
aS'G'
aS'A'
aS'G'
aS'A'
aS'G'
aS'A'
aS'A'
aS'A'
aS'C'
aS'T'
aS'G'
aS'G'
aS'A'
aS'A'
aS'A'
aS'A'
aS'C'
aS'A'
aS'C'
aS'C'
aS'T'
aS'C'
aS'A'
aS'C'
aS'C'
aS'T'
aS'T'
aS'G'
aS'G'
aS'T'
aS'A'
aS'A'
aS'A'
aS'A'
aS'G'
aS'A'
aS'G'
aS'A'
aS'T'
aS'A'
aS'A'
aS'G'
aS'C'
aS'T'
aS'A'
aS'G'
aS'A'
aS'A'
aS'G'
aS'A'
aS'G'
aS'A'
aS'G'
aS'G'
aS'T'
aS'G'
aS'T'
aS'A'
aS'A'
aS'T'
aS'T'
aS'T'
aS'T'
aS'T'
aS'A'
aS'T'
aS'A'
aS'T'
aS'A'
aS'G'
aS'T'
aS'T'
aS'G'
aS'T'
aS'A'
aS'A'
aS'G'
aS'A'
aS'T'
aS'T'
aS'G'
aS'C'
aS'C'
aS'A'
aS'T'
aS'T'
aS'A'
aS'A'
aS'A'
aS'T'
aS'A'
aS'T'
aS'G'
aS'C'
aS'A'
aS'T'
aS'C'
aS'A'
aS'T'
aS'T'
aS'C'
aS'A'
aS'T'
aS'T'
aS'C'
aS'T'
aS'T'
aS'T'
aS'C'
aS'A'
aS'G'
aS'T'
aS'T'
aS'C'
aS'C'
aS'T'
aS'T'
aS'G'
aS'G'
aS'A'
aS'C'
aS'A'
aS'C'
aS'A'
aS'G'
aS'C'
aS'A'
aS'T'
aS'G'
aS'A'
aS'A'
aS'T'
aS'T'
aS'T'
aS'G'
aS'A'
aS'G'
aS'T'
aS'T'
aS'G'
aS'G'
aS'C'
aS'C'
aS'C'
aS'A'
aS'A'
aS'T'
aS'G'
aS'G'
aS'G'
aS'C'
aS'C'
aS'T'
aS'T'
aS'C'
aS'C'
aS'G'
aS'G'
aS'A'
aS'A'
aS'A'
aS'T'
aS'G'
aS'G'
aS'A'
aS'A'
aS'G'
aS'T'
aS'C'
aS'T'
aS'C'
aS'A'
aS'T'
aS'C'
aS'A'
aS'G'
aS'T'
aS'T'
aS'T'
aS'A'
aS'C'
aS'T'
aS'T'
aS'C'
aS'A'
aS'T'
aS'T'
aS'A'
aS'C'
aS'G'
aS'G'
aS'G'
aS'A'
aS'C'
aS'T'
aS'T'
aS'A'
aS'C'
aS'T'
aS'C'
aS'T'
aS'G'
aS'G'
aS'G'
aS'G'
aS'C'
aS'A'
aS'A'
aS'T'
aS'G'
aS'C'
aS'C'
aS'G'
aS'T'
aS'G'
aS'T'
aS'A'
aS'C'
aS'C'
aS'T'
aS'A'
aS'A'
aS'A'
aS'G'
aS'G'
aS'A'
aS'G'
aS'G'
aS'C'
aS'C'
aS'A'
aS'A'
aS'T'
aS'G'
aS'C'
aS'C'
aS'A'
aS'T'
aS'C'
aS'A'
aS'G'
aS'T'
aS'G'
aS'T'
aS'G'
aS'G'
aS'A'
aS'A'
aS'C'
aS'T'
aS'G'
aS'T'
aS'A'
aS'A'
aS'A'
aS'A'
aS'G'
aS'A'
aS'A'
aS'G'
aS'G'
aS'T'
aS'A'
aS'T'
aS'G'
aS'G'
aS'A'
aS'G'
aS'C'
aS'A'
aS'G'
aS'G'
aS'A'
aS'G'
aS'G'
aS'A'
aS'C'
aS'A'
aS'C'
aS'A'
aS'G'
aS'G'
aS'A'
aS'G'
aS'A'
aS'G'
aS'C'
aS'T'
aS'G'
aS'G'
aS'A'
aS'G'
aS'G'
aS'C'
aS'A'
aS'A'
aS'A'
aS'G'
aS'C'
aS'C'
aS'G'
aS'A'
aS'G'
aS'C'
aS'C'
aS'T'
aS'G'
aS'C'
aS'T'
aS'G'
aS'T'
aS'G'
aS'G'
aS'G'
aS'T'
aS'G'
aS'C'
aS'A'
aS'T'
aS'C'
aS'T'
aS'G'
aS'G'
aS'G'
aS'T'
aS'T'
aS'C'
aS'T'
aS'C'
aS'A'
aS'C'
aS'C'
aS'T'
aS'T'
aS'G'
aS'A'
aS'A'
aS'T'
aS'T'
aS'A'
aS'A'
aS'C'
aS'C'
aS'T'
aS'T'
aS'T'
aS'C'
aS'C'
aS'T'
aS'T'
aS'T'
aS'G'
aS'G'
aS'G'
aS'G'
aS'G'
aS'A'
aS'A'
aS'C'
aS'T'
aS'C'
aS'A'
aS'G'
aS'C'
aS'T'
aS'G'
aS'C'
aS'T'
aS'T'
aS'T'
aS'G'
aS'T'
aS'G'
aS'C'
aS'T'
aS'A'
aS'T'
aS'A'
aS'A'
aS'A'
aS'A'
aS'C'
aS'A'
aS'G'
aS'C'
aS'T'
aS'T'
aS'T'
aS'A'
aS'T'
aS'A'
aS'T'
aS'A'
aS'T'
aS'G'
aS'T'
aS'C'
aS'T'
aS'T'
aS'T'
aS'A'
aS'T'
aS'T'
aS'T'
aS'A'
aS'A'
aS'T'
aS'A'
aS'T'
aS'A'
assI23
(dp157
g109
I118179
sg110
I178
sg111
I478
sg112
I118357
sg113
(lp158
S'C'
aS'A'
aS'G'
aS'G'
aS'T'
aS'G'
aS'G'
aS'C'
aS'C'
aS'A'
aS'T'
aS'A'
aS'T'
aS'T'
aS'T'
aS'T'
aS'T'
aS'C'
aS'A'
aS'G'
aS'T'
aS'A'
aS'G'
aS'A'
aS'A'
aS'A'
aS'G'
aS'T'
aS'T'
aS'A'
aS'G'
aS'T'
aS'C'
aS'A'
aS'C'
aS'A'
aS'A'
aS'G'
aS'A'
aS'T'
aS'A'
aS'T'
aS'T'
aS'T'
aS'G'
aS'T'
aS'T'
aS'G'
aS'A'
aS'G'
aS'C'
aS'A'
aS'C'
aS'A'
aS'T'
aS'T'
aS'C'
aS'G'
aS'A'
aS'C'
aS'C'
aS'T'
aS'C'
aS'T'
aS'T'
aS'T'
aS'C'
aS'C'
aS'C'
aS'A'
aS'T'
aS'T'
aS'G'
aS'G'
aS'G'
aS'T'
aS'A'
aS'T'
aS'G'
aS'A'
aS'T'
aS'T'
aS'G'
aS'T'
aS'A'
aS'T'
aS'C'
aS'G'
aS'T'
aS'C'
aS'T'
aS'C'
aS'A'
aS'T'
aS'C'
aS'T'
aS'C'
aS'T'
aS'G'
aS'A'
aS'A'
aS'G'
aS'C'
aS'T'
aS'T'
aS'G'
aS'C'
aS'T'
aS'T'
aS'G'
aS'C'
aS'T'
aS'G'
aS'A'
aS'A'
aS'A'
aS'A'
aS'C'
aS'C'
aS'A'
aS'T'
aS'T'
aS'T'
aS'G'
aS'T'
aS'C'
aS'A'
aS'A'
aS'T'
aS'G'
aS'G'
aS'T'
aS'T'
aS'T'
aS'A'
aS'T'
aS'T'
aS'C'
aS'T'
aS'T'
aS'T'
aS'C'
aS'T'
aS'A'
aS'T'
aS'T'
aS'C'
aS'A'
aS'G'
aS'G'
aS'T'
aS'G'
aS'C'
aS'A'
aS'G'
aS'T'
aS'T'
aS'T'
aS'C'
aS'A'
aS'G'
aS'T'
aS'T'
aS'T'
aS'G'
aS'T'
aS'T'
aS'C'
aS'T'
aS'G'
aS'C'
aS'T'
aS'G'
aS'A'
aS'C'
aS'T'
aS'G'
aS'A'
aS'C'
aS'A'
aS'C'
aS'A'
aS'C'
aS'T'
aS'G'
aS'T'
aS'A'
aS'C'
aS'T'
aS'C'
aS'C'
aS'C'
aS'C'
aS'T'
aS'T'
aS'T'
aS'G'
aS'C'
aS'C'
aS'T'
aS'C'
aS'C'
aS'T'
aS'G'
aS'A'
aS'A'
aS'T'
aS'T'
aS'A'
aS'C'
aS'T'
aS'A'
aS'C'
aS'C'
aS'C'
aS'A'
aS'C'
aS'T'
aS'G'
aS'A'
aS'G'
aS'A'
aS'T'
aS'G'
aS'G'
aS'A'
aS'A'
aS'A'
aS'A'
aS'A'
aS'A'
aS'C'
aS'T'
aS'C'
aS'A'
aS'T'
aS'G'
aS'A'
aS'G'
aS'G'
aS'A'
aS'C'
aS'A'
aS'G'
aS'G'
aS'C'
aS'C'
aS'T'
aS'T'
aS'T'
aS'C'
aS'C'
aS'C'
aS'T'
aS'C'
aS'G'
aS'C'
aS'A'
aS'C'
aS'A'
aS'G'
aS'T'
aS'G'
aS'G'
aS'T'
aS'A'
aS'G'
aS'C'
aS'A'
aS'G'
aS'T'
aS'A'
aS'G'
aS'A'
aS'A'
aS'G'
aS'T'
aS'C'
aS'C'
aS'A'
aS'G'
aS'G'
aS'A'
aS'T'
aS'T'
aS'T'
aS'G'
aS'A'
aS'A'
aS'G'
aS'A'
aS'A'
aS'T'
aS'G'
aS'G'
aS'A'
aS'G'
aS'C'
aS'A'
aS'A'
aS'C'
aS'A'
aS'C'
aS'A'
aS'C'
aS'T'
aS'A'
aS'T'
aS'T'
aS'G'
aS'G'
aS'T'
aS'C'
aS'T'
aS'T'
aS'T'
aS'G'
aS'G'
aS'A'
aS'G'
aS'A'
aS'A'
aS'A'
aS'C'
aS'T'
aS'C'
aS'A'
aS'A'
aS'G'
aS'T'
aS'A'
aS'T'
aS'G'
aS'A'
aS'A'
aS'A'
aS'A'
aS'C'
aS'A'
aS'T'
aS'T'
aS'C'
aS'A'
aS'T'
aS'A'
aS'A'
aS'A'
aS'G'
aS'G'
aS'C'
aS'T'
aS'G'
aS'G'
aS'T'
aS'T'
aS'G'
aS'T'
aS'T'
aS'T'
aS'T'
aS'A'
aS'T'
aS'T'
aS'T'
aS'A'
aS'G'
aS'G'
aS'A'
aS'A'
aS'A'
aS'T'
aS'A'
aS'A'
aS'C'
aS'A'
aS'A'
aS'T'
aS'G'
aS'A'
aS'C'
aS'C'
aS'T'
aS'G'
aS'C'
aS'T'
aS'C'
aS'A'
aS'A'
aS'G'
aS'T'
aS'G'
aS'A'
aS'G'
aS'C'
aS'T'
aS'C'
aS'C'
aS'C'
aS'T'
aS'C'
aS'C'
aS'A'
aS'G'
aS'C'
aS'T'
aS'C'
aS'T'
aS'C'
aS'C'
aS'T'
aS'C'
aS'T'
aS'C'
aS'T'
aS'C'
aS'T'
aS'G'
aS'A'
aS'G'
aS'G'
aS'A'
aS'C'
aS'A'
aS'C'
aS'T'
aS'G'
aS'T'
aS'T'
aS'G'
aS'C'
aS'T'
aS'T'
aS'A'
aS'C'
aS'T'
aS'T'
aS'C'
aS'C'
aS'C'
aS'T'
aS'G'
aS'T'
aS'A'
aS'C'
aS'T'
aS'T'
aS'T'
aS'C'
aS'T'
aS'A'
aS'A'
aS'A'
aS'T'
aS'G'
aS'C'
aS'T'
aS'G'
aS'T'
aS'T'
aS'G'
aS'T'
aS'T'
aS'G'
aS'G'
aS'C'
aS'C'
aS'A'
aS'A'
aS'T'
aS'G'
aS'G'
aS'T'
aS'A'
aS'T'
aS'T'
aS'A'
aS'C'
aS'C'
assI24
(dp159
g109
I119053
sg110
I137
sg111
I437
sg112
I119190
sg113
(lp160
S'T'
aS'G'
aS'G'
aS'G'
aS'C'
aS'T'
aS'T'
aS'C'
aS'A'
aS'T'
aS'T'
aS'C'
aS'T'
aS'T'
aS'T'
aS'T'
aS'T'
aS'A'
aS'G'
aS'T'
aS'A'
aS'A'
aS'C'
aS'A'
aS'T'
aS'T'
aS'A'
aS'A'
aS'A'
aS'C'
aS'A'
aS'G'
aS'T'
aS'G'
aS'G'
aS'G'
aS'A'
aS'G'
aS'C'
aS'A'
aS'A'
aS'C'
aS'T'
aS'C'
aS'C'
aS'T'
aS'T'
aS'T'
aS'T'
aS'T'
aS'T'
aS'T'
aS'T'
aS'T'
aS'T'
aS'T'
aS'T'
aS'T'
aS'G'
aS'A'
aS'A'
aS'G'
aS'A'
aS'A'
aS'A'
aS'A'
aS'T'
aS'C'
aS'T'
aS'T'
aS'G'
aS'A'
aS'A'
aS'C'
aS'G'
aS'G'
aS'A'
aS'A'
aS'G'
aS'A'
aS'T'
aS'G'
aS'C'
aS'T'
aS'T'
aS'C'
aS'C'
aS'A'
aS'A'
aS'A'
aS'G'
aS'T'
aS'G'
aS'A'
aS'A'
aS'A'
aS'G'
aS'T'
aS'T'
aS'T'
aS'A'
aS'A'
aS'T'
aS'G'
aS'C'
aS'A'
aS'A'
aS'T'
aS'C'
aS'T'
aS'C'
aS'A'
aS'T'
aS'T'
aS'A'
aS'T'
aS'A'
aS'T'
aS'T'
aS'A'
aS'A'
aS'C'
aS'C'
aS'C'
aS'A'
aS'A'
aS'T'
aS'G'
aS'T'
aS'G'
aS'C'
aS'T'
aS'T'
aS'T'
aS'G'
aS'T'
aS'G'
aS'T'
aS'T'
aS'T'
aS'A'
aS'C'
aS'T'
aS'A'
aS'A'
aS'A'
aS'T'
aS'A'
aS'G'
aS'G'
aS'C'
aS'A'
aS'G'
aS'A'
aS'G'
aS'G'
aS'C'
aS'T'
aS'G'
aS'G'
aS'A'
aS'T'
aS'T'
aS'T'
aS'G'
aS'A'
aS'T'
aS'G'
aS'C'
aS'G'
aS'A'
aS'G'
aS'A'
aS'G'
aS'A'
aS'T'
aS'G'
aS'T'
aS'A'
aS'T'
aS'G'
aS'A'
aS'T'
aS'A'
aS'G'
aS'G'
aS'G'
aS'C'
aS'A'
aS'G'
aS'G'
aS'G'
aS'G'
aS'A'
aS'G'
aS'A'
aS'T'
aS'G'
aS'G'
aS'C'
aS'C'
aS'G'
aS'C'
aS'C'
aS'A'
aS'G'
aS'T'
aS'G'
aS'C'
aS'C'
aS'C'
aS'A'
aS'A'
aS'G'
aS'A'
aS'C'
aS'G'
aS'A'
aS'A'
aS'A'
aS'G'
aS'C'
aS'G'
aS'A'
aS'A'
aS'A'
aS'C'
aS'C'
aS'A'
aS'C'
aS'T'
aS'G'
aS'T'
aS'G'
aS'A'
aS'C'
aS'T'
aS'G'
aS'G'
aS'C'
aS'A'
aS'G'
aS'C'
aS'G'
aS'A'
aS'T'
aS'C'
aS'C'
aS'C'
aS'T'
aS'T'
aS'C'
aS'T'
aS'A'
aS'T'
aS'G'
aS'A'
aS'T'
aS'C'
aS'G'
aS'G'
aS'T'
aS'T'
aS'C'
aS'C'
aS'A'
aS'C'
aS'T'
aS'G'
aS'G'
aS'T'
aS'T'
aS'C'
aS'A'
aS'A'
aS'A'
aS'C'
aS'T'
aS'T'
aS'G'
aS'T'
aS'G'
aS'G'
aS'G'
aS'G'
aS'A'
aS'G'
aS'G'
aS'T'
aS'A'
aS'T'
aS'G'
aS'T'
aS'G'
aS'A'
aS'T'
aS'G'
aS'A'
aS'T'
aS'T'
aS'T'
aS'T'
aS'G'
aS'T'
aS'T'
aS'G'
aS'A'
aS'T'
aS'G'
aS'T'
aS'C'
aS'T'
aS'T'
aS'C'
aS'T'
aS'T'
aS'T'
aS'T'
aS'A'
aS'A'
aS'A'
aS'A'
aS'T'
aS'A'
aS'A'
aS'T'
aS'G'
aS'A'
aS'T'
aS'T'
aS'A'
aS'G'
aS'T'
aS'T'
aS'T'
aS'T'
aS'A'
aS'A'
aS'G'
aS'T'
aS'G'
aS'T'
aS'T'
aS'T'
aS'A'
aS'A'
aS'A'
aS'A'
aS'C'
aS'C'
aS'T'
aS'G'
aS'A'
aS'G'
aS'C'
aS'A'
aS'G'
aS'A'
aS'T'
aS'A'
aS'A'
aS'T'
aS'A'
aS'T'
aS'A'
aS'A'
aS'A'
aS'A'
aS'A'
aS'G'
aS'T'
aS'T'
aS'A'
aS'A'
aS'G'
aS'A'
aS'G'
aS'G'
aS'A'
aS'A'
aS'A'
aS'A'
aS'A'
aS'A'
aS'A'
aS'A'
aS'A'
aS'G'
aS'G'
aS'T'
aS'G'
aS'T'
aS'A'
aS'A'
aS'A'
aS'A'
aS'A'
aS'G'
aS'G'
aS'C'
aS'C'
aS'T'
aS'T'
aS'A'
aS'T'
aS'C'
aS'T'
aS'A'
aS'T'
aS'A'
aS'A'
aS'T'
aS'C'
aS'T'
aS'T'
aS'A'
aS'T'
aS'C'
aS'C'
aS'A'
aS'C'
aS'T'
aS'C'
aS'A'
aS'C'
aS'A'
aS'A'
aS'C'
aS'C'
aS'A'
aS'C'
aS'T'
aS'G'
aS'C'
aS'G'
aS'T'
aS'C'
assI25
(dp161
g109
I120406
sg110
I248
sg111
I548
sg112
I120654
sg113
(lp162
S'T'
aS'A'
aS'T'
aS'G'
aS'C'
aS'T'
aS'T'
aS'A'
aS'T'
aS'T'
aS'T'
aS'T'
aS'A'
aS'T'
aS'C'
aS'C'
aS'T'
aS'T'
aS'T'
aS'T'
aS'G'
aS'C'
aS'T'
aS'T'
aS'T'
aS'T'
aS'C'
aS'C'
aS'A'
aS'T'
aS'T'
aS'T'
aS'G'
aS'C'
aS'T'
aS'T'
aS'T'
aS'T'
aS'A'
aS'T'
aS'T'
aS'G'
aS'T'
aS'G'
aS'T'
aS'T'
aS'G'
aS'A'
aS'T'
aS'T'
aS'C'
aS'C'
aS'C'
aS'C'
aS'A'
aS'G'
aS'T'
aS'G'
aS'G'
aS'A'
aS'T'
aS'T'
aS'C'
aS'T'
aS'G'
aS'T'
aS'C'
aS'C'
aS'T'
aS'G'
aS'T'
aS'T'
aS'A'
aS'G'
aS'C'
aS'A'
aS'C'
aS'C'
aS'T'
aS'A'
aS'T'
aS'T'
aS'G'
aS'C'
aS'T'
aS'T'
aS'C'
aS'C'
aS'T'
aS'G'
aS'T'
aS'T'
aS'T'
aS'A'
aS'A'
aS'C'
aS'C'
aS'A'
aS'A'
aS'C'
aS'T'
aS'A'
aS'T'
aS'T'
aS'C'
aS'C'
aS'T'
aS'C'
aS'T'
aS'C'
aS'T'
aS'C'
aS'C'
aS'C'
aS'T'
aS'G'
aS'G'
aS'C'
aS'T'
aS'G'
aS'T'
aS'G'
aS'T'
aS'T'
aS'A'
aS'A'
aS'T'
aS'T'
aS'G'
aS'G'
aS'C'
aS'G'
aS'T'
aS'C'
aS'T'
aS'T'
aS'A'
aS'C'
aS'C'
aS'T'
aS'G'
aS'G'
aS'T'
aS'G'
aS'T'
aS'C'
aS'T'
aS'A'
aS'G'
aS'C'
aS'T'
aS'C'
aS'C'
aS'C'
aS'C'
aS'C'
aS'A'
aS'T'
aS'T'
aS'T'
aS'T'
aS'C'
aS'C'
aS'G'
aS'C'
aS'G'
aS'G'
aS'C'
aS'T'
aS'G'
aS'T'
aS'G'
aS'T'
aS'G'
aS'A'
aS'A'
aS'C'
aS'G'
aS'A'
aS'G'
aS'C'
aS'G'
aS'C'
aS'C'
aS'T'
aS'T'
aS'G'
aS'C'
aS'C'
aS'G'
aS'A'
aS'C'
aS'C'
aS'G'
aS'C'
aS'A'
aS'C'
aS'A'
aS'C'
aS'C'
aS'C'
aS'T'
aS'C'
aS'C'
aS'C'
aS'C'
aS'C'
aS'A'
aS'C'
aS'T'
aS'T'
aS'T'
aS'T'
aS'T'
aS'C'
aS'C'
aS'A'
aS'C'
aS'G'
aS'G'
aS'C'
aS'C'
aS'G'
aS'A'
aS'T'
aS'T'
aS'C'
aS'C'
aS'G'
aS'A'
aS'C'
aS'A'
aS'T'
aS'C'
aS'A'
aS'C'
aS'T'
aS'G'
aS'A'
aS'G'
aS'C'
aS'T'
aS'G'
aS'G'
aS'C'
aS'T'
aS'G'
aS'A'
aS'C'
aS'G'
aS'A'
aS'G'
aS'C'
aS'A'
aS'G'
aS'C'
aS'A'
aS'A'
aS'G'
aS'A'
aS'T'
aS'G'
aS'A'
aS'G'
aS'A'
aS'T'
aS'G'
aS'G'
aS'A'
aS'G'
aS'G'
aS'A'
aS'T'
aS'T'
aS'T'
aS'T'
aS'G'
aS'A'
aS'T'
aS'G'
aS'A'
aS'T'
aS'G'
aS'A'
aS'G'
aS'G'
aS'C'
aS'A'
aS'T'
aS'T'
aS'C'
aS'G'
aS'T'
aS'G'
aS'G'
aS'A'
aS'T'
aS'G'
aS'A'
aS'C'
aS'G'
aS'C'
aS'C'
aS'G'
aS'G'
aS'C'
aS'T'
aS'C'
aS'T'
aS'G'
aS'A'
aS'C'
aS'G'
aS'C'
aS'A'
aS'G'
aS'G'
aS'G'
aS'A'
aS'C'
aS'G'
aS'G'
aS'A'
aS'G'
aS'G'
aS'A'
aS'G'
aS'G'
aS'G'
aS'A'
aS'T'
aS'C'
aS'A'
aS'G'
aS'A'
aS'T'
aS'C'
aS'T'
aS'C'
aS'T'
aS'T'
aS'C'
aS'A'
aS'G'
aS'T'
aS'G'
aS'A'
aS'C'
aS'G'
aS'G'
aS'G'
aS'C'
aS'A'
aS'T'
aS'G'
aS'A'
aS'C'
aS'C'
aS'C'
aS'G'
aS'T'
aS'T'
aS'T'
aS'T'
aS'A'
aS'C'
aS'G'
aS'A'
aS'C'
aS'C'
aS'G'
aS'A'
aS'T'
aS'C'
aS'C'
aS'C'
aS'C'
aS'T'
aS'T'
aS'G'
aS'G'
aS'T'
aS'T'
aS'C'
aS'A'
aS'T'
aS'T'
aS'T'
aS'T'
aS'A'
aS'G'
aS'T'
aS'G'
aS'G'
aS'G'
aS'A'
aS'A'
aS'G'
aS'G'
aS'T'
aS'T'
aS'G'
aS'G'
aS'T'
aS'G'
aS'A'
aS'G'
aS'G'
aS'T'
aS'T'
aS'A'
aS'T'
aS'T'
aS'G'
aS'T'
aS'G'
aS'A'
aS'G'
aS'A'
aS'A'
aS'A'
aS'G'
aS'G'
aS'C'
aS'G'
aS'A'
aS'A'
aS'A'
aS'A'
aS'G'
aS'G'
aS'G'
aS'A'
aS'C'
aS'C'
aS'A'
aS'G'
aS'C'
aS'T'
aS'C'
aS'T'
aS'T'
aS'G'
aS'C'
aS'T'
aS'C'
aS'T'
aS'G'
aS'A'
aS'A'
aS'G'
aS'G'
aS'C'
aS'C'
aS'T'
aS'C'
aS'C'
aS'C'
aS'T'
aS'G'
aS'C'
aS'T'
aS'T'
aS'G'
aS'C'
aS'A'
aS'C'
aS'A'
aS'A'
aS'T'
aS'T'
aS'T'
aS'T'
aS'G'
aS'G'
aS'A'
aS'T'
aS'A'
aS'A'
aS'C'
aS'C'
aS'T'
aS'T'
aS'G'
aS'C'
aS'A'
aS'T'
aS'T'
aS'A'
aS'G'
aS'C'
aS'C'
aS'A'
aS'A'
aS'T'
aS'T'
aS'C'
aS'A'
aS'A'
aS'C'
aS'T'
aS'C'
aS'A'
aS'T'
aS'G'
aS'A'
aS'A'
aS'T'
aS'G'
aS'C'
aS'T'
aS'C'
aS'T'
aS'T'
aS'T'
aS'T'
aS'T'
aS'C'
aS'A'
aS'A'
aS'G'
aS'T'
aS'T'
aS'C'
aS'T'
aS'C'
aS'C'
aS'A'
aS'A'
aS'T'
aS'A'
aS'C'
aS'T'
aS'T'
aS'C'
aS'A'
aS'A'
aS'G'
aS'C'
aS'T'
aS'C'
aS'T'
aS'T'
aS'A'
aS'G'
aS'T'
aS'C'
aS'A'
assI26
(dp163
g109
I128815
sg110
I118
sg111
I418
sg112
I128933
sg113
(lp164
S'G'
aS'C'
aS'A'
aS'A'
aS'A'
aS'T'
aS'C'
aS'T'
aS'G'
aS'A'
aS'G'
aS'A'
aS'G'
aS'G'
aS'C'
aS'T'
aS'A'
aS'G'
aS'G'
aS'A'
aS'C'
aS'T'
aS'G'
aS'A'
aS'G'
aS'A'
aS'A'
aS'G'
aS'G'
aS'G'
aS'G'
aS'T'
aS'C'
aS'T'
aS'T'
aS'A'
aS'A'
aS'G'
aS'A'
aS'C'
aS'A'
aS'A'
aS'G'
aS'G'
aS'C'
aS'C'
aS'A'
aS'G'
aS'A'
aS'A'
aS'G'
aS'T'
aS'C'
aS'A'
aS'G'
aS'C'
aS'T'
aS'C'
aS'A'
aS'C'
aS'A'
aS'G'
aS'T'
aS'T'
aS'G'
aS'C'
aS'A'
aS'G'
aS'G'
aS'A'
aS'A'
aS'G'
aS'A'
aS'T'
aS'G'
aS'T'
aS'T'
aS'C'
aS'T'
aS'C'
aS'A'
aS'G'
aS'T'
aS'G'
aS'A'
aS'A'
aS'T'
aS'C'
aS'T'
aS'G'
aS'A'
aS'A'
aS'A'
aS'G'
aS'C'
aS'C'
aS'A'
aS'G'
aS'T'
aS'T'
aS'T'
aS'A'
aS'T'
aS'C'
aS'T'
aS'C'
aS'T'
aS'C'
aS'C'
aS'A'
aS'T'
aS'G'
aS'G'
aS'A'
aS'T'
aS'G'
aS'T'
aS'T'
aS'C'
aS'T'
aS'G'
aS'A'
aS'C'
aS'A'
aS'T'
aS'T'
aS'T'
aS'G'
aS'T'
aS'C'
aS'T'
aS'C'
aS'C'
aS'T'
aS'G'
aS'G'
aS'T'
aS'T'
aS'T'
aS'C'
aS'T'
aS'G'
aS'T'
aS'C'
aS'T'
aS'T'
aS'T'
aS'A'
aS'G'
aS'G'
aS'G'
aS'C'
aS'A'
aS'T'
aS'T'
aS'C'
aS'G'
aS'T'
aS'T'
aS'T'
aS'A'
aS'C'
aS'C'
aS'T'
aS'G'
aS'A'
aS'G'
aS'C'
aS'A'
aS'A'
aS'T'
aS'C'
aS'T'
aS'G'
aS'C'
aS'T'
aS'G'
aS'T'
aS'A'
aS'T'
aS'C'
aS'C'
aS'C'
aS'G'
aS'T'
aS'G'
aS'C'
aS'C'
aS'C'
aS'C'
aS'T'
aS'G'
aS'A'
aS'T'
aS'C'
aS'C'
aS'A'
aS'C'
aS'A'
aS'G'
aS'G'
aS'G'
aS'T'
aS'G'
aS'G'
aS'C'
aS'C'
aS'A'
aS'T'
aS'C'
aS'G'
aS'T'
aS'C'
aS'A'
aS'G'
aS'T'
aS'G'
aS'A'
aS'G'
aS'A'
aS'A'
aS'A'
aS'G'
aS'G'
aS'T'
aS'G'
aS'A'
aS'A'
aS'G'
aS'T'
aS'G'
aS'C'
aS'G'
aS'G'
aS'G'
aS'G'
aS'A'
aS'T'
aS'T'
aS'T'
aS'C'
aS'T'
aS'G'
aS'C'
aS'G'
aS'T'
aS'G'
aS'T'
aS'G'
aS'G'
aS'C'
aS'T'
aS'G'
aS'T'
aS'A'
aS'C'
aS'A'
aS'G'
aS'G'
aS'C'
aS'C'
aS'A'
aS'T'
aS'C'
aS'G'
aS'C'
aS'A'
aS'G'
aS'G'
aS'T'
aS'A'
aS'G'
aS'G'
aS'T'
aS'G'
aS'A'
aS'C'
aS'C'
aS'C'
aS'T'
aS'C'
aS'T'
aS'T'
aS'C'
aS'T'
aS'G'
aS'A'
aS'A'
aS'A'
aS'T'
aS'G'
aS'A'
aS'G'
aS'A'
aS'G'
aS'C'
aS'T'
aS'G'
aS'T'
aS'G'
aS'A'
aS'G'
aS'T'
aS'T'
aS'C'
aS'T'
aS'T'
aS'T'
aS'G'
aS'T'
aS'C'
aS'T'
aS'A'
aS'G'
aS'A'
aS'G'
aS'A'
aS'C'
aS'A'
aS'A'
aS'A'
aS'G'
aS'C'
aS'A'
aS'G'
aS'G'
aS'C'
aS'T'
aS'G'
aS'A'
aS'T'
aS'T'
aS'C'
aS'T'
aS'G'
aS'C'
aS'G'
aS'T'
aS'G'
aS'G'
aS'G'
aS'T'
aS'C'
aS'A'
aS'C'
aS'G'
aS'C'
aS'T'
aS'T'
aS'A'
aS'T'
aS'A'
aS'T'
aS'T'
aS'A'
aS'C'
aS'A'
aS'C'
aS'A'
aS'T'
aS'A'
aS'C'
aS'A'
aS'A'
aS'A'
aS'C'
aS'T'
aS'G'
aS'T'
aS'G'
aS'G'
aS'G'
aS'G'
aS'A'
aS'G'
aS'T'
aS'T'
aS'T'
aS'G'
aS'T'
aS'A'
aS'T'
aS'G'
aS'T'
aS'G'
aS'T'
aS'A'
aS'A'
aS'T'
aS'A'
aS'T'
aS'A'
aS'C'
aS'A'
aS'G'
aS'A'
aS'C'
aS'A'
aS'C'
aS'A'
aS'T'
aS'A'
aS'C'
aS'T'
aS'T'
aS'T'
aS'G'
aS'G'
aS'A'
aS'G'
aS'A'
aS'A'
aS'A'
aS'G'
aS'C'
aS'C'
aS'T'
aS'T'
assI27
(dp165
g109
I130952
sg110
I85
sg111
I385
sg112
I131037
sg113
(lp166
S'A'
aS'T'
aS'A'
aS'G'
aS'A'
aS'G'
aS'T'
aS'G'
aS'C'
aS'G'
aS'A'
aS'A'
aS'G'
aS'C'
aS'A'
aS'G'
aS'C'
aS'C'
aS'C'
aS'A'
aS'T'
aS'G'
aS'C'
aS'C'
aS'G'
aS'T'
aS'G'
aS'T'
aS'T'
aS'A'
aS'C'
aS'T'
aS'A'
aS'C'
aS'T'
aS'T'
aS'T'
aS'G'
aS'G'
aS'T'
aS'A'
aS'T'
aS'C'
aS'A'
aS'T'
aS'T'
aS'C'
aS'T'
aS'C'
aS'T'
aS'C'
aS'A'
aS'T'
aS'G'
aS'C'
aS'C'
aS'A'
aS'A'
aS'A'
aS'G'
aS'A'
aS'C'
aS'T'
aS'T'
aS'G'
aS'A'
aS'G'
aS'T'
aS'T'
aS'T'
aS'A'
aS'T'
aS'A'
aS'A'
aS'T'
aS'C'
aS'C'
aS'A'
aS'G'
aS'C'
aS'A'
aS'A'
aS'G'
aS'A'
aS'G'
aS'C'
aS'T'
aS'T'
aS'T'
aS'T'
aS'T'
aS'C'
aS'C'
aS'C'
aS'T'
aS'C'
aS'C'
aS'C'
aS'T'
aS'C'
aS'C'
aS'C'
aS'C'
aS'C'
aS'T'
aS'G'
aS'T'
aS'G'
aS'T'
aS'A'
aS'G'
aS'T'
aS'C'
aS'T'
aS'C'
aS'A'
aS'C'
aS'T'
aS'C'
aS'A'
aS'A'
aS'T'
aS'T'
aS'C'
aS'T'
aS'T'
aS'G'
aS'C'
aS'T'
aS'A'
aS'A'
aS'T'
aS'T'
aS'T'
aS'T'
aS'T'
aS'T'
aS'T'
aS'T'
aS'T'
aS'C'
aS'T'
aS'G'
aS'C'
aS'T'
aS'T'
aS'T'
aS'A'
aS'G'
aS'C'
aS'G'
aS'G'
aS'A'
aS'T'
aS'G'
aS'A'
aS'A'
aS'G'
aS'A'
aS'A'
aS'G'
aS'C'
aS'T'
aS'C'
aS'C'
aS'T'
aS'G'
aS'A'
aS'T'
aS'T'
aS'A'
aS'T'
aS'G'
aS'G'
aS'C'
aS'T'
aS'C'
aS'T'
aS'G'
aS'G'
aS'A'
aS'A'
aS'T'
aS'T'
aS'C'
aS'G'
aS'A'
aS'C'
aS'A'
aS'G'
aS'T'
aS'C'
aS'A'
aS'G'
aS'G'
aS'A'
aS'A'
aS'C'
aS'A'
aS'G'
aS'C'
aS'T'
aS'A'
aS'A'
aS'A'
aS'A'
aS'T'
aS'A'
aS'T'
aS'G'
aS'T'
aS'T'
aS'T'
aS'T'
aS'G'
aS'A'
aS'T'
aS'A'
aS'A'
aS'T'
aS'G'
aS'A'
aS'A'
aS'T'
aS'A'
aS'C'
aS'T'
aS'T'
aS'T'
aS'A'
aS'A'
aS'T'
aS'C'
aS'A'
aS'G'
aS'G'
aS'T'
aS'G'
aS'A'
aS'G'
aS'A'
aS'A'
aS'A'
aS'C'
aS'C'
aS'G'
aS'T'
aS'C'
aS'A'
aS'G'
aS'G'
aS'A'
aS'A'
aS'G'
aS'A'
aS'A'
aS'G'
aS'G'
aS'A'
aS'A'
aS'A'
aS'A'
aS'C'
aS'C'
aS'C'
aS'T'
aS'G'
aS'T'
aS'G'
aS'G'
aS'A'
aS'A'
aS'A'
aS'G'
aS'A'
aS'G'
aS'A'
aS'A'
aS'A'
aS'G'
aS'A'
aS'A'
aS'T'
aS'G'
aS'T'
aS'T'
aS'C'
aS'A'
aS'G'
aS'C'
aS'A'
aS'T'
aS'T'
aS'G'
aS'G'
aS'A'
aS'G'
aS'A'
aS'T'
aS'C'
aS'A'
aS'G'
aS'T'
aS'T'
aS'C'
aS'T'
aS'C'
aS'C'
aS'T'
aS'G'
aS'T'
aS'A'
aS'A'
aS'A'
aS'A'
aS'C'
aS'T'
aS'G'
aS'A'
aS'A'
aS'A'
aS'A'
aS'A'
aS'T'
aS'A'
aS'C'
aS'A'
aS'G'
aS'G'
aS'G'
aS'T'
aS'G'
aS'C'
aS'T'
aS'G'
aS'G'
aS'T'
aS'T'
aS'G'
aS'C'
aS'C'
aS'A'
aS'C'
aS'A'
aS'G'
aS'A'
aS'G'
aS'T'
aS'A'
aS'G'
aS'T'
aS'T'
aS'C'
aS'A'
aS'A'
aS'T'
aS'A'
aS'G'
aS'A'
aS'A'
aS'T'
aS'A'
aS'T'
aS'G'
aS'G'
aS'G'
aS'A'
aS'C'
aS'A'
aS'T'
aS'G'
aS'T'
aS'C'
aS'T'
aS'A'
aS'A'
aS'C'
aS'A'
aS'A'
aS'T'
aS'T'
aS'A'
aS'T'
aS'G'
aS'A'
assI28
(dp167
g109
I131369
sg110
I129
sg111
I429
sg112
I131498
sg113
(lp168
S'T'
aS'T'
aS'A'
aS'T'
aS'T'
aS'C'
aS'A'
aS'T'
aS'T'
aS'G'
aS'C'
aS'C'
aS'T'
aS'T'
aS'T'
aS'C'
aS'C'
aS'T'
aS'C'
aS'A'
aS'G'
aS'A'
aS'C'
aS'A'
aS'G'
aS'C'
aS'C'
aS'C'
aS'T'
aS'C'
aS'A'
aS'G'
aS'T'
aS'C'
aS'C'
aS'A'
aS'T'
aS'A'
aS'T'
aS'A'
aS'A'
aS'T'
aS'T'
aS'T'
aS'T'
aS'C'
aS'C'
aS'A'
aS'G'
aS'T'
aS'C'
aS'A'
aS'C'
aS'T'
aS'A'
aS'T'
aS'T'
aS'A'
aS'T'
aS'T'
aS'T'
aS'G'
aS'T'
aS'T'
aS'G'
aS'G'
aS'A'
aS'C'
aS'A'
aS'G'
aS'A'
aS'T'
aS'A'
aS'A'
aS'A'
aS'C'
aS'A'
aS'G'
aS'A'
aS'A'
aS'G'
aS'T'
aS'A'
aS'A'
aS'G'
aS'G'
aS'C'
aS'A'
aS'A'
aS'C'
aS'T'
aS'G'
aS'G'
aS'G'
aS'G'
aS'A'
aS'A'
aS'A'
aS'A'
aS'A'
aS'T'
aS'A'
aS'C'
aS'G'
aS'T'
aS'T'
aS'T'
aS'T'
aS'T'
aS'A'
aS'T'
aS'A'
aS'C'
aS'T'
aS'A'
aS'C'
aS'T'
aS'T'
aS'T'
aS'A'
aS'C'
aS'C'
aS'A'
aS'T'
aS'G'
aS'T'
aS'A'
aS'T'
aS'C'
aS'T'
aS'G'
aS'C'
aS'C'
aS'C'
aS'C'
aS'T'
aS'G'
aS'C'
aS'C'
aS'T'
aS'T'
aS'T'
aS'T'
aS'T'
aS'T'
aS'T'
aS'C'
aS'A'
aS'G'
aS'A'
aS'G'
aS'T'
aS'G'
aS'A'
aS'A'
aS'T'
aS'T'
aS'T'
aS'T'
aS'C'
aS'G'
aS'T'
aS'C'
aS'T'
aS'G'
aS'T'
aS'T'
aS'G'
aS'C'
aS'A'
aS'A'
aS'T'
aS'G'
aS'A'
aS'C'
aS'T'
aS'C'
aS'G'
aS'T'
aS'T'
aS'C'
aS'T'
aS'G'
aS'G'
aS'T'
aS'C'
aS'T'
aS'G'
aS'T'
aS'C'
aS'C'
aS'T'
aS'T'
aS'G'
aS'G'
aS'A'
aS'G'
aS'G'
aS'A'
aS'G'
aS'T'
aS'T'
aS'G'
aS'A'
aS'G'
aS'G'
aS'A'
aS'T'
aS'T'
aS'G'
aS'T'
aS'G'
aS'G'
aS'A'
aS'A'
aS'G'
aS'G'
aS'A'
aS'C'
aS'A'
aS'G'
aS'G'
aS'G'
aS'T'
aS'C'
aS'A'
aS'G'
aS'A'
aS'G'
aS'T'
aS'T'
aS'C'
aS'T'
aS'G'
aS'A'
aS'G'
aS'G'
aS'T'
aS'C'
aS'A'
aS'T'
aS'C'
aS'A'
aS'C'
aS'T'
aS'C'
aS'C'
aS'T'
aS'C'
aS'C'
aS'A'
aS'G'
aS'A'
aS'A'
aS'G'
aS'A'
aS'A'
aS'A'
aS'T'
aS'C'
aS'A'
aS'G'
aS'T'
aS'C'
aS'G'
aS'A'
aS'A'
aS'T'
aS'T'
aS'A'
aS'A'
aS'T'
aS'G'
aS'A'
aS'C'
aS'T'
aS'T'
aS'G'
aS'G'
aS'G'
aS'T'
aS'A'
aS'T'
aS'G'
aS'T'
aS'A'
aS'G'
aS'A'
aS'C'
aS'A'
aS'T'
aS'A'
aS'G'
aS'T'
aS'T'
aS'T'
aS'A'
aS'C'
aS'T'
aS'G'
aS'T'
aS'G'
aS'C'
aS'T'
aS'T'
aS'G'
aS'G'
aS'G'
aS'G'
aS'A'
aS'C'
aS'A'
aS'T'
aS'T'
aS'T'
aS'T'
aS'C'
aS'G'
aS'A'
aS'C'
aS'A'
aS'A'
aS'A'
aS'G'
aS'G'
aS'G'
aS'A'
aS'A'
aS'A'
aS'A'
aS'T'
aS'A'
aS'T'
aS'T'
aS'G'
aS'A'
aS'C'
aS'C'
aS'A'
aS'T'
aS'T'
aS'A'
aS'T'
aS'C'
aS'A'
aS'A'
aS'G'
aS'G'
aS'G'
aS'A'
aS'C'
aS'A'
aS'T'
aS'A'
aS'G'
aS'T'
aS'G'
aS'G'
aS'C'
aS'C'
aS'T'
aS'T'
aS'C'
aS'A'
aS'T'
aS'C'
aS'A'
aS'A'
aS'C'
aS'T'
aS'A'
aS'G'
aS'G'
aS'A'
aS'A'
aS'T'
aS'G'
aS'G'
aS'A'
aS'A'
aS'A'
aS'G'
aS'C'
aS'A'
aS'T'
aS'G'
aS'C'
aS'C'
aS'C'
aS'A'
aS'A'
aS'C'
aS'T'
aS'C'
aS'C'
aS'C'
aS'T'
aS'C'
aS'C'
aS'T'
aS'C'
aS'T'
aS'T'
aS'T'
aS'G'
aS'C'
aS'A'
aS'T'
aS'T'
aS'A'
aS'T'
aS'T'
aS'T'
aS'G'
aS'A'
aS'A'
aS'C'
aS'C'
aS'A'
aS'T'
aS'C'
aS'T'
aS'G'
aS'T'
aS'G'
aS'T'
aS'C'
aS'T'
aS'T'
assI29
(dp169
g109
I131666
sg110
I162
sg111
I462
sg112
I131828
sg113
(lp170
S'C'
aS'T'
aS'G'
aS'T'
aS'G'
aS'C'
aS'T'
aS'T'
aS'G'
aS'G'
aS'G'
aS'G'
aS'A'
aS'C'
aS'A'
aS'T'
aS'T'
aS'T'
aS'T'
aS'C'
aS'G'
aS'A'
aS'C'
aS'A'
aS'A'
aS'A'
aS'G'
aS'G'
aS'G'
aS'A'
aS'A'
aS'A'
aS'A'
aS'T'
aS'A'
aS'T'
aS'T'
aS'G'
aS'A'
aS'C'
aS'C'
aS'A'
aS'T'
aS'T'
aS'A'
aS'T'
aS'C'
aS'A'
aS'A'
aS'G'
aS'G'
aS'G'
aS'A'
aS'C'
aS'A'
aS'T'
aS'A'
aS'G'
aS'T'
aS'G'
aS'G'
aS'C'
aS'C'
aS'T'
aS'T'
aS'C'
aS'A'
aS'T'
aS'C'
aS'A'
aS'A'
aS'C'
aS'T'
aS'A'
aS'G'
aS'G'
aS'A'
aS'A'
aS'T'
aS'G'
aS'G'
aS'A'
aS'A'
aS'A'
aS'G'
aS'C'
aS'A'
aS'T'
aS'G'
aS'C'
aS'C'
aS'C'
aS'A'
aS'A'
aS'C'
aS'T'
aS'C'
aS'C'
aS'C'
aS'T'
aS'C'
aS'C'
aS'T'
aS'C'
aS'T'
aS'T'
aS'T'
aS'G'
aS'C'
aS'A'
aS'T'
aS'T'
aS'A'
aS'T'
aS'T'
aS'T'
aS'G'
aS'A'
aS'A'
aS'C'
aS'C'
aS'A'
aS'T'
aS'C'
aS'T'
aS'G'
aS'T'
aS'G'
aS'T'
aS'C'
aS'T'
aS'T'
aS'C'
aS'A'
aS'T'
aS'T'
aS'T'
aS'G'
aS'A'
aS'C'
aS'C'
aS'C'
aS'T'
aS'C'
aS'T'
aS'T'
aS'T'
aS'A'
aS'G'
aS'A'
aS'T'
aS'T'
aS'T'
aS'G'
aS'A'
aS'A'
aS'G'
aS'T'
aS'C'
aS'A'
aS'A'
aS'G'
aS'C'
aS'A'
aS'C'
aS'T'
aS'T'
aS'T'
aS'G'
aS'C'
aS'T'
aS'G'
aS'G'
aS'A'
aS'T'
aS'G'
aS'G'
aS'T'
aS'A'
aS'A'
aS'G'
aS'A'
aS'T'
aS'C'
aS'G'
aS'T'
aS'A'
aS'A'
aS'T'
aS'G'
aS'G'
aS'A'
aS'A'
aS'G'
aS'G'
aS'G'
aS'T'
aS'T'
aS'T'
aS'T'
aS'C'
aS'T'
aS'G'
aS'A'
aS'A'
aS'G'
aS'A'
aS'G'
aS'A'
aS'T'
aS'T'
aS'G'
aS'G'
aS'C'
aS'A'
aS'A'
aS'C'
aS'C'
aS'A'
aS'C'
aS'C'
aS'T'
aS'G'
aS'A'
aS'A'
aS'A'
aS'C'
aS'T'
aS'G'
aS'G'
aS'G'
aS'C'
aS'A'
aS'G'
aS'T'
aS'G'
aS'C'
aS'C'
aS'T'
aS'T'
aS'C'
aS'A'
aS'C'
aS'T'
aS'T'
aS'T'
aS'C'
aS'C'
aS'G'
aS'A'
aS'G'
aS'T'
aS'A'
aS'A'
aS'C'
aS'A'
aS'G'
aS'T'
aS'G'
aS'T'
aS'T'
aS'G'
aS'C'
aS'A'
aS'G'
aS'G'
aS'C'
aS'C'
aS'A'
aS'G'
aS'T'
aS'G'
aS'G'
aS'A'
aS'A'
aS'T'
aS'C'
aS'C'
aS'T'
aS'C'
aS'C'
aS'C'
aS'A'
aS'G'
aS'A'
aS'G'
aS'T'
aS'A'
aS'T'
aS'G'
aS'C'
aS'A'
aS'G'
aS'A'
aS'T'
aS'A'
aS'T'
aS'C'
aS'T'
aS'T'
aS'C'
aS'T'
aS'G'
aS'T'
aS'C'
aS'A'
aS'G'
aS'T'
aS'T'
aS'C'
aS'A'
aS'A'
aS'G'
aS'T'
aS'A'
aS'A'
aS'G'
aS'C'
aS'T'
aS'G'
aS'C'
aS'C'
aS'C'
aS'C'
aS'T'
aS'T'
aS'T'
aS'G'
aS'C'
aS'T'
aS'C'
aS'T'
aS'G'
aS'C'
aS'C'
aS'T'
aS'C'
aS'C'
aS'C'
aS'A'
aS'G'
aS'C'
aS'T'
aS'A'
aS'G'
aS'C'
aS'T'
aS'G'
aS'C'
aS'T'
aS'A'
aS'A'
aS'C'
aS'C'
aS'G'
aS'A'
aS'G'
aS'G'
aS'T'
aS'G'
aS'A'
aS'C'
aS'A'
aS'T'
aS'C'
aS'T'
aS'C'
aS'T'
aS'T'
aS'G'
aS'T'
aS'G'
aS'C'
aS'A'
aS'C'
aS'T'
aS'G'
aS'T'
aS'A'
aS'G'
aS'A'
aS'G'
aS'T'
aS'G'
aS'C'
aS'T'
aS'T'
aS'T'
aS'A'
aS'C'
aS'A'
aS'T'
aS'G'
aS'T'
aS'G'
aS'T'
aS'G'
aS'A'
aS'G'
aS'G'
aS'G'
aS'A'
aS'T'
aS'T'
aS'A'
aS'A'
aS'C'
aS'A'
aS'C'
aS'T'
aS'C'
aS'T'
aS'T'
aS'G'
aS'A'
aS'G'
aS'A'
aS'C'
aS'A'
aS'A'
aS'A'
aS'G'
aS'A'
aS'C'
aS'T'
aS'G'
aS'A'
aS'T'
aS'C'
aS'A'
aS'G'
aS'T'
aS'C'
aS'T'
aS'C'
aS'T'
aS'G'
aS'A'
aS'A'
aS'G'
aS'G'
aS'A'
aS'A'
aS'A'
aS'A'
aS'T'
aS'A'
aS'C'
aS'T'
aS'T'
aS'T'
aS'C'
aS'A'
aS'T'
aS'C'
aS'A'
aS'C'
aS'T'
aS'C'
aS'C'
aS'T'
aS'A'
assI30
(dp171
g109
I134064
sg110
I90
sg111
I390
sg112
I134154
sg113
(lp172
S'A'
aS'A'
aS'A'
aS'G'
aS'G'
aS'T'
aS'T'
aS'C'
aS'T'
aS'T'
aS'G'
aS'A'
aS'C'
aS'A'
aS'A'
aS'G'
aS'G'
aS'A'
aS'A'
aS'A'
aS'G'
aS'T'
aS'A'
aS'A'
aS'A'
aS'T'
aS'A'
aS'A'
aS'C'
aS'T'
aS'T'
aS'A'
aS'A'
aS'A'
aS'G'
aS'A'
aS'A'
aS'T'
aS'C'
aS'T'
aS'G'
aS'C'
aS'T'
aS'T'
aS'A'
aS'A'
aS'G'
aS'T'
aS'G'
aS'G'
aS'A'
aS'A'
aS'T'
aS'G'
aS'C'
aS'T'
aS'T'
aS'C'
aS'T'
aS'T'
aS'T'
aS'C'
aS'T'
aS'G'
aS'T'
aS'A'
aS'G'
aS'G'
aS'A'
aS'T'
aS'C'
aS'C'
aS'A'
aS'C'
aS'A'
aS'T'
aS'T'
aS'G'
aS'G'
aS'G'
aS'C'
aS'T'
aS'C'
aS'T'
aS'T'
aS'G'
aS'A'
aS'A'
aS'A'
aS'G'
aS'A'
aS'G'
aS'A'
aS'T'
aS'T'
aS'C'
aS'T'
aS'G'
aS'A'
aS'T'
aS'A'
aS'A'
aS'A'
aS'A'
aS'C'
aS'C'
aS'G'
aS'T'
aS'T'
aS'T'
aS'A'
aS'A'
aS'T'
aS'G'
aS'C'
aS'A'
aS'T'
aS'T'
aS'G'
aS'T'
aS'T'
aS'C'
aS'A'
aS'C'
aS'G'
aS'A'
aS'G'
aS'T'
aS'C'
aS'T'
aS'T'
aS'T'
aS'T'
aS'T'
aS'A'
aS'T'
aS'T'
aS'T'
aS'T'
aS'T'
aS'T'
aS'T'
aS'T'
aS'A'
aS'T'
aS'G'
aS'A'
aS'A'
aS'G'
aS'C'
aS'T'
aS'T'
aS'T'
aS'T'
aS'T'
aS'G'
aS'C'
aS'A'
aS'T'
aS'C'
aS'G'
aS'C'
aS'C'
aS'A'
aS'T'
aS'G'
aS'A'
aS'T'
aS'G'
aS'A'
aS'A'
aS'G'
aS'C'
aS'A'
aS'T'
aS'T'
aS'C'
aS'T'
aS'C'
aS'C'
aS'A'
aS'C'
aS'G'
aS'G'
aS'A'
aS'G'
aS'C'
aS'C'
aS'C'
aS'C'
aS'T'
aS'C'
aS'A'
aS'A'
aS'A'
aS'A'
aS'A'
aS'C'
aS'A'
aS'A'
aS'T'
aS'G'
aS'G'
aS'C'
aS'A'
aS'G'
aS'A'
aS'G'
aS'G'
aS'A'
aS'A'
aS'G'
aS'T'
aS'C'
aS'C'
aS'C'
aS'C'
aS'T'
aS'G'
aS'G'
aS'C'
aS'C'
aS'T'
aS'T'
aS'A'
aS'T'
aS'A'
aS'T'
aS'C'
aS'A'
aS'T'
aS'G'
aS'T'
aS'G'
aS'C'
aS'A'
aS'G'
aS'A'
aS'A'
aS'T'
aS'G'
aS'T'
aS'A'
aS'A'
aS'G'
aS'T'
aS'G'
aS'A'
aS'C'
aS'A'
aS'T'
aS'G'
aS'G'
aS'A'
aS'C'
aS'C'
aS'T'
aS'T'
aS'T'
aS'T'
aS'T'
aS'G'
aS'C'
aS'C'
aS'A'
aS'A'
aS'A'
aS'C'
aS'A'
aS'T'
aS'A'
aS'T'
aS'G'
aS'T'
aS'T'
aS'T'
aS'T'
aS'T'
aS'C'
aS'T'
aS'G'
aS'G'
aS'T'
aS'A'
aS'C'
aS'C'
aS'T'
aS'T'
aS'G'
aS'G'
aS'C'
aS'T'
aS'T'
aS'T'
aS'C'
aS'T'
aS'C'
aS'A'
aS'G'
aS'C'
aS'C'
aS'C'
aS'G'
aS'G'
aS'G'
aS'A'
aS'A'
aS'G'
aS'G'
aS'G'
aS'T'
aS'G'
aS'A'
aS'T'
aS'A'
aS'A'
aS'G'
aS'A'
aS'A'
aS'G'
aS'A'
aS'G'
aS'G'
aS'T'
aS'A'
aS'C'
aS'A'
aS'A'
aS'G'
aS'T'
aS'C'
aS'A'
aS'C'
aS'T'
aS'G'
aS'G'
aS'C'
aS'T'
aS'G'
aS'T'
aS'G'
aS'C'
aS'A'
aS'G'
aS'G'
aS'G'
aS'G'
aS'G'
aS'A'
aS'G'
aS'A'
aS'G'
aS'T'
aS'A'
aS'G'
aS'A'
aS'C'
aS'A'
aS'A'
aS'T'
aS'A'
aS'G'
aS'A'
aS'G'
aS'G'
aS'G'
aS'C'
aS'G'
aS'T'
aS'G'
aS'G'
aS'C'
aS'T'
aS'A'
aS'G'
aS'A'
aS'G'
aS'T'
aS'G'
aS'G'
aS'T'
aS'G'
aS'A'
aS'G'
aS'G'
aS'T'
aS'C'
aS'A'
aS'T'
aS'C'
assI31
(dp173
g109
I136345
sg110
I118
sg111
I418
sg112
I136463
sg113
(lp174
S'G'
aS'G'
aS'T'
aS'G'
aS'A'
aS'G'
aS'G'
aS'C'
aS'C'
aS'G'
aS'C'
aS'A'
aS'T'
aS'G'
aS'A'
aS'G'
aS'C'
aS'C'
aS'T'
aS'T'
aS'G'
aS'T'
aS'T'
aS'T'
aS'G'
aS'C'
aS'G'
aS'T'
aS'G'
aS'C'
aS'T'
aS'A'
aS'C'
aS'A'
aS'G'
aS'A'
aS'G'
aS'C'
aS'A'
aS'A'
aS'G'
aS'A'
aS'C'
aS'C'
aS'T'
aS'T'
aS'G'
aS'C'
aS'C'
aS'T'
aS'C'
aS'A'
aS'A'
aS'A'
aS'A'
aS'A'
aS'A'
aS'A'
aS'A'
aS'A'
aS'A'
aS'A'
aS'A'
aS'A'
aS'A'
aS'A'
aS'A'
aS'A'
aS'C'
aS'C'
aS'C'
aS'A'
aS'A'
aS'A'
aS'A'
aS'T'
aS'A'
aS'C'
aS'G'
aS'T'
aS'A'
aS'C'
aS'T'
aS'A'
aS'A'
aS'A'
aS'G'
aS'T'
aS'T'
aS'C'
aS'T'
aS'G'
aS'A'
aS'T'
aS'T'
aS'G'
aS'A'
aS'A'
aS'G'
aS'C'
aS'A'
aS'A'
aS'A'
aS'A'
aS'A'
aS'T'
aS'G'
aS'T'
aS'G'
aS'T'
aS'A'
aS'T'
aS'T'
aS'T'
aS'T'
aS'C'
aS'T'
aS'T'
aS'G'
aS'T'
aS'A'
aS'A'
aS'T'
aS'C'
aS'T'
aS'T'
aS'T'
aS'T'
aS'C'
aS'C'
aS'T'
aS'A'
aS'A'
aS'T'
aS'C'
aS'T'
aS'T'
aS'G'
aS'C'
aS'T'
aS'T'
aS'G'
aS'G'
aS'C'
aS'T'
aS'T'
aS'T'
aS'A'
aS'G'
aS'A'
aS'T'
aS'T'
aS'G'
aS'C'
aS'A'
aS'G'
aS'T'
aS'G'
aS'G'
aS'A'
aS'G'
aS'A'
aS'A'
aS'C'
aS'A'
aS'C'
aS'T'
aS'G'
aS'A'
aS'A'
aS'T'
aS'C'
aS'A'
aS'T'
aS'T'
aS'T'
aS'G'
aS'T'
aS'G'
aS'G'
aS'A'
aS'T'
aS'T'
aS'A'
aS'C'
aS'A'
aS'T'
aS'C'
aS'A'
aS'A'
aS'A'
aS'A'
aS'C'
aS'C'
aS'A'
aS'A'
aS'G'
aS'C'
aS'C'
aS'T'
aS'A'
aS'T'
aS'T'
aS'G'
aS'T'
aS'A'
aS'T'
aS'T'
aS'T'
aS'G'
aS'A'
aS'A'
aS'G'
aS'T'
aS'C'
aS'T'
aS'T'
aS'T'
aS'G'
aS'G'
aS'G'
aS'C'
aS'A'
aS'T'
aS'T'
aS'A'
aS'T'
aS'C'
aS'A'
aS'G'
aS'C'
aS'A'
aS'G'
aS'C'
aS'A'
aS'C'
aS'C'
aS'C'
aS'A'
aS'C'
aS'T'
aS'T'
aS'C'
aS'A'
aS'T'
aS'C'
aS'T'
aS'G'
aS'C'
aS'A'
aS'A'
aS'G'
aS'G'
aS'A'
aS'C'
aS'A'
aS'G'
aS'G'
aS'A'
aS'G'
aS'C'
aS'T'
aS'T'
aS'A'
aS'A'
aS'C'
aS'A'
aS'G'
aS'G'
aS'T'
aS'T'
aS'T'
aS'G'
aS'G'
aS'A'
aS'C'
aS'C'
aS'A'
aS'G'
aS'A'
aS'T'
aS'A'
aS'A'
aS'G'
aS'C'
aS'A'
aS'A'
aS'A'
aS'C'
aS'A'
aS'T'
aS'T'
aS'T'
aS'T'
aS'T'
aS'G'
aS'A'
aS'T'
aS'G'
aS'G'
aS'T'
aS'A'
aS'T'
aS'T'
aS'G'
aS'T'
aS'T'
aS'T'
aS'T'
aS'G'
aS'A'
aS'T'
aS'T'
aS'T'
aS'T'
aS'T'
aS'A'
aS'G'
aS'T'
aS'T'
aS'T'
aS'C'
aS'T'
aS'C'
aS'A'
aS'A'
aS'T'
aS'T'
aS'G'
aS'C'
aS'T'
aS'G'
aS'G'
aS'A'
aS'A'
aS'A'
aS'G'
aS'G'
aS'A'
aS'A'
aS'G'
aS'A'
aS'A'
aS'A'
aS'T'
aS'C'
aS'T'
aS'T'
aS'T'
aS'T'
aS'G'
aS'A'
aS'G'
aS'G'
aS'G'
aS'A'
aS'T'
aS'T'
aS'A'
aS'A'
aS'G'
aS'A'
aS'T'
aS'A'
aS'A'
aS'C'
aS'T'
aS'A'
aS'A'
aS'A'
aS'T'
aS'A'
aS'A'
aS'G'
aS'T'
aS'A'
aS'T'
aS'T'
aS'C'
aS'T'
aS'A'
aS'T'
aS'A'
aS'T'
aS'T'
aS'A'
aS'C'
aS'C'
aS'C'
aS'T'
aS'G'
aS'T'
aS'T'
aS'T'
aS'C'
aS'C'
aS'T'
aS'C'
aS'T'
aS'T'
aS'T'
aS'A'
aS'G'
aS'A'
aS'A'
aS'A'
aS'C'
aS'T'
aS'T'
aS'C'
aS'A'
aS'C'
aS'T'
aS'A'
aS'T'
aS'C'
aS'A'
aS'T'
assI32
(dp175
g109
I137527
sg110
I55
sg111
I355
sg112
I137582
sg113
(lp176
S'A'
aS'C'
aS'T'
aS'G'
aS'T'
aS'C'
aS'A'
aS'C'
aS'A'
aS'G'
aS'A'
aS'A'
aS'C'
aS'T'
aS'T'
aS'T'
aS'T'
aS'A'
aS'C'
aS'G'
aS'T'
aS'A'
aS'C'
aS'A'
aS'T'
aS'T'
aS'C'
aS'T'
aS'C'
aS'A'
aS'C'
aS'T'
aS'C'
aS'C'
aS'T'
aS'A'
aS'C'
aS'T'
aS'T'
aS'G'
aS'T'
aS'G'
aS'A'
aS'A'
aS'A'
aS'C'
aS'C'
aS'C'
aS'C'
aS'T'
aS'A'
aS'A'
aS'A'
aS'G'
aS'A'
aS'G'
aS'A'
aS'A'
aS'G'
aS'G'
aS'A'
aS'A'
aS'A'
aS'T'
aS'T'
aS'C'
aS'A'
aS'A'
aS'T'
aS'T'
aS'T'
aS'G'
aS'C'
aS'A'
aS'G'
aS'T'
aS'C'
aS'C'
aS'A'
aS'G'
aS'C'
aS'A'
aS'C'
aS'A'
aS'A'
aS'A'
aS'G'
aS'G'
aS'G'
aS'G'
aS'A'
aS'G'
aS'A'
aS'A'
aS'T'
aS'T'
aS'T'
aS'C'
aS'T'
aS'A'
aS'A'
aS'A'
aS'A'
aS'T'
aS'A'
aS'A'
aS'A'
aS'T'
aS'A'
aS'A'
aS'C'
aS'T'
aS'C'
aS'T'
aS'T'
aS'T'
aS'A'
aS'T'
aS'A'
aS'G'
aS'T'
aS'C'
aS'T'
aS'T'
aS'G'
aS'A'
aS'T'
aS'C'
aS'T'
aS'T'
aS'T'
aS'G'
aS'T'
aS'C'
aS'T'
aS'T'
aS'C'
aS'C'
aS'T'
aS'T'
aS'T'
aS'C'
aS'T'
aS'T'
aS'T'
aS'G'
aS'C'
aS'A'
aS'G'
aS'T'
aS'C'
aS'C'
aS'G'
aS'C'
aS'C'
aS'T'
aS'C'
aS'A'
aS'G'
aS'C'
aS'C'
aS'G'
aS'T'
aS'G'
aS'C'
aS'C'
aS'G'
aS'C'
aS'C'
aS'G'
aS'A'
aS'T'
aS'T'
aS'C'
aS'T'
aS'T'
aS'C'
aS'C'
aS'C'
aS'T'
aS'C'
aS'C'
aS'A'
aS'C'
aS'C'
aS'G'
aS'A'
aS'T'
aS'G'
aS'C'
aS'C'
aS'A'
aS'C'
aS'T'
aS'G'
aS'T'
aS'C'
aS'C'
aS'A'
aS'A'
aS'G'
aS'C'
aS'C'
aS'A'
aS'G'
aS'G'
aS'T'
aS'G'
aS'A'
aS'G'
aS'C'
aS'A'
aS'C'
aS'T'
aS'C'
aS'G'
aS'C'
aS'T'
aS'C'
aS'C'
aS'G'
aS'C'
aS'T'
aS'T'
aS'T'
aS'T'
aS'T'
aS'G'
aS'C'
aS'A'
aS'T'
aS'G'
aS'A'
aS'T'
aS'G'
aS'A'
aS'T'
aS'C'
aS'T'
aS'C'
aS'T'
aS'T'
aS'T'
aS'G'
aS'T'
aS'G'
aS'A'
aS'A'
aS'T'
aS'A'
aS'C'
aS'A'
aS'T'
aS'G'
aS'T'
aS'C'
aS'T'
aS'T'
aS'A'
aS'T'
aS'T'
aS'C'
aS'T'
aS'G'
aS'A'
aS'A'
aS'T'
aS'G'
aS'A'
aS'C'
aS'T'
aS'T'
aS'T'
aS'T'
aS'C'
aS'A'
aS'A'
aS'A'
aS'T'
aS'A'
aS'G'
aS'A'
aS'A'
aS'G'
aS'T'
aS'C'
aS'A'
aS'T'
aS'G'
aS'T'
aS'T'
aS'T'
aS'G'
aS'A'
aS'A'
aS'T'
aS'T'
aS'C'
aS'C'
aS'T'
aS'A'
aS'T'
aS'T'
aS'C'
aS'T'
aS'T'
aS'C'
aS'T'
aS'A'
aS'T'
aS'A'
aS'T'
aS'A'
aS'T'
aS'C'
aS'C'
aS'A'
aS'C'
aS'A'
aS'T'
aS'G'
aS'T'
aS'A'
aS'T'
aS'T'
aS'C'
aS'C'
aS'T'
aS'G'
aS'C'
aS'T'
aS'C'
aS'C'
aS'T'
aS'C'
aS'T'
aS'T'
aS'G'
aS'T'
aS'A'
aS'T'
aS'G'
aS'T'
aS'A'
aS'T'
aS'C'
aS'T'
aS'A'
aS'G'
aS'T'
aS'A'
aS'G'
aS'G'
aS'A'
aS'A'
assI33
(dp177
g109
I140140
sg110
I108
sg111
I408
sg112
I140248
sg113
(lp178
S'T'
aS'G'
aS'T'
aS'T'
aS'T'
aS'C'
aS'T'
aS'C'
aS'T'
aS'G'
aS'G'
aS'G'
aS'T'
aS'C'
aS'T'
aS'T'
aS'T'
aS'T'
aS'G'
aS'C'
aS'A'
aS'T'
aS'T'
aS'G'
aS'A'
aS'A'
aS'A'
aS'T'
aS'C'
aS'T'
aS'T'
aS'T'
aS'C'
aS'C'
aS'T'
aS'C'
aS'T'
aS'G'
aS'A'
aS'C'
aS'T'
aS'C'
aS'T'
aS'T'
aS'G'
aS'C'
aS'T'
aS'G'
aS'C'
aS'C'
aS'T'
aS'T'
aS'T'
aS'C'
aS'C'
aS'C'
aS'A'
aS'A'
aS'G'
aS'T'
aS'A'
aS'T'
aS'G'
aS'T'
aS'C'
aS'T'
aS'T'
aS'T'
aS'A'
aS'A'
aS'A'
aS'G'
aS'A'
aS'C'
aS'T'
aS'G'
aS'A'
aS'C'
aS'A'
aS'T'
aS'T'
aS'A'
aS'G'
aS'A'
aS'G'
aS'A'
aS'A'
aS'G'
aS'C'
aS'T'
aS'T'
aS'G'
aS'T'
aS'A'
aS'T'
aS'T'
aS'T'
aS'T'
aS'T'
aS'G'
aS'C'
aS'T'
aS'G'
aS'A'
aS'G'
aS'T'
aS'A'
aS'G'
aS'T'
aS'C'
aS'T'
aS'T'
aS'G'
aS'G'
aS'A'
aS'C'
aS'C'
aS'A'
aS'G'
aS'A'
aS'T'
aS'T'
aS'T'
aS'T'
aS'G'
aS'A'
aS'C'
aS'A'
aS'T'
aS'A'
aS'C'
aS'T'
aS'C'
aS'T'
aS'A'
aS'A'
aS'A'
aS'A'
aS'A'
aS'C'
aS'T'
aS'T'
aS'T'
aS'T'
aS'A'
aS'A'
aS'A'
aS'A'
aS'G'
aS'T'
aS'T'
aS'C'
aS'C'
aS'A'
aS'G'
aS'C'
aS'C'
aS'A'
aS'C'
aS'C'
aS'A'
aS'A'
aS'G'
aS'T'
aS'T'
aS'A'
aS'A'
aS'A'
aS'C'
aS'A'
aS'C'
aS'G'
aS'A'
aS'T'
aS'G'
aS'A'
aS'G'
aS'C'
aS'A'
aS'A'
aS'A'
aS'A'
aS'C'
aS'C'
aS'A'
aS'G'
aS'C'
aS'C'
aS'T'
aS'T'
aS'G'
aS'G'
aS'C'
aS'C'
aS'A'
aS'G'
aS'A'
aS'G'
aS'C'
aS'A'
aS'T'
aS'G'
aS'A'
aS'G'
aS'C'
aS'A'
aS'A'
aS'G'
aS'T'
aS'A'
aS'T'
aS'G'
aS'A'
aS'C'
aS'C'
aS'T'
aS'C'
aS'C'
aS'T'
aS'G'
aS'G'
aS'T'
aS'T'
aS'T'
aS'G'
aS'G'
aS'T'
aS'T'
aS'T'
aS'G'
aS'A'
aS'G'
aS'C'
aS'T'
aS'C'
aS'A'
aS'G'
aS'T'
aS'G'
aS'A'
aS'A'
aS'C'
aS'T'
aS'G'
aS'G'
aS'A'
aS'G'
aS'C'
aS'C'
aS'T'
aS'A'
aS'C'
aS'A'
aS'G'
aS'G'
aS'A'
aS'G'
aS'A'
aS'G'
aS'T'
aS'A'
aS'A'
aS'G'
aS'T'
aS'C'
aS'C'
aS'A'
aS'A'
aS'C'
aS'T'
aS'T'
aS'A'
aS'A'
aS'T'
aS'A'
aS'A'
aS'A'
aS'T'
aS'T'
aS'T'
aS'T'
aS'T'
aS'A'
aS'A'
aS'A'
aS'T'
aS'A'
aS'A'
aS'G'
aS'G'
aS'C'
aS'A'
aS'A'
aS'A'
aS'A'
aS'T'
aS'G'
aS'T'
aS'T'
aS'T'
aS'C'
aS'A'
aS'A'
aS'A'
aS'T'
aS'T'
aS'A'
aS'G'
aS'G'
aS'A'
aS'A'
aS'A'
aS'T'
aS'G'
aS'C'
aS'A'
aS'A'
aS'T'
aS'T'
aS'T'
aS'T'
aS'G'
aS'A'
aS'A'
aS'T'
aS'C'
aS'T'
aS'T'
aS'C'
aS'T'
aS'T'
aS'G'
aS'T'
aS'A'
aS'T'
aS'T'
aS'T'
aS'G'
aS'G'
aS'G'
aS'T'
aS'T'
aS'C'
aS'A'
aS'T'
aS'G'
aS'A'
aS'A'
aS'T'
aS'C'
aS'A'
aS'T'
aS'T'
aS'G'
aS'T'
aS'C'
aS'A'
aS'C'
aS'T'
aS'G'
aS'T'
aS'C'
aS'A'
aS'A'
aS'A'
aS'T'
aS'T'
aS'C'
aS'C'
aS'A'
aS'G'
aS'G'
aS'G'
aS'A'
aS'T'
aS'G'
aS'G'
aS'T'
aS'T'
aS'T'
aS'T'
aS'G'
aS'T'
aS'T'
aS'T'
aS'T'
aS'T'
aS'G'
aS'T'
aS'T'
aS'T'
aS'T'
aS'T'
aS'G'
aS'T'
aS'T'
aS'T'
aS'T'
aS'A'
aS'A'
aS'T'
aS'A'
aS'G'
aS'A'
aS'G'
aS'A'
aS'T'
aS'G'
assI34
(dp179
g109
I142056
sg110
I66
sg111
I366
sg112
I142122
sg113
(lp180
S'G'
aS'A'
aS'T'
aS'G'
aS'A'
aS'G'
aS'T'
aS'A'
aS'A'
aS'A'
aS'T'
aS'G'
aS'C'
aS'A'
aS'A'
aS'A'
aS'T'
aS'G'
aS'A'
aS'C'
aS'T'
aS'G'
aS'T'
aS'A'
aS'T'
aS'G'
aS'A'
aS'T'
aS'T'
aS'A'
aS'A'
aS'A'
aS'T'
aS'G'
aS'C'
aS'C'
aS'A'
aS'G'
aS'C'
aS'A'
aS'T'
aS'G'
aS'G'
aS'G'
aS'T'
aS'G'
aS'A'
aS'G'
aS'A'
aS'A'
aS'A'
aS'G'
aS'A'
aS'C'
aS'A'
aS'T'
aS'G'
aS'G'
aS'G'
aS'A'
aS'T'
aS'C'
aS'A'
aS'G'
aS'A'
aS'A'
aS'T'
aS'T'
aS'T'
aS'A'
aS'T'
aS'C'
aS'A'
aS'A'
aS'A'
aS'A'
aS'C'
aS'A'
aS'A'
aS'A'
aS'G'
aS'A'
aS'C'
aS'C'
aS'A'
aS'C'
aS'C'
aS'A'
aS'G'
aS'G'
aS'G'
aS'G'
aS'C'
aS'T'
aS'A'
aS'A'
aS'G'
aS'C'
aS'C'
aS'T'
aS'T'
aS'G'
aS'C'
aS'A'
aS'G'
aS'A'
aS'T'
aS'G'
aS'A'
aS'A'
aS'G'
aS'T'
aS'A'
aS'G'
aS'C'
aS'A'
aS'C'
aS'T'
aS'T'
aS'A'
aS'G'
aS'T'
aS'T'
aS'T'
aS'T'
aS'T'
aS'T'
aS'C'
aS'T'
aS'T'
aS'T'
aS'T'
aS'G'
aS'C'
aS'G'
aS'T'
aS'T'
aS'T'
aS'C'
aS'T'
aS'A'
aS'T'
aS'T'
aS'T'
aS'T'
aS'T'
aS'T'
aS'A'
aS'G'
aS'G'
aS'T'
aS'A'
aS'T'
aS'A'
aS'T'
aS'C'
aS'C'
aS'C'
aS'A'
aS'G'
aS'C'
aS'T'
aS'G'
aS'T'
aS'G'
aS'G'
aS'T'
aS'T'
aS'G'
aS'A'
aS'C'
aS'C'
aS'A'
aS'C'
aS'A'
aS'C'
aS'A'
aS'T'
aS'C'
aS'A'
aS'G'
aS'G'
aS'C'
aS'T'
aS'T'
aS'G'
aS'C'
aS'C'
aS'T'
aS'T'
aS'G'
aS'C'
aS'C'
aS'A'
aS'G'
aS'G'
aS'G'
aS'G'
aS'A'
aS'C'
aS'A'
aS'T'
aS'T'
aS'T'
aS'T'
aS'T'
aS'G'
aS'C'
aS'T'
aS'T'
aS'C'
aS'A'
aS'T'
aS'C'
aS'A'
aS'G'
aS'G'
aS'T'
aS'A'
aS'C'
aS'T'
aS'A'
aS'A'
aS'T'
aS'G'
aS'A'
aS'G'
aS'G'
aS'G'
aS'A'
aS'C'
aS'C'
aS'A'
aS'A'
aS'A'
aS'A'
aS'C'
aS'A'
aS'G'
aS'G'
aS'C'
aS'A'
aS'T'
aS'C'
aS'G'
aS'G'
aS'A'
aS'G'
aS'G'
aS'G'
aS'A'
aS'A'
aS'C'
aS'A'
aS'C'
aS'T'
aS'G'
aS'A'
aS'A'
aS'A'
aS'A'
aS'G'
aS'A'
aS'A'
aS'T'
aS'T'
aS'T'
aS'A'
aS'G'
aS'A'
aS'A'
aS'T'
aS'A'
aS'A'
aS'G'
aS'A'
aS'G'
aS'A'
aS'C'
aS'G'
aS'G'
aS'A'
aS'A'
aS'T'
aS'T'
aS'C'
aS'T'
aS'T'
aS'T'
aS'C'
aS'T'
aS'T'
aS'A'
aS'T'
aS'T'
aS'C'
aS'T'
aS'C'
aS'T'
aS'G'
aS'T'
aS'T'
aS'T'
aS'T'
aS'C'
aS'A'
aS'T'
aS'C'
aS'T'
aS'C'
aS'T'
aS'A'
aS'T'
aS'T'
aS'T'
aS'C'
aS'A'
aS'G'
aS'A'
aS'G'
aS'G'
aS'G'
aS'T'
aS'G'
aS'G'
aS'G'
aS'C'
aS'G'
aS'G'
aS'G'
aS'G'
aS'C'
aS'A'
aS'T'
aS'T'
aS'G'
aS'T'
aS'C'
aS'C'
aS'T'
aS'G'
aS'T'
aS'T'
aS'G'
aS'T'
aS'C'
aS'A'
aS'T'
aS'T'
aS'T'
aS'T'
aS'T'
aS'T'
aS'T'
aS'T'
aS'T'
aS'T'
aS'T'
aS'T'
aS'T'
aS'C'
aS'T'
aS'G'
aS'T'
aS'G'
aS'T'
assI35
(dp181
g109
I142944
sg110
I84
sg111
I384
sg112
I143028
sg113
(lp182
S'T'
aS'T'
aS'G'
aS'A'
aS'A'
aS'T'
aS'A'
aS'A'
aS'C'
aS'A'
aS'A'
aS'T'
aS'G'
aS'T'
aS'G'
aS'G'
aS'A'
aS'T'
aS'A'
aS'G'
aS'C'
aS'A'
aS'T'
aS'T'
aS'T'
aS'T'
aS'C'
aS'C'
aS'G'
aS'T'
aS'C'
aS'T'
aS'T'
aS'T'
aS'C'
aS'C'
aS'A'
aS'C'
aS'A'
aS'C'
aS'C'
aS'T'
aS'C'
aS'T'
aS'C'
aS'C'
aS'T'
aS'T'
aS'C'
aS'C'
aS'T'
aS'G'
aS'C'
aS'T'
aS'C'
aS'A'
aS'T'
aS'C'
aS'C'
aS'C'
aS'C'
aS'C'
aS'A'
aS'T'
aS'G'
aS'C'
aS'C'
aS'A'
aS'T'
aS'G'
aS'C'
aS'C'
aS'A'
aS'T'
aS'A'
aS'C'
aS'A'
aS'G'
aS'G'
aS'C'
aS'C'
aS'A'
aS'G'
aS'A'
aS'A'
aS'A'
aS'A'
aS'C'
aS'A'
aS'G'
aS'T'
aS'A'
aS'G'
aS'A'
aS'C'
aS'G'
aS'A'
aS'G'
aS'A'
aS'G'
aS'G'
aS'A'
aS'G'
aS'A'
aS'T'
aS'A'
aS'A'
aS'T'
aS'A'
aS'G'
aS'A'
aS'T'
aS'T'
aS'G'
aS'C'
aS'T'
aS'T'
aS'C'
aS'A'
aS'G'
aS'C'
aS'T'
aS'A'
aS'A'
aS'A'
aS'T'
aS'T'
aS'G'
aS'C'
aS'A'
aS'A'
aS'C'
aS'C'
aS'C'
aS'T'
aS'G'
aS'C'
aS'T'
aS'T'
aS'C'
aS'A'
aS'T'
aS'T'
aS'A'
aS'C'
aS'C'
aS'T'
aS'A'
aS'G'
aS'G'
aS'G'
aS'C'
aS'A'
aS'T'
aS'C'
aS'C'
aS'A'
aS'G'
aS'C'
aS'G'
aS'A'
aS'A'
aS'G'
aS'G'
aS'C'
aS'T'
aS'C'
aS'A'
aS'C'
aS'A'
aS'G'
aS'T'
aS'G'
aS'A'
aS'C'
aS'C'
aS'A'
aS'T'
aS'T'
aS'A'
aS'T'
aS'C'
aS'C'
aS'A'
aS'T'
aS'G'
aS'A'
aS'G'
aS'A'
aS'A'
aS'G'
aS'G'
aS'G'
aS'G'
aS'A'
aS'G'
aS'C'
aS'G'
aS'A'
aS'G'
aS'C'
aS'T'
aS'C'
aS'C'
aS'A'
aS'T'
aS'T'
aS'G'
aS'G'
aS'A'
aS'A'
aS'A'
aS'G'
aS'A'
aS'T'
aS'G'
aS'T'
aS'T'
aS'C'
aS'G'
aS'T'
aS'G'
aS'A'
aS'A'
aS'C'
aS'T'
aS'G'
aS'G'
aS'T'
aS'G'
aS'G'
aS'T'
aS'A'
aS'G'
aS'G'
aS'T'
aS'G'
aS'A'
aS'G'
aS'T'
aS'A'
aS'C'
aS'G'
aS'T'
aS'T'
aS'T'
aS'C'
aS'A'
aS'T'
aS'C'
aS'A'
aS'G'
aS'C'
aS'C'
aS'A'
aS'A'
aS'G'
aS'G'
aS'A'
aS'T'
aS'A'
aS'G'
aS'A'
aS'A'
aS'C'
aS'C'
aS'A'
aS'G'
aS'G'
aS'A'
aS'C'
aS'T'
aS'T'
aS'A'
aS'C'
aS'A'
aS'G'
aS'A'
aS'G'
aS'A'
aS'T'
aS'T'
aS'T'
aS'T'
aS'T'
aS'T'
aS'T'
aS'T'
aS'T'
aS'T'
aS'T'
aS'T'
aS'T'
aS'T'
aS'G'
aS'A'
aS'G'
aS'A'
aS'T'
aS'A'
aS'G'
aS'G'
aS'G'
aS'T'
aS'C'
aS'T'
aS'T'
aS'G'
aS'C'
aS'T'
aS'C'
aS'T'
aS'G'
aS'T'
aS'C'
aS'A'
aS'C'
aS'C'
aS'C'
aS'A'
aS'G'
aS'G'
aS'C'
aS'T'
aS'G'
aS'G'
aS'A'
aS'G'
aS'T'
aS'A'
aS'C'
aS'A'
aS'G'
aS'T'
aS'G'
aS'A'
aS'T'
aS'G'
aS'A'
aS'G'
aS'A'
aS'T'
aS'C'
aS'A'
aS'T'
aS'A'
aS'G'
aS'C'
aS'T'
aS'C'
aS'C'
aS'C'
aS'T'
aS'G'
aS'T'
aS'A'
aS'G'
aS'C'
aS'C'
aS'T'
aS'C'
aS'A'
aS'A'
aS'A'
aS'C'
aS'T'
aS'C'
aS'C'
aS'T'
aS'G'
aS'G'
aS'G'
aS'C'
aS'T'
aS'C'
aS'A'
aS'A'
aS'G'
aS'C'
aS'A'
aS'A'
aS'T'
aS'C'
aS'C'
assI36
(dp183
g109
I146926
sg110
I105
sg111
I405
sg112
I147031
sg113
(lp184
S'G'
aS'T'
aS'C'
aS'A'
aS'G'
aS'A'
aS'C'
aS'C'
aS'G'
aS'T'
aS'G'
aS'G'
aS'A'
aS'G'
aS'G'
aS'A'
aS'C'
aS'C'
aS'C'
aS'T'
aS'A'
aS'C'
aS'A'
aS'G'
aS'G'
aS'T'
aS'A'
aS'A'
aS'C'
aS'C'
aS'A'
aS'A'
aS'A'
aS'T'
aS'G'
aS'A'
aS'C'
aS'C'
aS'C'
aS'T'
aS'T'
aS'C'
aS'C'
aS'A'
aS'G'
aS'C'
aS'T'
aS'C'
aS'C'
aS'T'
aS'G'
aS'A'
aS'A'
aS'C'
aS'T'
aS'T'
aS'A'
aS'C'
aS'A'
aS'C'
aS'A'
aS'G'
aS'A'
aS'G'
aS'A'
aS'T'
aS'T'
aS'T'
aS'A'
aS'A'
aS'A'
aS'A'
aS'G'
aS'T'
aS'C'
aS'T'
aS'C'
aS'T'
aS'T'
aS'T'
aS'T'
aS'G'
aS'G'
aS'G'
aS'C'
aS'T'
aS'T'
aS'A'
aS'A'
aS'T'
aS'G'
aS'A'
aS'A'
aS'T'
aS'T'
aS'C'
aS'A'
aS'T'
aS'G'
aS'T'
aS'T'
aS'T'
aS'T'
aS'G'
aS'T'
aS'T'
aS'T'
aS'T'
aS'C'
aS'A'
aS'A'
aS'A'
aS'T'
aS'G'
aS'T'
aS'G'
aS'T'
aS'C'
aS'C'
aS'G'
aS'T'
aS'G'
aS'C'
aS'T'
aS'C'
aS'T'
aS'G'
aS'T'
aS'T'
aS'T'
aS'T'
aS'T'
aS'T'
aS'T'
aS'T'
aS'A'
aS'T'
aS'C'
aS'C'
aS'T'
aS'T'
aS'T'
aS'C'
aS'T'
aS'T'
aS'T'
aS'T'
aS'A'
aS'G'
aS'G'
aS'T'
aS'C'
aS'G'
aS'T'
aS'A'
aS'T'
aS'T'
aS'C'
aS'G'
aS'G'
aS'A'
aS'A'
aS'T'
aS'A'
aS'A'
aS'G'
aS'C'
aS'C'
aS'T'
aS'G'
aS'A'
aS'G'
aS'G'
aS'T'
aS'G'
aS'G'
aS'A'
aS'T'
aS'G'
aS'A'
aS'A'
aS'G'
aS'C'
aS'T'
aS'G'
aS'C'
aS'A'
aS'G'
aS'T'
aS'T'
aS'G'
aS'A'
aS'T'
aS'A'
aS'C'
aS'C'
aS'A'
aS'T'
aS'C'
aS'C'
aS'T'
aS'C'
aS'T'
aS'C'
aS'C'
aS'C'
aS'T'
aS'A'
aS'A'
aS'A'
aS'T'
aS'A'
aS'T'
aS'T'
aS'A'
aS'T'
aS'T'
aS'T'
aS'C'
aS'T'
aS'G'
aS'C'
aS'C'
aS'A'
aS'A'
aS'G'
aS'T'
aS'A'
aS'C'
aS'C'
aS'T'
aS'G'
aS'A'
aS'A'
aS'G'
aS'T'
aS'C'
aS'T'
aS'T'
aS'C'
aS'C'
aS'C'
aS'A'
aS'C'
aS'A'
aS'A'
aS'C'
aS'T'
aS'C'
aS'T'
aS'A'
aS'G'
aS'C'
aS'A'
aS'G'
aS'G'
aS'T'
aS'G'
aS'G'
aS'G'
aS'A'
aS'C'
aS'A'
aS'C'
aS'C'
aS'C'
aS'A'
aS'G'
aS'A'
aS'G'
aS'C'
aS'A'
aS'G'
aS'T'
aS'G'
aS'T'
aS'G'
aS'A'
aS'A'
aS'G'
aS'A'
aS'A'
aS'G'
aS'T'
aS'C'
aS'C'
aS'A'
aS'C'
aS'A'
aS'C'
aS'T'
aS'T'
aS'G'
aS'C'
aS'A'
aS'G'
aS'G'
aS'C'
aS'G'
aS'T'
aS'T'
aS'A'
aS'A'
aS'T'
aS'T'
aS'G'
aS'G'
aS'T'
aS'A'
aS'C'
aS'A'
aS'C'
aS'C'
aS'G'
aS'T'
aS'T'
aS'A'
aS'G'
aS'G'
aS'T'
aS'G'
aS'C'
aS'C'
aS'T'
aS'T'
aS'A'
aS'T'
aS'T'
aS'C'
aS'A'
aS'T'
aS'T'
aS'A'
aS'A'
aS'T'
aS'G'
aS'A'
aS'C'
aS'T'
aS'C'
aS'C'
aS'C'
aS'A'
aS'G'
aS'T'
aS'T'
aS'C'
aS'G'
aS'G'
aS'A'
aS'C'
aS'A'
aS'A'
aS'A'
aS'G'
aS'A'
aS'A'
aS'A'
aS'T'
aS'T'
aS'A'
aS'A'
aS'C'
aS'T'
aS'C'
aS'C'
aS'C'
aS'T'
aS'T'
aS'C'
aS'T'
aS'C'
aS'C'
aS'C'
aS'T'
aS'T'
aS'C'
aS'T'
aS'A'
aS'G'
aS'C'
aS'T'
aS'T'
aS'C'
aS'A'
aS'A'
aS'A'
aS'A'
aS'A'
aS'T'
aS'C'
aS'T'
aS'C'
aS'T'
aS'T'
aS'T'
aS'A'
aS'T'
aS'T'
aS'T'
aS'C'
aS'T'
aS'T'
aS'C'
aS'A'
assI37
(dp185
g109
I155224
sg110
I114
sg111
I414
sg112
I155338
sg113
(lp186
S'A'
aS'A'
aS'G'
aS'G'
aS'G'
aS'T'
aS'T'
aS'C'
aS'C'
aS'T'
aS'C'
aS'T'
aS'C'
aS'T'
aS'G'
aS'T'
aS'T'
aS'A'
aS'T'
aS'T'
aS'A'
aS'G'
aS'A'
aS'G'
aS'T'
aS'T'
aS'T'
aS'G'
aS'A'
aS'T'
aS'A'
aS'A'
aS'A'
aS'C'
aS'T'
aS'G'
aS'A'
aS'A'
aS'A'
aS'G'
aS'T'
aS'G'
aS'T'
aS'C'
aS'T'
aS'G'
aS'T'
aS'T'
aS'G'
aS'G'
aS'T'
aS'T'
aS'G'
aS'G'
aS'C'
aS'G'
aS'T'
aS'A'
aS'T'
aS'G'
aS'G'
aS'T'
aS'T'
aS'C'
aS'T'
aS'T'
aS'T'
aS'A'
aS'G'
aS'G'
aS'A'
aS'T'
aS'G'
aS'A'
aS'T'
aS'T'
aS'G'
aS'A'
aS'C'
aS'A'
aS'G'
aS'T'
aS'G'
aS'G'
aS'C'
aS'A'
aS'G'
aS'T'
aS'A'
aS'C'
aS'C'
aS'T'
aS'G'
aS'G'
aS'A'
aS'C'
aS'T'
aS'A'
aS'A'
aS'C'
aS'G'
aS'T'
aS'G'
aS'A'
aS'C'
aS'T'
aS'T'
aS'T'
aS'A'
aS'G'
aS'C'
aS'T'
aS'T'
aS'C'
aS'T'
aS'T'
aS'T'
aS'T'
aS'G'
aS'G'
aS'A'
aS'T'
aS'G'
aS'A'
aS'T'
aS'T'
aS'C'
aS'C'
aS'C'
aS'T'
aS'C'
aS'T'
aS'T'
aS'G'
aS'T'
aS'C'
aS'T'
aS'T'
aS'T'
aS'C'
aS'T'
aS'G'
aS'A'
aS'C'
aS'C'
aS'T'
aS'T'
aS'A'
aS'G'
aS'G'
aS'A'
aS'C'
aS'C'
aS'T'
aS'T'
aS'C'
aS'T'
aS'A'
aS'C'
aS'C'
aS'G'
aS'C'
aS'T'
aS'T'
aS'T'
aS'G'
aS'A'
aS'G'
aS'G'
aS'C'
aS'T'
aS'T'
aS'T'
aS'G'
aS'T'
aS'G'
aS'G'
aS'G'
aS'A'
aS'T'
aS'A'
aS'G'
aS'C'
aS'T'
aS'C'
aS'T'
aS'C'
aS'T'
aS'G'
aS'C'
aS'A'
aS'T'
aS'A'
aS'A'
aS'C'
aS'T'
aS'C'
aS'C'
aS'C'
aS'T'
aS'T'
aS'C'
aS'T'
aS'T'
aS'C'
aS'T'
aS'G'
aS'A'
aS'A'
aS'C'
aS'C'
aS'G'
aS'A'
aS'G'
aS'T'
aS'G'
aS'A'
aS'C'
aS'A'
aS'C'
aS'C'
aS'C'
aS'T'
aS'A'
aS'T'
aS'G'
aS'G'
aS'A'
aS'G'
aS'A'
aS'A'
aS'A'
aS'A'
aS'G'
aS'A'
aS'T'
aS'C'
aS'T'
aS'A'
aS'C'
aS'A'
aS'T'
aS'G'
aS'A'
aS'C'
aS'C'
aS'T'
aS'T'
aS'G'
aS'T'
aS'C'
aS'G'
aS'G'
aS'C'
aS'C'
aS'T'
aS'A'
aS'C'
aS'C'
aS'T'
aS'A'
aS'G'
aS'A'
aS'G'
aS'G'
aS'T'
aS'G'
aS'A'
aS'G'
aS'G'
aS'A'
aS'G'
aS'A'
aS'C'
aS'T'
aS'T'
aS'G'
aS'G'
aS'A'
aS'A'
aS'C'
aS'T'
aS'T'
aS'C'
aS'A'
aS'G'
aS'T'
aS'T'
aS'G'
aS'A'
aS'T'
aS'G'
aS'C'
aS'C'
aS'A'
aS'A'
aS'C'
aS'A'
aS'G'
aS'T'
aS'C'
aS'A'
aS'G'
aS'C'
aS'C'
aS'C'
aS'T'
aS'G'
aS'A'
aS'A'
aS'C'
aS'A'
aS'G'
aS'T'
aS'G'
aS'T'
aS'G'
aS'C'
aS'A'
aS'G'
aS'G'
aS'T'
aS'T'
aS'A'
aS'C'
aS'A'
aS'G'
aS'C'
aS'A'
aS'G'
aS'G'
aS'A'
aS'A'
aS'G'
aS'T'
aS'G'
aS'G'
aS'T'
aS'C'
aS'A'
aS'G'
aS'C'
aS'G'
aS'A'
aS'A'
aS'G'
aS'A'
aS'T'
aS'T'
aS'C'
aS'C'
aS'A'
aS'C'
aS'T'
aS'T'
aS'G'
aS'T'
aS'T'
aS'T'
aS'T'
aS'G'
aS'T'
aS'C'
aS'C'
aS'T'
aS'C'
aS'T'
aS'T'
aS'T'
aS'C'
aS'T'
aS'T'
aS'C'
aS'C'
aS'T'
aS'C'
aS'C'
aS'A'
aS'C'
aS'A'
aS'T'
aS'C'
aS'C'
aS'T'
aS'T'
aS'A'
aS'A'
aS'G'
aS'T'
aS'T'
aS'T'
aS'T'
aS'T'
aS'C'
aS'A'
aS'T'
aS'T'
aS'T'
aS'T'
aS'A'
aS'T'
aS'T'
aS'A'
aS'T'
aS'A'
aS'C'
aS'A'
aS'T'
aS'T'
aS'G'
aS'C'
aS'T'
aS'A'
aS'A'
assI38
(dp187
g109
I155987
sg110
I133
sg111
I433
sg112
I156120
sg113
(lp188
S'T'
aS'A'
aS'T'
aS'C'
aS'C'
aS'A'
aS'T'
aS'T'
aS'G'
aS'G'
aS'G'
aS'T'
aS'G'
aS'G'
aS'C'
aS'T'
aS'G'
aS'T'
aS'T'
aS'G'
aS'A'
aS'A'
aS'A'
aS'T'
aS'A'
aS'A'
aS'T'
aS'T'
aS'G'
aS'G'
aS'T'
aS'G'
aS'G'
aS'A'
aS'G'
aS'C'
aS'T'
aS'A'
aS'A'
aS'A'
aS'A'
aS'T'
aS'C'
aS'C'
aS'T'
aS'T'
aS'C'
aS'A'
aS'G'
aS'T'
aS'T'
aS'C'
aS'T'
aS'C'
aS'A'
aS'C'
aS'A'
aS'A'
aS'C'
aS'T'
aS'G'
aS'G'
aS'G'
aS'A'
aS'C'
aS'T'
aS'C'
aS'G'
aS'C'
aS'T'
aS'T'
aS'T'
aS'C'
aS'C'
aS'A'
aS'A'
aS'A'
aS'T'
aS'A'
aS'C'
aS'G'
aS'T'
aS'T'
aS'C'
aS'G'
aS'T'
aS'G'
aS'T'
aS'A'
aS'T'
aS'A'
aS'G'
aS'A'
aS'C'
aS'T'
aS'C'
aS'T'
aS'A'
aS'G'
aS'T'
aS'C'
aS'A'
aS'C'
aS'A'
aS'G'
aS'T'
aS'A'
aS'C'
aS'T'
aS'C'
aS'T'
aS'G'
aS'C'
aS'C'
aS'T'
aS'G'
aS'C'
aS'A'
aS'C'
aS'T'
aS'T'
aS'C'
aS'A'
aS'T'
aS'C'
aS'A'
aS'G'
aS'C'
aS'A'
aS'C'
aS'C'
aS'T'
aS'A'
aS'C'
aS'C'
aS'C'
aS'T'
aS'G'
aS'T'
aS'C'
aS'T'
aS'G'
aS'C'
aS'T'
aS'T'
aS'T'
aS'C'
aS'A'
aS'G'
aS'C'
aS'T'
aS'G'
aS'G'
aS'A'
aS'T'
aS'C'
aS'A'
aS'T'
aS'T'
aS'G'
aS'C'
aS'A'
aS'T'
aS'C'
aS'C'
aS'A'
aS'G'
aS'C'
aS'C'
aS'G'
aS'G'
aS'C'
aS'T'
aS'G'
aS'T'
aS'C'
aS'T'
aS'T'
aS'C'
aS'A'
aS'C'
aS'C'
aS'A'
aS'A'
aS'G'
aS'G'
aS'A'
aS'T'
aS'G'
aS'T'
aS'G'
aS'T'
aS'G'
aS'C'
aS'A'
aS'T'
aS'G'
aS'G'
aS'T'
aS'C'
aS'T'
aS'T'
aS'C'
aS'T'
aS'A'
aS'C'
aS'T'
aS'C'
aS'C'
aS'C'
aS'G'
aS'A'
aS'G'
aS'A'
aS'T'
aS'G'
aS'C'
aS'C'
aS'A'
aS'A'
aS'G'
aS'A'
aS'T'
aS'C'
aS'T'
aS'C'
aS'A'
aS'C'
aS'C'
aS'A'
aS'C'
aS'C'
aS'A'
aS'C'
aS'G'
aS'C'
aS'T'
aS'C'
aS'T'
aS'C'
aS'T'
aS'G'
aS'C'
aS'G'
aS'T'
aS'A'
aS'G'
aS'C'
aS'C'
aS'T'
aS'C'
aS'T'
aS'T'
aS'T'
aS'G'
aS'G'
aS'C'
aS'A'
aS'G'
aS'C'
aS'G'
aS'G'
aS'C'
aS'T'
aS'A'
aS'C'
aS'T'
aS'C'
aS'A'
aS'A'
aS'A'
aS'G'
aS'T'
aS'C'
aS'A'
aS'C'
aS'C'
aS'A'
aS'G'
aS'A'
aS'T'
aS'T'
aS'C'
aS'G'
aS'T'
aS'A'
aS'A'
aS'G'
aS'T'
aS'T'
aS'T'
aS'T'
aS'T'
aS'C'
aS'A'
aS'C'
aS'A'
aS'C'
aS'A'
aS'A'
aS'G'
aS'T'
aS'T'
aS'A'
aS'G'
aS'C'
aS'T'
aS'T'
aS'C'
aS'C'
aS'A'
aS'G'
aS'T'
aS'G'
aS'T'
aS'G'
aS'T'
aS'T'
aS'T'
aS'G'
aS'T'
aS'T'
aS'C'
aS'A'
aS'G'
aS'T'
aS'A'
aS'C'
aS'A'
aS'A'
aS'C'
aS'A'
aS'G'
aS'A'
aS'A'
aS'T'
aS'C'
aS'A'
aS'T'
aS'T'
aS'A'
aS'G'
aS'T'
aS'C'
aS'C'
aS'T'
aS'T'
aS'A'
aS'A'
aS'G'
aS'T'
aS'A'
aS'T'
aS'T'
aS'C'
aS'T'
aS'C'
aS'G'
aS'G'
aS'C'
aS'T'
aS'T'
aS'A'
aS'C'
aS'T'
aS'G'
aS'T'
aS'C'
aS'T'
aS'C'
aS'A'
aS'C'
aS'G'
aS'G'
aS'T'
aS'T'
aS'A'
aS'G'
aS'T'
aS'T'
aS'T'
aS'A'
aS'C'
aS'A'
aS'G'
aS'T'
aS'T'
aS'T'
aS'A'
aS'T'
aS'G'
aS'A'
aS'A'
aS'C'
aS'C'
aS'A'
aS'T'
aS'T'
aS'T'
aS'T'
aS'G'
aS'G'
aS'T'
aS'A'
aS'A'
aS'C'
aS'T'
aS'G'
aS'A'
aS'C'
aS'A'
aS'C'
aS'C'
aS'T'
aS'G'
aS'G'
aS'A'
aS'A'
aS'T'
aS'G'
aS'T'
aS'A'
aS'C'
aS'T'
aS'G'
aS'A'
aS'C'
aS'T'
aS'T'
aS'G'
aS'C'
aS'A'
aS'T'
assI39
(dp189
g109
I157578
sg110
I61
sg111
I361
sg112
I157639
sg113
(lp190
S'A'
aS'A'
aS'A'
aS'T'
aS'A'
aS'A'
aS'G'
aS'A'
aS'A'
aS'A'
aS'A'
aS'G'
aS'A'
aS'G'
aS'C'
aS'G'
aS'G'
aS'T'
aS'G'
aS'A'
aS'C'
aS'A'
aS'A'
aS'A'
aS'T'
aS'A'
aS'A'
aS'G'
aS'A'
aS'A'
aS'A'
aS'T'
aS'G'
aS'C'
aS'C'
aS'T'
aS'G'
aS'G'
aS'A'
aS'A'
aS'T'
aS'T'
aS'A'
aS'T'
aS'A'
aS'T'
aS'T'
aS'T'
aS'G'
aS'A'
aS'G'
aS'T'
aS'C'
aS'C'
aS'C'
aS'T'
aS'G'
aS'C'
aS'A'
aS'G'
aS'A'
aS'G'
aS'A'
aS'A'
aS'G'
aS'A'
aS'C'
aS'A'
aS'C'
aS'T'
aS'A'
aS'T'
aS'T'
aS'T'
aS'T'
aS'A'
aS'A'
aS'G'
aS'T'
aS'A'
aS'G'
aS'C'
aS'A'
aS'G'
aS'A'
aS'A'
aS'A'
aS'T'
aS'T'
aS'G'
aS'A'
aS'A'
aS'A'
aS'T'
aS'T'
aS'T'
aS'T'
aS'C'
aS'C'
aS'T'
aS'G'
aS'T'
aS'T'
aS'T'
aS'T'
aS'T'
aS'G'
aS'T'
aS'G'
aS'C'
aS'T'
aS'T'
aS'T'
aS'A'
aS'A'
aS'G'
aS'A'
aS'G'
aS'A'
aS'T'
aS'T'
aS'A'
aS'A'
aS'A'
aS'C'
aS'A'
aS'A'
aS'T'
aS'T'
aS'G'
aS'T'
aS'T'
aS'T'
aS'T'
aS'A'
aS'T'
aS'T'
aS'T'
aS'T'
aS'C'
aS'T'
aS'T'
aS'C'
aS'A'
aS'A'
aS'A'
aS'T'
aS'A'
aS'G'
aS'G'
aS'A'
aS'A'
aS'T'
aS'C'
aS'G'
aS'A'
aS'G'
aS'T'
aS'C'
aS'A'
aS'C'
aS'T'
aS'G'
aS'G'
aS'C'
aS'A'
aS'T'
aS'T'
aS'T'
aS'A'
aS'C'
aS'G'
aS'A'
aS'A'
aS'C'
aS'T'
aS'C'
aS'A'
aS'G'
aS'C'
aS'T'
aS'T'
aS'T'
aS'T'
aS'G'
aS'C'
aS'A'
aS'A'
aS'A'
aS'A'
aS'T'
aS'G'
aS'T'
aS'C'
aS'A'
aS'G'
aS'A'
aS'C'
aS'A'
aS'C'
aS'A'
aS'G'
aS'G'
aS'T'
aS'A'
aS'G'
aS'T'
aS'C'
aS'C'
aS'A'
aS'G'
aS'G'
aS'T'
aS'A'
aS'A'
aS'G'
aS'C'
aS'T'
aS'C'
aS'T'
aS'T'
aS'G'
aS'T'
aS'G'
aS'G'
aS'A'
aS'T'
aS'T'
aS'G'
aS'A'
aS'G'
aS'G'
aS'A'
aS'G'
aS'G'
aS'T'
aS'G'
aS'A'
aS'T'
aS'A'
aS'G'
aS'T'
aS'T'
aS'A'
aS'T'
aS'C'
aS'T'
aS'T'
aS'T'
aS'G'
aS'T'
aS'G'
aS'T'
aS'A'
aS'T'
aS'G'
aS'T'
aS'T'
aS'T'
aS'C'
aS'A'
aS'A'
aS'G'
aS'T'
aS'A'
aS'T'
aS'C'
aS'C'
aS'T'
aS'G'
aS'T'
aS'A'
aS'T'
aS'T'
aS'T'
aS'A'
aS'G'
aS'G'
aS'C'
aS'T'
aS'G'
aS'G'
aS'G'
aS'C'
aS'A'
aS'C'
aS'G'
aS'G'
aS'T'
aS'G'
aS'G'
aS'C'
aS'A'
aS'C'
aS'A'
aS'C'
aS'A'
aS'C'
aS'C'
aS'T'
aS'G'
aS'T'
aS'A'
aS'A'
aS'T'
aS'C'
aS'C'
aS'C'
aS'A'
aS'G'
aS'C'
aS'G'
aS'C'
aS'T'
aS'T'
aS'T'
aS'G'
aS'G'
aS'G'
aS'A'
aS'G'
aS'G'
aS'C'
aS'C'
aS'A'
aS'A'
aS'G'
aS'G'
aS'C'
aS'G'
aS'G'
aS'G'
aS'T'
aS'G'
aS'G'
aS'A'
aS'T'
aS'C'
aS'A'
aS'C'
aS'C'
aS'T'
aS'G'
aS'A'
aS'G'
aS'T'
aS'C'
aS'C'
aS'A'
aS'G'
aS'G'
aS'A'
aS'G'
aS'T'
aS'T'
aS'C'
aS'A'
aS'A'
aS'G'
aS'A'
aS'G'
assI40
(dp191
g109
I159395
sg110
I145
sg111
I445
sg112
I159540
sg113
(lp192
S'G'
aS'G'
aS'C'
aS'T'
aS'G'
aS'A'
aS'G'
aS'A'
aS'T'
aS'C'
aS'A'
aS'C'
aS'G'
aS'C'
aS'C'
aS'A'
aS'C'
aS'T'
aS'G'
aS'C'
aS'A'
aS'C'
aS'T'
aS'C'
aS'C'
aS'A'
aS'G'
aS'C'
aS'C'
aS'T'
aS'G'
aS'G'
aS'G'
aS'C'
aS'A'
aS'A'
aS'C'
aS'A'
aS'G'
aS'A'
aS'G'
aS'C'
aS'G'
aS'A'
aS'G'
aS'A'
aS'C'
aS'T'
aS'C'
aS'C'
aS'A'
aS'T'
aS'C'
aS'T'
aS'C'
aS'A'
aS'A'
aS'A'
aS'A'
aS'A'
aS'A'
aS'A'
aS'A'
aS'A'
aS'A'
aS'A'
aS'A'
aS'A'
aS'A'
aS'A'
aS'A'
aS'G'
aS'A'
aS'A'
aS'T'
aS'T'
aS'A'
aS'T'
aS'T'
aS'A'
aS'A'
aS'T'
aS'T'
aS'C'
aS'G'
aS'T'
aS'T'
aS'T'
aS'T'
aS'G'
aS'A'
aS'C'
aS'C'
aS'T'
aS'A'
aS'A'
aS'A'
aS'C'
aS'T'
aS'T'
aS'G'
aS'G'
aS'A'
aS'A'
aS'T'
aS'T'
aS'G'
aS'A'
aS'A'
aS'T'
aS'T'
aS'T'
aS'T'
aS'T'
aS'T'
aS'T'
aS'T'
aS'C'
aS'T'
aS'G'
aS'A'
aS'A'
aS'A'
aS'C'
aS'A'
aS'A'
aS'A'
aS'A'
aS'A'
aS'C'
aS'T'
aS'T'
aS'G'
aS'T'
aS'T'
aS'T'
aS'C'
aS'C'
aS'T'
aS'C'
aS'T'
aS'T'
aS'G'
aS'T'
aS'C'
aS'T'
aS'T'
aS'A'
aS'G'
aS'G'
aS'T'
aS'A'
aS'T'
aS'G'
aS'C'
aS'A'
aS'G'
aS'A'
aS'G'
aS'A'
aS'A'
aS'G'
aS'G'
aS'A'
aS'G'
aS'A'
aS'A'
aS'G'
aS'A'
aS'A'
aS'A'
aS'A'
aS'A'
aS'T'
aS'C'
aS'T'
aS'T'
aS'A'
aS'G'
aS'A'
aS'T'
aS'A'
aS'C'
aS'G'
aS'T'
aS'C'
aS'A'
aS'G'
aS'T'
aS'G'
aS'G'
aS'C'
aS'A'
aS'T'
aS'A'
aS'T'
aS'G'
aS'T'
aS'G'
aS'C'
aS'G'
aS'G'
aS'G'
aS'G'
aS'A'
aS'G'
aS'A'
aS'A'
aS'G'
aS'A'
aS'G'
aS'A'
aS'A'
aS'C'
aS'T'
aS'T'
aS'A'
aS'G'
aS'T'
aS'A'
aS'G'
aS'G'
aS'C'
aS'T'
aS'G'
aS'G'
aS'C'
aS'G'
aS'G'
aS'C'
aS'C'
aS'C'
aS'C'
aS'G'
aS'T'
aS'G'
aS'G'
aS'A'
aS'G'
aS'A'
aS'C'
aS'A'
aS'G'
aS'C'
aS'C'
aS'T'
aS'C'
aS'A'
aS'T'
aS'C'
aS'C'
aS'T'
aS'T'
aS'G'
aS'A'
aS'G'
aS'C'
aS'A'
aS'C'
aS'C'
aS'A'
aS'G'
aS'T'
aS'G'
aS'G'
aS'G'
aS'A'
aS'G'
aS'C'
aS'T'
aS'G'
aS'G'
aS'A'
aS'G'
aS'A'
aS'A'
aS'G'
aS'C'
aS'T'
aS'G'
aS'G'
aS'A'
aS'G'
aS'C'
aS'T'
aS'C'
aS'C'
aS'T'
aS'A'
aS'C'
aS'A'
aS'T'
aS'G'
aS'A'
aS'G'
aS'G'
aS'T'
aS'A'
aS'T'
aS'C'
aS'C'
aS'A'
aS'G'
aS'G'
aS'G'
aS'G'
aS'C'
aS'A'
aS'G'
aS'G'
aS'G'
aS'T'
aS'T'
aS'G'
aS'T'
aS'T'
aS'C'
aS'A'
aS'G'
aS'A'
aS'T'
aS'G'
aS'C'
aS'A'
aS'A'
aS'G'
aS'A'
aS'A'
aS'C'
aS'T'
aS'C'
aS'T'
aS'C'
aS'G'
aS'G'
aS'A'
aS'C'
aS'A'
aS'A'
aS'G'
aS'A'
aS'T'
aS'T'
aS'G'
aS'C'
aS'C'
aS'A'
aS'A'
aS'A'
aS'G'
aS'T'
aS'A'
aS'T'
aS'C'
aS'A'
aS'G'
aS'T'
aS'C'
aS'T'
aS'T'
aS'C'
aS'C'
aS'T'
aS'C'
aS'C'
aS'C'
aS'C'
aS'G'
aS'C'
aS'T'
aS'G'
aS'C'
aS'T'
aS'G'
aS'C'
aS'A'
aS'T'
aS'G'
aS'T'
aS'G'
aS'A'
aS'T'
aS'C'
aS'A'
aS'T'
aS'A'
aS'G'
aS'C'
aS'T'
aS'T'
aS'T'
aS'T'
aS'C'
aS'A'
aS'C'
aS'T'
aS'T'
aS'T'
aS'T'
aS'C'
aS'T'
aS'C'
aS'T'
aS'C'
aS'C'
aS'T'
aS'G'
aS'A'
aS'G'
aS'G'
aS'T'
aS'C'
aS'T'
aS'T'
aS'A'
aS'A'
aS'C'
aS'G'
aS'A'
aS'G'
aS'C'
aS'T'
aS'T'
aS'T'
aS'G'
aS'T'
aS'G'
aS'T'
aS'T'
aS'T'
aS'G'
aS'C'
aS'T'
aS'A'
aS'T'
aS'A'
aS'G'
aS'C'
aS'A'
aS'G'
aS'T'
aS'A'
aS'G'
aS'T'
aS'A'
assI41
(dp193
g109
I159704
sg110
I239
sg111
I539
sg112
I159943
sg113
(lp194
S'G'
aS'G'
aS'T'
aS'T'
aS'G'
aS'T'
aS'T'
aS'C'
aS'A'
aS'G'
aS'A'
aS'T'
aS'G'
aS'C'
aS'A'
aS'A'
aS'G'
aS'A'
aS'A'
aS'C'
aS'T'
aS'C'
aS'T'
aS'C'
aS'G'
aS'G'
aS'A'
aS'C'
aS'A'
aS'A'
aS'G'
aS'A'
aS'T'
aS'T'
aS'G'
aS'C'
aS'C'
aS'A'
aS'A'
aS'A'
aS'G'
aS'T'
aS'A'
aS'T'
aS'C'
aS'A'
aS'G'
aS'T'
aS'C'
aS'T'
aS'T'
aS'C'
aS'C'
aS'T'
aS'C'
aS'C'
aS'C'
aS'C'
aS'G'
aS'C'
aS'T'
aS'G'
aS'C'
aS'T'
aS'G'
aS'C'
aS'A'
aS'T'
aS'G'
aS'T'
aS'G'
aS'A'
aS'T'
aS'C'
aS'A'
aS'T'
aS'A'
aS'G'
aS'C'
aS'T'
aS'T'
aS'T'
aS'T'
aS'C'
aS'A'
aS'C'
aS'T'
aS'T'
aS'T'
aS'T'
aS'C'
aS'T'
aS'C'
aS'T'
aS'C'
aS'C'
aS'T'
aS'G'
aS'A'
aS'G'
aS'G'
aS'T'
aS'C'
aS'T'
aS'T'
aS'A'
aS'A'
aS'C'
aS'G'
aS'A'
aS'G'
aS'C'
aS'T'
aS'T'
aS'T'
aS'G'
aS'T'
aS'G'
aS'T'
aS'T'
aS'T'
aS'G'
aS'C'
aS'T'
aS'A'
aS'T'
aS'A'
aS'G'
aS'C'
aS'A'
aS'G'
aS'T'
aS'A'
aS'G'
aS'T'
aS'A'
aS'T'
aS'T'
aS'G'
aS'A'
aS'T'
aS'C'
aS'T'
aS'T'
aS'C'
aS'T'
aS'C'
aS'A'
aS'G'
aS'G'
aS'T'
aS'G'
aS'G'
aS'A'
aS'A'
aS'A'
aS'A'
aS'A'
aS'A'
aS'C'
aS'C'
aS'C'
aS'G'
aS'C'
aS'C'
aS'A'
aS'C'
aS'T'
aS'T'
aS'T'
aS'T'
aS'T'
aS'G'
aS'C'
aS'T'
aS'G'
aS'C'
aS'T'
aS'G'
aS'C'
aS'G'
aS'T'
aS'G'
aS'A'
aS'G'
aS'A'
aS'G'
aS'A'
aS'C'
aS'T'
aS'T'
aS'G'
aS'G'
aS'T'
aS'G'
aS'T'
aS'C'
aS'A'
aS'G'
aS'C'
aS'A'
aS'T'
aS'C'
aS'C'
aS'C'
aS'C'
aS'A'
aS'A'
aS'A'
aS'T'
aS'C'
aS'C'
aS'C'
aS'T'
aS'G'
aS'A'
aS'G'
aS'C'
aS'G'
aS'A'
aS'C'
aS'T'
aS'C'
aS'G'
aS'T'
aS'T'
aS'A'
aS'T'
aS'C'
aS'C'
aS'C'
aS'C'
aS'C'
aS'A'
aS'G'
aS'C'
aS'C'
aS'T'
aS'C'
aS'A'
aS'G'
aS'C'
aS'A'
aS'G'
aS'T'
aS'G'
aS'G'
aS'G'
aS'A'
aS'C'
aS'C'
aS'C'
aS'T'
aS'C'
aS'A'
aS'G'
aS'C'
aS'A'
aS'C'
aS'C'
aS'T'
aS'C'
aS'C'
aS'A'
aS'C'
aS'C'
aS'A'
aS'G'
aS'T'
aS'A'
aS'T'
aS'C'
aS'T'
aS'C'
aS'C'
aS'T'
aS'C'
aS'T'
aS'C'
aS'A'
aS'G'
aS'A'
aS'T'
aS'C'
aS'T'
aS'C'
aS'A'
aS'A'
aS'C'
aS'C'
aS'A'
aS'C'
aS'T'
aS'A'
aS'C'
aS'C'
aS'T'
aS'T'
aS'T'
aS'G'
aS'A'
aS'A'
aS'A'
aS'G'
aS'C'
aS'G'
aS'C'
aS'C'
aS'A'
aS'T'
aS'C'
aS'A'
aS'C'
aS'A'
aS'C'
aS'C'
aS'T'
aS'A'
aS'G'
aS'C'
aS'G'
aS'A'
aS'G'
aS'A'
aS'G'
aS'C'
aS'A'
aS'G'
aS'T'
aS'G'
aS'G'
aS'C'
aS'T'
aS'A'
aS'T'
aS'G'
aS'A'
aS'T'
aS'T'
aS'C'
aS'A'
aS'G'
aS'G'
aS'A'
aS'G'
aS'A'
aS'C'
aS'A'
aS'T'
aS'C'
aS'G'
aS'A'
aS'A'
aS'A'
aS'G'
aS'C'
aS'C'
aS'T'
aS'G'
aS'G'
aS'T'
aS'G'
aS'G'
aS'A'
aS'C'
aS'C'
aS'G'
aS'A'
aS'G'
aS'A'
aS'G'
aS'A'
aS'A'
aS'A'
aS'G'
aS'A'
aS'G'
aS'C'
aS'T'
aS'G'
aS'G'
aS'C'
aS'T'
aS'A'
aS'C'
aS'C'
aS'A'
aS'A'
aS'G'
aS'G'
aS'T'
aS'G'
aS'T'
aS'G'
aS'A'
aS'A'
aS'T'
aS'C'
aS'C'
aS'C'
aS'T'
aS'T'
aS'C'
aS'C'
aS'T'
aS'C'
aS'T'
aS'T'
aS'T'
aS'G'
aS'C'
aS'T'
aS'G'
aS'A'
aS'A'
aS'C'
aS'G'
aS'T'
aS'C'
aS'T'
aS'T'
aS'C'
aS'C'
aS'C'
aS'A'
aS'C'
aS'A'
aS'A'
aS'G'
aS'G'
aS'C'
aS'T'
aS'C'
aS'C'
aS'A'
aS'C'
aS'A'
aS'A'
aS'A'
aS'C'
aS'T'
aS'A'
aS'G'
aS'C'
aS'C'
aS'T'
aS'C'
aS'T'
aS'C'
aS'G'
aS'G'
aS'T'
aS'T'
aS'T'
aS'A'
aS'T'
aS'T'
aS'C'
aS'A'
aS'T'
aS'T'
aS'T'
aS'T'
aS'C'
aS'A'
aS'A'
aS'C'
aS'A'
aS'C'
aS'C'
aS'T'
aS'T'
aS'T'
aS'G'
aS'T'
aS'T'
aS'C'
aS'G'
aS'A'
aS'G'
aS'G'
aS'T'
aS'G'
aS'T'
aS'T'
aS'T'
aS'G'
aS'A'
aS'A'
aS'G'
aS'G'
aS'C'
aS'C'
aS'T'
aS'G'
aS'T'
aS'G'
aS'A'
aS'T'
aS'A'
aS'A'
aS'T'
aS'A'
aS'C'
aS'T'
aS'G'
aS'T'
aS'G'
aS'A'
aS'A'
aS'T'
aS'G'
aS'T'
aS'A'
aS'G'
aS'A'
aS'A'
aS'A'
aS'T'
aS'A'
aS'A'
aS'A'
aS'A'
aS'A'
aS'G'
aS'A'
aS'C'
aS'G'
aS'C'
aS'A'
aS'G'
aS'T'
aS'T'
aS'C'
aS'C'
aS'T'
aS'A'
aS'C'
aS'C'
assI42
(dp195
g109
I162762
sg110
I71
sg111
I371
sg112
I162833
sg113
(lp196
S'T'
aS'G'
aS'G'
aS'A'
aS'C'
aS'G'
aS'A'
aS'A'
aS'T'
aS'G'
aS'C'
aS'A'
aS'T'
aS'A'
aS'G'
aS'G'
aS'G'
aS'A'
aS'G'
aS'A'
aS'G'
aS'G'
aS'A'
aS'G'
aS'A'
aS'T'
aS'G'
aS'T'
aS'G'
aS'G'
aS'A'
aS'G'
aS'C'
aS'T'
aS'T'
aS'C'
aS'C'
aS'A'
aS'T'
aS'G'
aS'C'
aS'C'
aS'C'
aS'T'
aS'C'
aS'C'
aS'C'
aS'C'
aS'G'
aS'G'
aS'G'
aS'A'
aS'A'
aS'C'
aS'T'
aS'C'
aS'A'
aS'G'
aS'C'
aS'C'
aS'C'
aS'T'
aS'T'
aS'C'
aS'A'
aS'G'
aS'G'
aS'A'
aS'G'
aS'C'
aS'C'
aS'T'
aS'C'
aS'C'
aS'A'
aS'C'
aS'G'
aS'T'
aS'G'
aS'G'
aS'T'
aS'C'
aS'A'
aS'G'
aS'C'
aS'T'
aS'A'
aS'T'
aS'C'
aS'C'
aS'C'
aS'A'
aS'A'
aS'G'
aS'G'
aS'C'
aS'T'
aS'C'
aS'C'
aS'T'
aS'G'
aS'G'
aS'C'
aS'T'
aS'G'
aS'T'
aS'T'
aS'G'
aS'A'
aS'C'
aS'A'
aS'T'
aS'T'
aS'T'
aS'T'
aS'A'
aS'T'
aS'G'
aS'T'
aS'T'
aS'C'
aS'A'
aS'G'
aS'C'
aS'T'
aS'T'
aS'G'
aS'C'
aS'A'
aS'C'
aS'T'
aS'T'
aS'C'
aS'T'
aS'C'
aS'T'
aS'T'
aS'T'
aS'C'
aS'T'
aS'C'
aS'T'
aS'T'
aS'C'
aS'T'
aS'T'
aS'T'
aS'A'
aS'G'
aS'T'
aS'G'
aS'C'
aS'C'
aS'T'
aS'G'
aS'C'
aS'A'
aS'A'
aS'C'
aS'T'
aS'T'
aS'C'
aS'T'
aS'C'
aS'A'
aS'C'
aS'C'
aS'C'
aS'A'
aS'C'
aS'A'
aS'C'
aS'T'
aS'T'
aS'T'
aS'C'
aS'A'
aS'A'
aS'C'
aS'A'
aS'G'
aS'A'
aS'G'
aS'A'
aS'A'
aS'T'
aS'T'
aS'C'
aS'A'
aS'G'
aS'C'
aS'C'
aS'A'
aS'C'
aS'G'
aS'T'
aS'G'
aS'C'
aS'A'
aS'C'
aS'G'
aS'G'
aS'C'
aS'A'
aS'G'
aS'C'
aS'G'
aS'T'
aS'C'
aS'A'
aS'G'
aS'T'
aS'G'
aS'A'
aS'C'
aS'T'
aS'G'
aS'T'
aS'A'
aS'A'
aS'G'
aS'G'
aS'T'
aS'G'
aS'A'
aS'G'
aS'C'
aS'A'
aS'C'
aS'A'
aS'T'
aS'T'
aS'G'
aS'A'
aS'C'
aS'T'
aS'G'
aS'T'
aS'A'
aS'A'
aS'T'
aS'T'
aS'T'
aS'T'
aS'T'
aS'A'
aS'G'
aS'C'
aS'C'
aS'A'
aS'G'
aS'T'
aS'A'
aS'T'
aS'G'
aS'T'
aS'T'
aS'G'
aS'A'
aS'T'
aS'A'
aS'A'
aS'C'
aS'T'
aS'G'
aS'A'
aS'T'
aS'T'
aS'T'
aS'C'
aS'T'
aS'C'
aS'C'
aS'A'
aS'C'
aS'A'
aS'G'
aS'C'
aS'A'
aS'G'
aS'C'
aS'C'
aS'C'
aS'A'
aS'G'
aS'A'
aS'T'
aS'T'
aS'A'
aS'C'
aS'C'
aS'T'
aS'A'
aS'T'
aS'T'
aS'C'
aS'C'
aS'T'
aS'G'
aS'G'
aS'T'
aS'T'
aS'T'
aS'T'
aS'T'
aS'G'
aS'C'
aS'T'
aS'G'
aS'C'
aS'T'
aS'T'
aS'T'
aS'T'
aS'A'
aS'A'
aS'G'
aS'C'
aS'A'
aS'A'
aS'C'
aS'T'
aS'T'
aS'G'
aS'T'
aS'C'
aS'A'
aS'T'
aS'G'
aS'G'
aS'G'
aS'C'
aS'A'
aS'T'
aS'A'
aS'G'
aS'C'
aS'A'
aS'T'
aS'T'
aS'G'
aS'T'
aS'A'
aS'T'
aS'T'
aS'T'
aS'G'
aS'A'
aS'A'
aS'A'
aS'A'
aS'T'
aS'T'
aS'T'
aS'A'
aS'T'
aS'G'
aS'A'
aS'C'
aS'A'
aS'T'
aS'A'
aS'C'
aS'T'
aS'G'
aS'C'
aS'T'
aS'C'
aS'T'
aS'G'
aS'G'
assI43
(dp197
g109
I165436
sg110
I121
sg111
I421
sg112
I165557
sg113
(lp198
S'G'
aS'A'
aS'T'
aS'A'
aS'A'
aS'A'
aS'T'
aS'T'
aS'A'
aS'T'
aS'G'
aS'T'
aS'A'
aS'T'
aS'A'
aS'G'
aS'G'
aS'C'
aS'T'
aS'T'
aS'G'
aS'T'
aS'T'
aS'T'
aS'T'
aS'C'
aS'T'
aS'T'
aS'A'
aS'A'
aS'A'
aS'T'
aS'G'
aS'A'
aS'C'
aS'C'
aS'T'
aS'T'
aS'C'
aS'T'
aS'G'
aS'A'
aS'A'
aS'A'
aS'C'
aS'A'
aS'A'
aS'G'
aS'A'
aS'T'
aS'G'
aS'T'
aS'A'
aS'T'
aS'C'
aS'A'
aS'A'
aS'A'
aS'G'
aS'T'
aS'G'
aS'A'
aS'G'
aS'G'
aS'T'
aS'T'
aS'C'
aS'T'
aS'G'
aS'G'
aS'T'
aS'T'
aS'G'
aS'T'
aS'T'
aS'G'
aS'A'
aS'A'
aS'A'
aS'C'
aS'T'
aS'C'
aS'C'
aS'C'
aS'T'
aS'A'
aS'T'
aS'T'
aS'G'
aS'T'
aS'T'
aS'A'
aS'C'
aS'T'
aS'G'
aS'T'
aS'A'
aS'G'
aS'A'
aS'G'
aS'G'
aS'C'
aS'A'
aS'G'
aS'C'
aS'T'
aS'T'
aS'T'
aS'T'
aS'T'
aS'T'
aS'C'
aS'A'
aS'G'
aS'C'
aS'T'
aS'G'
aS'A'
aS'A'
aS'T'
aS'G'
aS'T'
aS'A'
aS'A'
aS'C'
aS'T'
aS'T'
aS'G'
aS'T'
aS'A'
aS'G'
aS'T'
aS'G'
aS'T'
aS'T'
aS'C'
aS'G'
aS'G'
aS'T'
aS'T'
aS'T'
aS'G'
aS'C'
aS'T'
aS'T'
aS'C'
aS'C'
aS'A'
aS'G'
aS'T'
aS'T'
aS'G'
aS'T'
aS'C'
aS'T'
aS'G'
aS'A'
aS'T'
aS'A'
aS'T'
aS'C'
aS'T'
aS'C'
aS'T'
aS'C'
aS'C'
aS'A'
aS'A'
aS'T'
aS'T'
aS'G'
aS'G'
aS'A'
aS'C'
aS'G'
aS'G'
aS'G'
aS'A'
aS'T'
aS'C'
aS'C'
aS'C'
aS'T'
aS'C'
aS'T'
aS'G'
aS'A'
aS'G'
aS'T'
aS'C'
aS'C'
aS'A'
aS'G'
aS'T'
aS'T'
aS'T'
aS'C'
aS'A'
aS'G'
aS'C'
aS'A'
aS'G'
aS'T'
aS'G'
aS'C'
aS'C'
aS'A'
aS'C'
aS'C'
aS'C'
aS'T'
aS'C'
aS'A'
aS'C'
aS'T'
aS'C'
aS'C'
aS'C'
aS'T'
aS'C'
aS'C'
aS'T'
aS'C'
aS'C'
aS'A'
aS'C'
aS'C'
aS'T'
aS'G'
aS'T'
aS'T'
aS'C'
aS'C'
aS'T'
aS'C'
aS'T'
aS'C'
aS'T'
aS'G'
aS'G'
aS'T'
aS'A'
aS'G'
aS'A'
aS'C'
aS'T'
aS'C'
aS'T'
aS'A'
aS'G'
aS'G'
aS'A'
aS'G'
aS'C'
aS'A'
aS'A'
aS'C'
aS'T'
aS'C'
aS'T'
aS'C'
aS'T'
aS'G'
aS'G'
aS'A'
aS'T'
aS'C'
aS'A'
aS'G'
aS'A'
aS'A'
aS'G'
aS'T'
aS'A'
aS'A'
aS'G'
aS'T'
aS'A'
aS'C'
aS'C'
aS'C'
aS'A'
aS'G'
aS'A'
aS'T'
aS'T'
aS'T'
aS'C'
aS'A'
aS'C'
aS'T'
aS'G'
aS'A'
aS'G'
aS'A'
aS'G'
aS'A'
aS'A'
aS'G'
aS'T'
aS'C'
aS'A'
aS'A'
aS'T'
aS'C'
aS'T'
aS'A'
aS'A'
aS'G'
aS'A'
aS'A'
aS'C'
aS'C'
aS'A'
aS'A'
aS'G'
aS'G'
aS'T'
aS'A'
aS'A'
aS'A'
aS'T'
aS'G'
aS'T'
aS'C'
aS'A'
aS'A'
aS'C'
aS'C'
aS'T'
aS'T'
aS'C'
aS'C'
aS'T'
aS'C'
aS'T'
aS'A'
aS'G'
aS'C'
aS'T'
aS'C'
aS'A'
aS'A'
aS'T'
aS'G'
aS'G'
aS'T'
aS'T'
aS'C'
aS'T'
aS'T'
aS'G'
aS'A'
aS'C'
aS'T'
aS'G'
aS'A'
aS'A'
aS'G'
aS'G'
aS'C'
aS'A'
aS'G'
aS'C'
aS'A'
aS'C'
aS'C'
aS'T'
aS'T'
aS'C'
aS'T'
aS'C'
aS'C'
aS'C'
aS'T'
aS'A'
aS'G'
aS'G'
aS'C'
aS'A'
aS'G'
aS'C'
aS'A'
aS'T'
aS'T'
aS'T'
aS'G'
aS'G'
aS'A'
aS'A'
aS'A'
aS'T'
aS'G'
aS'T'
aS'G'
aS'T'
aS'G'
aS'G'
aS'G'
aS'A'
aS'G'
aS'C'
aS'C'
aS'T'
aS'T'
aS'T'
aS'T'
aS'T'
aS'G'
aS'G'
aS'C'
aS'T'
aS'A'
aS'T'
aS'C'
aS'A'
aS'C'
aS'A'
aS'G'
aS'T'
aS'G'
assI44
(dp199
g109
I168611
sg110
I149
sg111
I449
sg112
I168760
sg113
(lp200
S'T'
aS'C'
aS'T'
aS'C'
aS'C'
aS'T'
aS'C'
aS'A'
aS'G'
aS'C'
aS'T'
aS'G'
aS'A'
aS'G'
aS'C'
aS'T'
aS'C'
aS'T'
aS'C'
aS'T'
aS'G'
aS'C'
aS'A'
aS'A'
aS'C'
aS'T'
aS'C'
aS'A'
aS'A'
aS'G'
aS'T'
aS'T'
aS'T'
aS'G'
aS'C'
aS'A'
aS'G'
aS'C'
aS'T'
aS'G'
aS'G'
aS'G'
aS'G'
aS'T'
aS'T'
aS'T'
aS'A'
aS'G'
aS'G'
aS'G'
aS'A'
aS'G'
aS'G'
aS'G'
aS'C'
aS'C'
aS'A'
aS'T'
aS'T'
aS'G'
aS'T'
aS'G'
aS'T'
aS'T'
aS'C'
aS'C'
aS'T'
aS'C'
aS'C'
aS'C'
aS'A'
aS'G'
aS'T'
aS'G'
aS'A'
aS'A'
aS'A'
aS'C'
aS'A'
aS'G'
aS'T'
aS'A'
aS'C'
aS'T'
aS'C'
aS'A'
aS'G'
aS'T'
aS'A'
aS'T'
aS'G'
aS'C'
aS'C'
aS'T'
aS'T'
aS'G'
aS'A'
aS'T'
aS'T'
aS'G'
aS'T'
aS'A'
aS'A'
aS'C'
aS'T'
aS'G'
aS'A'
aS'T'
aS'T'
aS'C'
aS'T'
aS'C'
aS'T'
aS'T'
aS'G'
aS'T'
aS'T'
aS'A'
aS'C'
aS'C'
aS'C'
aS'T'
aS'T'
aS'T'
aS'T'
aS'C'
aS'T'
aS'T'
aS'T'
aS'C'
aS'T'
aS'A'
aS'A'
aS'T'
aS'C'
aS'T'
aS'C'
aS'T'
aS'C'
aS'T'
aS'A'
aS'T'
aS'T'
aS'T'
aS'T'
aS'A'
aS'A'
aS'A'
aS'G'
aS'G'
aS'A'
aS'C'
aS'C'
aS'C'
aS'C'
aS'A'
aS'G'
aS'A'
aS'A'
aS'G'
aS'C'
aS'C'
aS'A'
aS'A'
aS'T'
aS'T'
aS'C'
aS'C'
aS'C'
aS'G'
aS'G'
aS'G'
aS'T'
aS'C'
aS'T'
aS'C'
aS'T'
aS'A'
aS'G'
aS'T'
aS'C'
aS'C'
aS'C'
aS'T'
aS'G'
aS'C'
aS'C'
aS'C'
aS'A'
aS'G'
aS'A'
aS'A'
aS'T'
aS'T'
aS'T'
aS'G'
aS'A'
aS'A'
aS'C'
aS'A'
aS'G'
aS'T'
aS'T'
aS'T'
aS'C'
aS'A'
aS'G'
aS'A'
aS'T'
aS'T'
aS'G'
aS'T'
aS'C'
aS'C'
aS'C'
aS'A'
aS'G'
aS'C'
aS'T'
aS'G'
aS'T'
aS'G'
aS'G'
aS'A'
aS'A'
aS'A'
aS'C'
aS'A'
aS'C'
aS'C'
aS'A'
aS'T'
aS'A'
aS'T'
aS'T'
aS'T'
aS'G'
aS'G'
aS'C'
aS'C'
aS'C'
aS'G'
aS'A'
aS'G'
aS'C'
aS'A'
aS'G'
aS'G'
aS'A'
aS'A'
aS'A'
aS'A'
aS'A'
aS'A'
aS'C'
aS'G'
aS'A'
aS'A'
aS'T'
aS'T'
aS'T'
aS'C'
aS'T'
aS'C'
aS'A'
aS'A'
aS'T'
aS'C'
aS'T'
aS'T'
aS'G'
aS'T'
aS'T'
aS'C'
aS'C'
aS'A'
aS'G'
aS'A'
aS'T'
aS'A'
aS'T'
aS'T'
aS'G'
aS'A'
aS'A'
aS'G'
aS'A'
aS'A'
aS'A'
aS'T'
aS'T'
aS'A'
aS'G'
aS'A'
aS'C'
aS'C'
aS'A'
aS'A'
aS'G'
aS'G'
aS'T'
aS'G'
aS'A'
aS'G'
aS'T'
aS'A'
aS'C'
aS'T'
aS'A'
aS'T'
aS'A'
aS'T'
aS'T'
aS'G'
aS'A'
aS'G'
aS'C'
aS'A'
aS'G'
aS'G'
aS'A'
aS'A'
aS'T'
aS'G'
aS'C'
aS'C'
aS'A'
aS'G'
aS'C'
aS'T'
aS'A'
aS'T'
aS'A'
aS'A'
aS'A'
aS'A'
aS'A'
aS'A'
aS'C'
aS'A'
aS'A'
aS'A'
aS'T'
aS'C'
aS'C'
aS'A'
aS'C'
aS'A'
aS'G'
aS'G'
aS'A'
aS'A'
aS'G'
aS'A'
aS'A'
aS'G'
aS'T'
aS'G'
aS'A'
aS'C'
aS'T'
aS'G'
aS'G'
aS'C'
aS'C'
aS'A'
aS'G'
aS'C'
aS'T'
aS'C'
aS'T'
aS'T'
aS'C'
aS'C'
aS'C'
aS'T'
aS'G'
aS'T'
aS'G'
aS'A'
aS'G'
aS'G'
aS'T'
aS'C'
aS'T'
aS'G'
aS'T'
aS'A'
aS'C'
aS'T'
aS'G'
aS'T'
aS'A'
aS'G'
aS'T'
aS'C'
aS'T'
aS'G'
aS'A'
aS'T'
aS'G'
aS'C'
aS'A'
aS'A'
aS'T'
aS'C'
aS'T'
aS'G'
aS'T'
aS'A'
aS'C'
aS'T'
aS'G'
aS'T'
aS'A'
aS'G'
aS'T'
aS'C'
aS'T'
aS'G'
aS'A'
aS'T'
aS'G'
aS'C'
aS'A'
aS'A'
aS'G'
aS'T'
aS'T'
aS'G'
aS'A'
aS'G'
aS'T'
aS'C'
aS'T'
aS'G'
aS'G'
aS'G'
aS'G'
aS'T'
aS'G'
aS'A'
aS'G'
aS'A'
aS'G'
aS'G'
aS'G'
aS'C'
aS'C'
assI45
(dp201
g109
I169149
sg110
I192
sg111
I492
sg112
I169341
sg113
(lp202
S'T'
aS'T'
aS'T'
aS'G'
aS'G'
aS'C'
aS'A'
aS'G'
aS'A'
aS'T'
aS'A'
aS'A'
aS'G'
aS'A'
aS'T'
aS'T'
aS'C'
aS'T'
aS'A'
aS'G'
aS'G'
aS'C'
aS'C'
aS'A'
aS'A'
aS'A'
aS'T'
aS'A'
aS'G'
aS'G'
aS'T'
aS'C'
aS'A'
aS'T'
aS'T'
aS'T'
aS'G'
aS'C'
aS'C'
aS'T'
aS'G'
aS'T'
aS'T'
aS'T'
aS'C'
aS'A'
aS'T'
aS'C'
aS'G'
aS'A'
aS'A'
aS'T'
aS'C'
aS'T'
aS'A'
aS'A'
aS'G'
aS'G'
aS'A'
aS'C'
aS'T'
aS'T'
aS'G'
aS'G'
aS'C'
aS'C'
aS'T'
aS'A'
aS'A'
aS'G'
aS'T'
aS'G'
aS'T'
aS'G'
aS'G'
aS'C'
aS'G'
aS'T'
aS'A'
aS'T'
aS'T'
aS'T'
aS'T'
aS'G'
aS'A'
aS'T'
aS'G'
aS'G'
aS'T'
aS'C'
aS'C'
aS'T'
aS'C'
aS'A'
aS'G'
aS'C'
aS'A'
aS'C'
aS'G'
aS'A'
aS'T'
aS'T'
aS'A'
aS'T'
aS'T'
aS'T'
aS'T'
aS'C'
aS'T'
aS'T'
aS'T'
aS'T'
aS'T'
aS'G'
aS'T'
aS'G'
aS'A'
aS'G'
aS'A'
aS'A'
aS'A'
aS'C'
aS'T'
aS'A'
aS'A'
aS'C'
aS'T'
aS'T'
aS'T'
aS'T'
aS'G'
aS'T'
aS'C'
aS'A'
aS'T'
aS'A'
aS'T'
aS'T'
aS'G'
aS'T'
aS'C'
aS'G'
aS'T'
aS'T'
aS'T'
aS'T'
aS'T'
aS'A'
aS'G'
aS'C'
aS'T'
aS'C'
aS'A'
aS'G'
aS'T'
aS'G'
aS'G'
aS'T'
aS'C'
aS'T'
aS'C'
aS'T'
aS'A'
aS'A'
aS'G'
aS'A'
aS'A'
aS'A'
aS'G'
aS'G'
aS'A'
aS'T'
aS'A'
aS'C'
aS'C'
aS'T'
aS'T'
aS'C'
aS'A'
aS'T'
aS'T'
aS'T'
aS'C'
aS'A'
aS'A'
aS'G'
aS'G'
aS'A'
aS'G'
aS'C'
aS'C'
aS'T'
aS'C'
aS'T'
aS'T'
aS'T'
aS'A'
aS'C'
aS'A'
aS'G'
aS'T'
aS'A'
aS'A'
aS'C'
aS'T'
aS'G'
aS'G'
aS'G'
aS'C'
aS'T'
aS'A'
aS'A'
aS'A'
aS'C'
aS'A'
aS'T'
aS'T'
aS'T'
aS'T'
aS'G'
aS'T'
aS'T'
aS'G'
aS'T'
aS'C'
aS'G'
aS'T'
aS'C'
aS'C'
aS'G'
aS'T'
aS'C'
aS'G'
aS'G'
aS'C'
aS'C'
aS'T'
aS'T'
aS'A'
aS'T'
aS'G'
aS'T'
aS'C'
aS'T'
aS'T'
aS'C'
aS'A'
aS'T'
aS'C'
aS'T'
aS'A'
aS'T'
aS'A'
aS'A'
aS'C'
aS'A'
aS'A'
aS'T'
aS'G'
aS'A'
aS'C'
aS'A'
aS'A'
aS'A'
aS'G'
aS'A'
aS'C'
aS'C'
aS'C'
aS'T'
aS'G'
aS'T'
aS'G'
aS'G'
aS'A'
aS'G'
aS'C'
aS'G'
aS'T'
aS'G'
aS'G'
aS'A'
aS'A'
aS'T'
aS'C'
aS'A'
aS'T'
aS'T'
aS'A'
aS'A'
aS'C'
aS'C'
aS'T'
aS'G'
aS'T'
aS'C'
aS'C'
aS'A'
aS'C'
aS'A'
aS'G'
aS'C'
aS'A'
aS'C'
aS'A'
aS'G'
aS'G'
aS'T'
aS'G'
aS'G'
aS'A'
aS'G'
aS'T'
aS'A'
aS'C'
aS'A'
aS'G'
aS'T'
aS'G'
aS'A'
aS'G'
aS'G'
aS'A'
aS'C'
aS'C'
aS'A'
aS'G'
aS'C'
aS'A'
aS'G'
aS'G'
aS'C'
aS'C'
aS'A'
aS'T'
aS'G'
aS'G'
aS'T'
aS'G'
aS'A'
aS'A'
aS'G'
aS'G'
aS'T'
aS'C'
aS'C'
aS'G'
aS'T'
aS'C'
aS'C'
aS'T'
aS'G'
aS'C'
aS'C'
aS'C'
aS'T'
aS'G'
aS'C'
aS'C'
aS'T'
aS'T'
aS'G'
aS'G'
aS'T'
aS'T'
aS'T'
aS'C'
aS'T'
aS'T'
aS'A'
aS'T'
aS'T'
aS'G'
aS'C'
aS'C'
aS'A'
aS'C'
aS'G'
aS'T'
aS'G'
aS'T'
aS'G'
aS'C'
aS'C'
aS'C'
aS'T'
aS'T'
aS'C'
aS'T'
aS'C'
aS'T'
aS'T'
aS'T'
aS'T'
aS'G'
aS'A'
aS'T'
aS'T'
aS'T'
aS'C'
aS'T'
aS'G'
aS'C'
aS'A'
aS'C'
aS'T'
aS'C'
aS'T'
aS'C'
aS'T'
aS'G'
aS'T'
aS'T'
aS'A'
aS'C'
aS'G'
aS'T'
aS'G'
aS'G'
aS'T'
aS'G'
aS'T'
aS'G'
aS'A'
aS'A'
aS'A'
aS'T'
aS'T'
aS'T'
aS'C'
aS'C'
aS'C'
aS'T'
aS'A'
aS'T'
aS'T'
aS'C'
aS'T'
aS'C'
aS'T'
aS'C'
aS'T'
aS'G'
aS'G'
aS'T'
aS'T'
aS'T'
aS'T'
aS'G'
aS'A'
aS'A'
aS'C'
aS'T'
aS'T'
aS'C'
aS'C'
aS'T'
aS'T'
aS'T'
aS'G'
aS'T'
aS'G'
aS'A'
aS'A'
aS'G'
aS'T'
aS'G'
aS'C'
aS'T'
aS'A'
aS'T'
aS'A'
aS'T'
aS'G'
aS'C'
aS'C'
aS'T'
aS'T'
aS'G'
aS'G'
aS'G'
aS'A'
aS'A'
aS'T'
aS'A'
aS'T'
aS'G'
aS'G'
aS'C'
aS'A'
aS'A'
aS'G'
assI46
(dp203
g109
I169550
sg110
I118
sg111
I418
sg112
I169668
sg113
(lp204
S'G'
aS'C'
aS'A'
aS'C'
aS'T'
aS'C'
aS'T'
aS'C'
aS'T'
aS'G'
aS'T'
aS'T'
aS'A'
aS'C'
aS'G'
aS'T'
aS'G'
aS'G'
aS'T'
aS'G'
aS'T'
aS'G'
aS'A'
aS'A'
aS'A'
aS'T'
aS'T'
aS'T'
aS'C'
aS'C'
aS'C'
aS'T'
aS'A'
aS'T'
aS'T'
aS'C'
aS'T'
aS'C'
aS'T'
aS'C'
aS'T'
aS'G'
aS'G'
aS'T'
aS'T'
aS'T'
aS'T'
aS'G'
aS'A'
aS'A'
aS'C'
aS'T'
aS'T'
aS'C'
aS'C'
aS'T'
aS'T'
aS'T'
aS'G'
aS'T'
aS'G'
aS'A'
aS'A'
aS'G'
aS'T'
aS'G'
aS'C'
aS'T'
aS'A'
aS'T'
aS'A'
aS'T'
aS'G'
aS'C'
aS'C'
aS'T'
aS'T'
aS'G'
aS'G'
aS'G'
aS'A'
aS'A'
aS'T'
aS'A'
aS'T'
aS'G'
aS'G'
aS'C'
aS'A'
aS'A'
aS'G'
aS'G'
aS'C'
aS'A'
aS'G'
aS'T'
aS'C'
aS'C'
aS'C'
aS'C'
aS'A'
aS'T'
aS'T'
aS'G'
aS'C'
aS'T'
aS'G'
aS'T'
aS'C'
aS'T'
aS'C'
aS'T'
aS'G'
aS'T'
aS'A'
aS'G'
aS'T'
aS'A'
aS'A'
aS'C'
aS'T'
aS'T'
aS'T'
aS'C'
aS'T'
aS'T'
aS'G'
aS'T'
aS'C'
aS'T'
aS'A'
aS'C'
aS'C'
aS'T'
aS'G'
aS'C'
aS'A'
aS'T'
aS'T'
aS'T'
aS'T'
aS'T'
aS'C'
aS'T'
aS'T'
aS'T'
aS'C'
aS'A'
aS'G'
aS'A'
aS'C'
aS'A'
aS'C'
aS'C'
aS'A'
aS'A'
aS'A'
aS'C'
aS'A'
aS'C'
aS'C'
aS'T'
aS'T'
aS'T'
aS'G'
aS'C'
aS'G'
aS'G'
aS'T'
aS'C'
aS'T'
aS'G'
aS'C'
aS'A'
aS'C'
aS'A'
aS'A'
aS'A'
aS'G'
aS'C'
aS'A'
aS'C'
aS'C'
aS'G'
aS'T'
aS'G'
aS'G'
aS'G'
aS'G'
aS'T'
aS'C'
aS'C'
aS'T'
aS'T'
aS'T'
aS'T'
aS'G'
aS'C'
aS'A'
aS'G'
aS'G'
aS'C'
aS'C'
aS'C'
aS'T'
aS'C'
aS'A'
aS'A'
aS'T'
aS'G'
aS'A'
aS'C'
aS'A'
aS'A'
aS'A'
aS'G'
aS'A'
aS'C'
aS'A'
aS'T'
aS'G'
aS'A'
aS'A'
aS'C'
aS'G'
aS'A'
aS'C'
aS'T'
aS'G'
aS'G'
aS'T'
aS'T'
aS'G'
aS'T'
aS'A'
aS'T'
aS'G'
aS'C'
aS'C'
aS'T'
aS'T'
aS'C'
aS'A'
aS'A'
aS'C'
aS'C'
aS'C'
aS'A'
aS'C'
aS'T'
aS'T'
aS'C'
aS'T'
aS'A'
aS'G'
aS'C'
aS'T'
aS'G'
aS'G'
aS'C'
aS'A'
aS'C'
aS'A'
aS'A'
aS'T'
aS'A'
aS'C'
aS'G'
aS'G'
aS'T'
aS'A'
aS'A'
aS'G'
aS'A'
aS'A'
aS'G'
aS'T'
aS'T'
aS'T'
aS'T'
aS'G'
aS'T'
aS'T'
aS'G'
aS'T'
aS'T'
aS'G'
aS'T'
aS'T'
aS'G'
aS'T'
aS'T'
aS'G'
aS'T'
aS'T'
aS'G'
aS'T'
aS'T'
aS'T'
aS'T'
aS'T'
aS'G'
aS'A'
aS'G'
aS'A'
aS'C'
aS'G'
aS'G'
aS'A'
aS'G'
aS'T'
aS'C'
aS'T'
aS'C'
aS'A'
aS'C'
aS'T'
aS'T'
aS'T'
aS'T'
aS'T'
aS'C'
aS'T'
aS'C'
aS'C'
aS'C'
aS'T'
aS'G'
aS'A'
aS'A'
aS'G'
aS'T'
aS'G'
aS'C'
aS'A'
aS'G'
aS'T'
aS'G'
aS'G'
aS'C'
aS'T'
aS'T'
aS'G'
aS'G'
aS'T'
aS'C'
aS'T'
aS'T'
aS'G'
aS'G'
aS'C'
aS'T'
aS'C'
aS'A'
aS'C'
aS'T'
aS'G'
aS'C'
aS'A'
aS'A'
aS'C'
aS'C'
aS'T'
aS'C'
aS'C'
aS'G'
aS'C'
aS'C'
aS'C'
aS'C'
aS'C'
aS'T'
aS'G'
aS'G'
aS'T'
aS'T'
aS'C'
aS'A'
aS'A'
aS'G'
aS'C'
aS'G'
aS'A'
aS'T'
aS'T'
aS'C'
aS'T'
aS'C'
aS'C'
aS'T'
aS'G'
aS'A'
aS'C'
aS'T'
aS'C'
aS'A'
aS'G'
aS'C'
aS'C'
aS'T'
aS'C'
aS'C'
aS'C'
aS'C'
aS'A'
aS'G'
aS'T'
aS'A'
aS'G'
aS'C'
aS'T'
aS'G'
aS'A'
aS'G'
aS'A'
aS'C'
aS'T'
aS'A'
assI47
(dp205
g109
I170840
sg110
I5058
sg111
I5358
sg112
I175898
sg113
(lp206
S'C'
aS'A'
aS'G'
aS'G'
aS'G'
aS'T'
aS'C'
aS'C'
aS'C'
aS'G'
aS'G'
aS'A'
aS'G'
aS'T'
aS'A'
aS'G'
aS'A'
aS'C'
aS'G'
aS'G'
aS'C'
aS'T'
aS'T'
aS'A'
aS'G'
aS'A'
aS'G'
aS'G'
aS'A'
aS'C'
aS'T'
aS'A'
aS'G'
aS'G'
aS'C'
aS'C'
aS'T'
aS'G'
aS'C'
aS'G'
aS'G'
aS'T'
aS'G'
aS'C'
aS'C'
aS'A'
aS'A'
aS'A'
aS'T'
aS'A'
aS'G'
aS'G'
aS'A'
aS'A'
aS'G'
aS'A'
aS'T'
aS'G'
aS'C'
aS'T'
aS'C'
aS'C'
aS'A'
aS'G'
aS'G'
aS'A'
aS'G'
aS'G'
aS'G'
aS'A'
aS'G'
aS'C'
aS'C'
aS'T'
aS'C'
aS'A'
aS'G'
aS'A'
aS'G'
aS'G'
aS'G'
aS'A'
aS'G'
aS'A'
aS'G'
aS'G'
aS'A'
aS'C'
aS'T'
aS'G'
aS'T'
aS'G'
aS'A'
aS'G'
aS'G'
aS'G'
aS'G'
aS'A'
aS'C'
aS'A'
aS'A'
aS'G'
aS'A'
aS'C'
aS'T'
aS'T'
aS'G'
aS'T'
aS'A'
aS'C'
aS'C'
aS'C'
aS'A'
aS'G'
aS'A'
aS'C'
aS'T'
aS'T'
aS'C'
aS'T'
aS'A'
aS'A'
aS'T'
aS'C'
aS'C'
aS'T'
aS'A'
aS'C'
aS'C'
aS'T'
aS'C'
aS'C'
aS'C'
aS'C'
aS'G'
aS'T'
aS'T'
aS'T'
aS'G'
aS'T'
aS'C'
aS'C'
aS'C'
aS'C'
aS'C'
aS'A'
aS'T'
aS'A'
aS'G'
aS'G'
aS'T'
aS'C'
aS'A'
aS'A'
aS'A'
aS'G'
aS'C'
aS'T'
aS'T'
aS'T'
aS'C'
aS'C'
aS'C'
aS'G'
aS'C'
aS'A'
aS'G'
aS'A'
aS'T'
aS'G'
aS'C'
aS'C'
aS'C'
aS'G'
aS'A'
aS'G'
aS'C'
aS'C'
aS'A'
aS'G'
aS'T'
aS'C'
aS'G'
aS'A'
aS'A'
aS'A'
aS'T'
aS'A'
aS'C'
aS'T'
aS'A'
aS'A'
aS'G'
aS'T'
aS'G'
aS'A'
aS'C'
aS'T'
aS'C'
aS'T'
aS'G'
aS'C'
aS'C'
aS'G'
aS'A'
aS'G'
aS'T'
aS'G'
aS'C'
aS'C'
aS'C'
aS'T'
aS'C'
aS'A'
aS'C'
aS'T'
aS'C'
aS'G'
aS'C'
aS'C'
aS'T'
aS'T'
aS'C'
aS'G'
aS'A'
aS'G'
aS'A'
aS'G'
aS'A'
aS'T'
aS'A'
aS'A'
aS'A'
aS'G'
aS'A'
aS'A'
aS'A'
aS'G'
aS'C'
aS'G'
aS'T'
aS'T'
aS'A'
aS'C'
aS'C'
aS'T'
aS'C'
aS'T'
aS'C'
aS'A'
aS'T'
aS'T'
aS'T'
aS'C'
aS'T'
aS'C'
aS'T'
aS'T'
aS'T'
aS'G'
aS'T'
aS'G'
aS'A'
aS'T'
aS'T'
aS'C'
aS'T'
aS'T'
aS'G'
aS'A'
aS'C'
aS'G'
aS'G'
aS'T'
aS'G'
aS'A'
aS'C'
aS'T'
aS'C'
aS'T'
aS'T'
aS'G'
aS'T'
aS'A'
aS'T'
aS'G'
aS'T'
aS'A'
aS'A'
aS'T'
aS'C'
aS'C'
aS'T'
aS'G'
aS'T'
aS'G'
aS'G'
aS'C'
aS'T'
aS'T'
aS'A'
aS'A'
aS'C'
aS'T'
aS'A'
aS'C'
aS'T'
aS'T'
aS'C'
aS'T'
aS'C'
aS'C'
aS'C'
aS'T'
aS'C'
aS'C'
aS'T'
aS'T'
aS'G'
aS'T'
aS'C'
aS'C'
aS'A'
aS'G'
aS'C'
aS'A'
aS'C'
aS'T'
aS'T'
aS'T'
aS'T'
aS'C'
aS'T'
aS'A'
aS'G'
aS'C'
aS'T'
aS'C'
aS'T'
aS'C'
aS'C'
aS'C'
aS'G'
aS'T'
aS'T'
aS'C'
aS'C'
aS'C'
aS'C'
aS'A'
aS'T'
aS'C'
aS'T'
aS'C'
aS'C'
aS'A'
aS'T'
aS'T'
aS'G'
aS'C'
aS'T'
aS'C'
aS'T'
aS'G'
aS'T'
aS'A'
aS'C'
aS'T'
aS'C'
aS'T'
aS'T'
aS'T'
aS'T'
aS'C'
aS'T'
aS'T'
aS'T'
aS'T'
aS'T'
aS'T'
aS'C'
aS'T'
aS'T'
aS'G'
aS'T'
aS'G'
aS'C'
aS'T'
aS'G'
aS'A'
aS'G'
aS'A'
aS'A'
aS'T'
aS'C'
aS'T'
aS'C'
aS'G'
aS'T'
aS'T'
aS'A'
aS'G'
aS'T'
aS'A'
aS'G'
aS'C'
aS'A'
aS'T'
aS'G'
aS'T'
aS'G'
aS'G'
aS'C'
aS'C'
aS'T'
aS'A'
aS'A'
aS'C'
aS'A'
aS'A'
aS'A'
aS'A'
aS'G'
aS'G'
aS'A'
aS'A'
aS'A'
aS'A'
aS'A'
aS'A'
aS'T'
aS'G'
aS'T'
aS'T'
aS'T'
aS'T'
aS'T'
aS'A'
aS'A'
aS'A'
aS'C'
aS'A'
aS'C'
aS'A'
aS'C'
aS'A'
aS'C'
aS'A'
aS'C'
aS'A'
aS'C'
aS'A'
aS'C'
aS'A'
aS'C'
aS'A'
aS'C'
aS'A'
aS'C'
aS'A'
aS'C'
aS'A'
aS'C'
aS'A'
aS'C'
aS'A'
aS'C'
aS'A'
aS'C'
aS'A'
aS'C'
aS'A'
aS'T'
aS'A'
aS'C'
aS'A'
aS'C'
aS'A'
aS'G'
aS'A'
aS'C'
aS'A'
aS'A'
aS'A'
aS'A'
aS'A'
aS'C'
aS'A'
aS'C'
aS'A'
aS'A'
aS'A'
aS'A'
aS'A'
aS'C'
aS'T'
aS'C'
aS'T'
aS'G'
aS'A'
aS'G'
aS'G'
aS'G'
aS'G'
aS'A'
aS'T'
aS'C'
aS'T'
aS'G'
aS'G'
aS'T'
aS'G'
aS'A'
aS'A'
aS'T'
aS'C'
aS'T'
aS'C'
aS'C'
aS'A'
aS'A'
aS'A'
aS'T'
aS'T'
aS'A'
aS'T'
aS'T'
aS'G'
aS'T'
aS'G'
aS'G'
aS'G'
aS'T'
aS'G'
aS'T'
aS'A'
aS'C'
aS'T'
aS'T'
aS'T'
aS'G'
aS'G'
aS'C'
aS'T'
aS'T'
aS'C'
aS'C'
aS'T'
aS'T'
aS'T'
aS'T'
aS'G'
aS'T'
aS'A'
aS'T'
aS'G'
aS'A'
aS'T'
aS'A'
aS'G'
aS'G'
aS'T'
aS'C'
aS'C'
aS'C'
aS'C'
aS'A'
aS'T'
aS'C'
aS'A'
aS'T'
aS'G'
aS'A'
aS'C'
aS'C'
aS'A'
aS'C'
aS'C'
aS'T'
aS'C'
aS'T'
aS'G'
aS'A'
aS'T'
aS'G'
aS'T'
aS'C'
aS'T'
aS'G'
aS'T'
aS'G'
aS'C'
aS'T'
aS'G'
aS'C'
aS'T'
aS'G'
aS'T'
aS'C'
aS'A'
aS'C'
aS'C'
aS'A'
aS'G'
aS'G'
aS'C'
aS'A'
aS'C'
aS'C'
aS'T'
aS'T'
aS'T'
aS'G'
aS'T'
aS'T'
aS'T'
aS'T'
aS'T'
aS'C'
aS'A'
aS'A'
aS'G'
aS'A'
aS'C'
aS'A'
aS'A'
aS'C'
aS'A'
aS'T'
aS'A'
aS'C'
aS'T'
aS'T'
aS'T'
aS'T'
aS'T'
aS'T'
aS'T'
aS'T'
aS'T'
aS'C'
aS'T'
aS'T'
aS'T'
aS'T'
aS'C'
aS'T'
aS'C'
aS'T'
aS'G'
aS'T'
aS'T'
aS'T'
aS'G'
aS'T'
aS'G'
aS'A'
aS'T'
aS'A'
aS'T'
aS'C'
aS'A'
aS'C'
aS'T'
aS'T'
aS'T'
aS'A'
aS'A'
aS'T'
aS'T'
aS'T'
aS'T'
aS'T'
aS'C'
aS'T'
aS'T'
aS'G'
aS'G'
aS'G'
aS'T'
aS'G'
aS'G'
aS'C'
aS'T'
aS'T'
aS'A'
aS'G'
aS'A'
aS'G'
aS'A'
aS'C'
aS'T'
aS'A'
aS'A'
aS'G'
aS'G'
aS'G'
aS'A'
aS'G'
aS'G'
aS'A'
aS'G'
aS'A'
aS'C'
aS'A'
aS'T'
aS'C'
aS'T'
aS'G'
aS'G'
aS'C'
aS'C'
aS'T'
aS'T'
aS'T'
aS'T'
aS'T'
aS'A'
aS'G'
aS'A'
aS'A'
aS'C'
aS'C'
aS'T'
aS'G'
aS'A'
aS'G'
aS'A'
aS'G'
aS'G'
aS'A'
aS'A'
aS'A'
aS'A'
aS'A'
aS'A'
aS'A'
aS'G'
aS'A'
aS'G'
aS'T'
aS'C'
aS'T'
aS'T'
aS'T'
aS'T'
aS'T'
aS'T'
aS'T'
aS'C'
aS'C'
aS'C'
aS'C'
aS'T'
aS'C'
aS'T'
aS'G'
aS'T'
aS'C'
aS'T'
aS'C'
aS'T'
aS'T'
aS'T'
aS'T'
aS'T'
aS'G'
aS'C'
aS'C'
aS'A'
aS'T'
aS'G'
aS'G'
aS'C'
aS'T'
aS'A'
aS'A'
aS'T'
aS'C'
aS'C'
aS'C'
aS'T'
aS'G'
aS'C'
aS'A'
aS'T'
aS'T'
aS'T'
aS'C'
aS'C'
aS'A'
aS'T'
aS'T'
aS'C'
aS'A'
aS'G'
aS'G'
aS'G'
aS'A'
aS'A'
aS'A'
aS'A'
aS'G'
aS'G'
aS'T'
aS'G'
aS'G'
aS'T'
aS'A'
aS'G'
aS'T'
aS'G'
aS'A'
aS'G'
aS'C'
aS'A'
aS'T'
aS'A'
aS'G'
aS'A'
aS'A'
aS'C'
aS'T'
aS'G'
aS'C'
aS'A'
aS'A'
aS'C'
aS'A'
aS'G'
aS'T'
aS'T'
aS'A'
aS'T'
aS'A'
aS'T'
aS'T'
aS'C'
aS'T'
aS'G'
aS'A'
aS'G'
aS'T'
aS'C'
aS'A'
aS'A'
aS'A'
aS'G'
aS'T'
aS'T'
aS'G'
aS'G'
aS'G'
aS'G'
aS'C'
aS'T'
aS'T'
aS'T'
aS'T'
aS'T'
aS'A'
aS'C'
aS'G'
aS'G'
aS'C'
aS'A'
aS'T'
aS'A'
aS'A'
aS'T'
aS'T'
aS'A'
aS'T'
aS'G'
aS'G'
aS'A'
aS'A'
aS'T'
aS'T'
aS'T'
aS'T'
aS'T'
aS'A'
aS'T'
aS'T'
aS'T'
aS'A'
aS'C'
aS'T'
aS'G'
aS'G'
aS'T'
aS'A'
aS'G'
aS'A'
aS'G'
aS'A'
aS'G'
aS'G'
aS'A'
aS'G'
aS'A'
aS'C'
aS'G'
aS'A'
aS'G'
aS'A'
aS'G'
aS'G'
aS'C'
aS'T'
aS'T'
aS'T'
aS'T'
aS'T'
aS'C'
aS'A'
aS'G'
aS'T'
aS'G'
aS'G'
aS'G'
aS'C'
aS'C'
aS'T'
aS'G'
aS'G'
aS'G'
aS'A'
aS'C'
aS'A'
aS'G'
aS'T'
aS'G'
aS'G'
aS'C'
aS'T'
aS'G'
aS'C'
aS'T'
aS'C'
aS'T'
aS'T'
aS'G'
aS'A'
aS'C'
aS'T'
aS'T'
aS'T'
aS'G'
aS'T'
aS'G'
aS'T'
aS'G'
aS'A'
aS'A'
aS'G'
aS'G'
aS'G'
aS'A'
aS'A'
aS'A'
aS'T'
aS'G'
aS'C'
aS'C'
aS'A'
aS'A'
aS'G'
aS'G'
aS'A'
aS'T'
aS'G'
aS'C'
aS'T'
aS'T'
aS'C'
aS'T'
aS'G'
aS'G'
aS'T'
aS'G'
aS'G'
aS'A'
aS'C'
aS'T'
aS'T'
aS'C'
aS'A'
aS'G'
aS'G'
aS'G'
aS'G'
aS'A'
aS'C'
aS'C'
aS'C'
aS'C'
aS'A'
aS'G'
aS'G'
aS'G'
aS'T'
aS'T'
aS'T'
aS'G'
aS'G'
aS'C'
aS'C'
aS'G'
aS'T'
aS'G'
aS'G'
aS'G'
aS'C'
aS'C'
aS'G'
aS'T'
aS'G'
aS'A'
aS'T'
aS'G'
aS'G'
aS'C'
aS'A'
aS'G'
aS'C'
aS'A'
aS'G'
aS'G'
aS'C'
aS'G'
aS'G'
aS'T'
aS'G'
aS'G'
aS'G'
aS'A'
aS'T'
aS'G'
aS'C'
aS'T'
aS'T'
aS'G'
aS'T'
aS'A'
aS'G'
aS'C'
aS'T'
aS'C'
aS'C'
aS'T'
aS'C'
aS'A'
aS'C'
aS'A'
aS'G'
aS'C'
aS'A'
aS'G'
aS'G'
aS'A'
aS'T'
aS'T'
aS'C'
aS'C'
aS'T'
aS'G'
aS'C'
aS'C'
aS'C'
aS'A'
aS'C'
aS'T'
aS'G'
aS'T'
aS'T'
aS'T'
aS'T'
aS'T'
aS'T'
aS'C'
aS'T'
aS'C'
aS'T'
aS'G'
aS'T'
aS'T'
aS'G'
aS'G'
aS'G'
aS'A'
aS'G'
aS'G'
aS'G'
aS'A'
aS'A'
aS'G'
aS'C'
aS'T'
aS'C'
aS'T'
aS'T'
aS'T'
aS'T'
aS'C'
aS'T'
aS'A'
aS'G'
aS'G'
aS'A'
aS'G'
aS'T'
aS'G'
aS'T'
aS'C'
aS'T'
aS'C'
aS'A'
aS'G'
aS'T'
aS'T'
aS'C'
aS'T'
aS'G'
aS'C'
aS'T'
aS'T'
aS'T'
aS'T'
aS'G'
aS'G'
aS'C'
aS'A'
aS'T'
aS'T'
aS'A'
aS'G'
aS'T'
aS'G'
aS'A'
aS'T'
aS'G'
aS'G'
aS'T'
aS'G'
aS'G'
aS'T'
aS'G'
aS'G'
aS'T'
aS'A'
aS'C'
aS'A'
aS'G'
aS'T'
aS'T'
aS'G'
aS'G'
aS'A'
aS'A'
aS'T'
aS'T'
aS'A'
aS'G'
aS'T'
aS'G'
aS'C'
aS'C'
aS'A'
aS'T'
aS'G'
aS'T'
aS'C'
aS'A'
aS'T'
aS'A'
aS'C'
aS'A'
aS'C'
aS'A'
aS'A'
aS'A'
aS'T'
aS'G'
aS'T'
aS'T'
aS'C'
aS'C'
aS'A'
aS'C'
aS'A'
aS'A'
aS'G'
aS'G'
aS'C'
aS'G'
aS'G'
aS'G'
aS'A'
aS'G'
aS'T'
aS'G'
aS'T'
aS'T'
aS'T'
aS'C'
aS'A'
aS'C'
aS'T'
aS'T'
aS'T'
aS'C'
aS'T'
aS'G'
aS'G'
aS'T'
aS'G'
aS'A'
aS'T'
aS'A'
aS'A'
aS'A'
aS'C'
aS'T'
aS'T'
aS'G'
aS'A'
aS'T'
aS'G'
aS'G'
aS'T'
aS'C'
aS'A'
aS'T'
aS'T'
aS'G'
aS'T'
aS'T'
aS'A'
aS'T'
aS'G'
aS'A'
aS'T'
aS'T'
aS'A'
aS'A'
aS'G'
aS'A'
aS'T'
aS'A'
aS'A'
aS'T'
aS'G'
aS'C'
aS'C'
aS'G'
aS'G'
aS'G'
aS'C'
aS'A'
aS'G'
aS'G'
aS'C'
aS'C'
aS'G'
aS'G'
aS'G'
aS'C'
aS'A'
aS'C'
aS'A'
aS'G'
aS'T'
aS'G'
aS'G'
aS'C'
aS'T'
aS'C'
aS'A'
aS'C'
aS'G'
aS'C'
aS'C'
aS'T'
aS'G'
aS'T'
aS'A'
aS'A'
aS'T'
aS'C'
aS'C'
aS'A'
aS'A'
aS'G'
aS'C'
aS'A'
aS'C'
aS'T'
aS'T'
aS'G'
aS'G'
aS'G'
aS'G'
aS'A'
aS'G'
aS'G'
aS'C'
aS'C'
aS'G'
aS'A'
aS'G'
aS'G'
aS'C'
aS'G'
aS'G'
aS'G'
aS'C'
aS'A'
aS'G'
aS'A'
aS'T'
aS'C'
aS'A'
aS'C'
aS'G'
aS'A'
aS'G'
aS'A'
aS'T'
aS'C'
aS'A'
aS'G'
aS'G'
aS'A'
aS'G'
aS'T'
aS'T'
aS'C'
aS'A'
aS'A'
aS'G'
aS'A'
aS'C'
aS'C'
aS'A'
aS'G'
aS'C'
aS'C'
aS'T'
aS'G'
aS'G'
aS'C'
aS'C'
aS'A'
aS'A'
aS'T'
aS'A'
aS'T'
aS'G'
aS'A'
aS'T'
aS'G'
aS'A'
aS'A'
aS'A'
aS'C'
aS'C'
aS'C'
aS'C'
aS'G'
aS'T'
aS'C'
aS'T'
aS'C'
aS'T'
aS'A'
aS'C'
aS'T'
aS'A'
aS'A'
aS'A'
aS'A'
aS'A'
aS'T'
aS'A'
aS'C'
aS'A'
aS'A'
aS'A'
aS'A'
aS'T'
aS'T'
aS'A'
aS'G'
aS'T'
aS'C'
aS'G'
aS'G'
aS'G'
aS'T'
aS'A'
aS'T'
aS'G'
aS'G'
aS'T'
aS'G'
aS'G'
aS'C'
aS'A'
aS'C'
aS'A'
aS'T'
aS'G'
aS'C'
aS'C'
aS'T'
aS'G'
aS'T'
aS'A'
aS'A'
aS'T'
aS'T'
aS'C'
aS'C'
aS'A'
aS'G'
aS'C'
aS'T'
aS'G'
aS'C'
aS'T'
aS'T'
aS'G'
aS'G'
aS'G'
aS'A'
aS'G'
aS'C'
aS'C'
aS'T'
aS'G'
aS'A'
aS'G'
aS'G'
aS'C'
aS'A'
aS'G'
aS'G'
aS'A'
aS'G'
aS'A'
aS'A'
aS'C'
aS'T'
aS'G'
aS'C'
aS'T'
aS'T'
aS'G'
aS'A'
aS'A'
aS'C'
aS'C'
aS'C'
aS'A'
aS'G'
aS'G'
aS'A'
aS'G'
aS'G'
aS'C'
aS'A'
aS'G'
aS'A'
aS'G'
aS'G'
aS'T'
aS'T'
aS'G'
aS'C'
aS'A'
aS'G'
aS'T'
aS'G'
aS'A'
aS'G'
aS'C'
aS'C'
aS'A'
aS'A'
aS'G'
aS'A'
aS'T'
aS'C'
aS'G'
aS'C'
aS'G'
aS'C'
aS'T'
aS'A'
aS'T'
aS'T'
aS'G'
aS'C'
aS'A'
aS'C'
aS'T'
aS'C'
aS'C'
aS'A'
aS'G'
aS'C'
aS'C'
aS'T'
aS'G'
aS'G'
aS'G'
aS'T'
aS'G'
aS'A'
aS'C'
aS'A'
aS'G'
aS'A'
aS'G'
aS'C'
aS'A'
aS'A'
aS'G'
aS'A'
aS'C'
aS'T'
aS'C'
aS'T'
aS'G'
aS'C'
aS'C'
aS'T'
aS'C'
aS'A'
aS'G'
aS'A'
aS'A'
aS'A'
aS'A'
aS'A'
aS'A'
aS'A'
aS'A'
aS'A'
aS'A'
aS'A'
aS'A'
aS'A'
aS'T'
aS'A'
aS'A'
aS'T'
aS'A'
aS'A'
aS'T'
aS'G'
aS'C'
aS'T'
aS'G'
aS'G'
aS'G'
aS'T'
aS'A'
aS'G'
aS'T'
aS'G'
aS'A'
aS'C'
aS'C'
aS'T'
aS'T'
aS'G'
aS'T'
aS'G'
aS'A'
aS'T'
aS'T'
aS'G'
aS'T'
aS'T'
aS'A'
aS'C'
aS'A'
aS'G'
aS'C'
aS'T'
aS'C'
aS'C'
aS'C'
aS'T'
aS'T'
aS'T'
aS'G'
aS'A'
aS'T'
aS'C'
aS'A'
aS'A'
aS'A'
aS'G'
aS'A'
aS'A'
aS'A'
aS'T'
aS'A'
aS'T'
aS'A'
aS'G'
aS'C'
aS'T'
aS'T'
aS'T'
aS'C'
aS'A'
aS'G'
aS'G'
aS'C'
aS'A'
aS'T'
aS'A'
aS'A'
aS'A'
aS'C'
aS'C'
aS'T'
aS'G'
aS'G'
aS'A'
aS'A'
aS'G'
aS'T'
aS'C'
aS'T'
aS'C'
aS'C'
aS'C'
aS'T'
aS'C'
aS'T'
aS'G'
aS'A'
aS'A'
aS'T'
aS'C'
aS'C'
aS'A'
aS'G'
aS'C'
aS'A'
aS'G'
aS'T'
aS'T'
aS'G'
aS'T'
aS'T'
aS'T'
aS'T'
aS'C'
aS'A'
aS'T'
aS'T'
aS'G'
aS'A'
aS'T'
aS'G'
aS'C'
aS'T'
aS'T'
aS'G'
aS'T'
aS'C'
aS'A'
aS'G'
aS'G'
aS'T'
aS'T'
aS'G'
aS'A'
aS'A'
aS'G'
aS'A'
aS'T'
aS'G'
aS'C'
aS'T'
aS'T'
aS'T'
aS'C'
aS'A'
aS'G'
aS'T'
aS'G'
aS'A'
aS'T'
aS'G'
aS'C'
aS'T'
aS'C'
aS'T'
aS'C'
aS'T'
aS'A'
aS'T'
aS'A'
aS'C'
aS'T'
aS'C'
aS'A'
aS'T'
aS'A'
aS'A'
aS'A'
aS'T'
aS'A'
aS'A'
aS'G'
aS'C'
aS'A'
aS'A'
aS'A'
aS'T'
aS'G'
aS'T'
aS'G'
aS'G'
aS'C'
aS'A'
aS'G'
aS'G'
aS'C'
aS'T'
aS'T'
aS'T'
aS'G'
aS'C'
aS'T'
aS'T'
aS'T'
aS'C'
aS'T'
aS'G'
aS'G'
aS'A'
aS'T'
aS'C'
aS'C'
aS'C'
aS'A'
aS'G'
aS'G'
aS'A'
aS'T'
aS'T'
aS'A'
aS'A'
aS'A'
aS'A'
aS'C'
aS'T'
aS'A'
aS'A'
aS'C'
aS'C'
aS'G'
aS'T'
aS'G'
aS'A'
aS'C'
aS'C'
aS'A'
aS'C'
aS'T'
aS'A'
aS'C'
aS'T'
aS'C'
aS'C'
aS'A'
aS'A'
aS'A'
aS'C'
aS'A'
aS'A'
aS'A'
aS'A'
aS'C'
aS'A'
aS'C'
aS'A'
aS'A'
aS'T'
aS'A'
aS'T'
aS'G'
aS'C'
aS'C'
aS'T'
aS'A'
aS'G'
aS'G'
aS'G'
aS'G'
aS'C'
aS'A'
aS'C'
aS'G'
aS'G'
aS'A'
aS'T'
aS'G'
aS'A'
aS'A'
aS'C'
aS'G'
aS'T'
aS'C'
aS'C'
aS'A'
aS'G'
aS'G'
aS'G'
aS'A'
aS'G'
aS'C'
aS'C'
aS'C'
aS'G'
aS'G'
aS'G'
aS'C'
aS'C'
aS'C'
aS'C'
aS'A'
aS'G'
aS'G'
aS'C'
aS'T'
aS'T'
aS'T'
aS'G'
aS'T'
aS'T'
aS'G'
aS'C'
aS'G'
aS'T'
aS'G'
aS'T'
aS'T'
aS'C'
aS'C'
aS'C'
aS'T'
aS'G'
aS'C'
aS'T'
aS'C'
aS'C'
aS'T'
aS'C'
aS'T'
aS'C'
aS'C'
aS'A'
aS'T'
aS'C'
aS'T'
aS'G'
aS'G'
aS'T'
aS'G'
aS'T'
aS'G'
aS'G'
aS'A'
aS'A'
aS'A'
aS'C'
aS'A'
aS'C'
aS'T'
aS'G'
aS'C'
aS'C'
aS'C'
aS'A'
aS'G'
aS'G'
aS'G'
aS'A'
aS'G'
aS'A'
aS'A'
aS'A'
aS'G'
aS'G'
aS'A'
aS'G'
aS'G'
aS'A'
aS'A'
aS'G'
aS'C'
aS'T'
aS'C'
aS'A'
aS'C'
aS'T'
aS'G'
aS'T'
aS'G'
aS'G'
aS'A'
aS'C'
aS'A'
aS'G'
aS'T'
aS'C'
aS'T'
aS'T'
aS'C'
aS'T'
aS'T'
aS'T'
aS'C'
aS'C'
aS'T'
aS'T'
aS'C'
aS'T'
aS'G'
aS'A'
aS'C'
aS'A'
aS'G'
aS'A'
aS'C'
aS'C'
aS'A'
aS'G'
aS'G'
aS'T'
aS'C'
aS'A'
aS'T'
aS'C'
aS'T'
aS'G'
aS'G'
aS'C'
aS'T'
aS'T'
aS'C'
aS'C'
aS'G'
aS'A'
aS'G'
aS'A'
aS'T'
aS'C'
aS'A'
aS'T'
aS'C'
aS'A'
aS'G'
aS'A'
aS'G'
aS'A'
aS'A'
aS'G'
aS'A'
aS'T'
aS'A'
aS'A'
aS'G'
aS'T'
aS'C'
aS'T'
aS'G'
aS'T'
aS'C'
aS'T'
aS'C'
aS'T'
aS'T'
aS'T'
aS'C'
aS'A'
aS'G'
aS'C'
aS'T'
aS'G'
aS'C'
aS'C'
aS'A'
aS'G'
aS'T'
aS'A'
aS'A'
aS'G'
aS'T'
aS'T'
aS'T'
aS'T'
aS'C'
aS'C'
aS'A'
aS'G'
aS'G'
aS'A'
aS'T'
aS'G'
aS'A'
aS'G'
aS'A'
aS'G'
aS'G'
aS'G'
aS'G'
aS'A'
aS'A'
aS'A'
aS'A'
aS'A'
aS'G'
aS'A'
aS'A'
aS'A'
aS'G'
aS'C'
aS'C'
aS'T'
aS'C'
aS'C'
aS'A'
aS'G'
aS'T'
aS'G'
aS'A'
aS'C'
aS'T'
aS'T'
aS'C'
aS'A'
aS'G'
aS'T'
aS'T'
aS'G'
aS'C'
aS'T'
aS'T'
aS'T'
aS'G'
aS'C'
aS'C'
aS'A'
aS'G'
aS'T'
aS'T'
aS'G'
aS'T'
aS'C'
aS'T'
aS'T'
aS'G'
aS'G'
aS'G'
aS'A'
aS'T'
aS'T'
aS'G'
aS'T'
aS'T'
aS'T'
aS'T'
aS'A'
aS'C'
aS'A'
aS'C'
aS'C'
aS'A'
aS'T'
aS'C'
aS'C'
aS'T'
aS'T'
aS'T'
aS'A'
aS'C'
aS'T'
aS'T'
aS'C'
aS'C'
aS'C'
aS'T'
aS'T'
aS'G'
aS'C'
aS'T'
aS'C'
aS'A'
aS'G'
aS'A'
aS'C'
aS'C'
aS'T'
aS'C'
aS'T'
aS'C'
aS'T'
aS'G'
aS'T'
aS'T'
aS'T'
aS'C'
aS'A'
aS'C'
aS'C'
aS'A'
aS'T'
aS'T'
aS'G'
aS'C'
aS'T'
aS'C'
aS'A'
aS'G'
aS'G'
aS'C'
aS'A'
aS'T'
aS'T'
aS'C'
aS'A'
aS'G'
aS'G'
aS'A'
aS'A'
aS'A'
aS'G'
aS'T'
aS'A'
aS'T'
aS'C'
aS'T'
aS'G'
aS'C'
aS'T'
aS'C'
aS'A'
aS'C'
aS'T'
aS'C'
aS'C'
aS'C'
aS'A'
aS'C'
aS'T'
aS'T'
aS'G'
aS'G'
aS'T'
aS'G'
aS'A'
aS'G'
aS'T'
aS'C'
aS'C'
aS'T'
aS'C'
aS'G'
aS'G'
aS'C'
aS'C'
aS'T'
aS'T'
aS'G'
aS'A'
aS'G'
aS'G'
aS'T'
aS'T'
aS'G'
aS'C'
aS'T'
aS'G'
aS'A'
aS'C'
aS'T'
aS'C'
aS'T'
aS'C'
aS'A'
aS'G'
aS'G'
aS'C'
aS'G'
aS'T'
aS'T'
aS'A'
aS'G'
aS'G'
aS'C'
aS'A'
aS'G'
aS'C'
aS'T'
aS'G'
aS'G'
aS'A'
aS'T'
aS'G'
aS'A'
aS'C'
aS'T'
aS'T'
aS'C'
aS'C'
aS'C'
aS'G'
aS'C'
aS'T'
aS'T'
aS'C'
aS'A'
aS'C'
aS'G'
aS'C'
aS'A'
aS'G'
aS'C'
aS'A'
aS'A'
aS'A'
aS'G'
aS'G'
aS'C'
aS'C'
aS'A'
aS'G'
aS'G'
aS'G'
aS'G'
aS'C'
aS'T'
aS'T'
aS'G'
aS'C'
aS'G'
aS'C'
aS'G'
aS'C'
aS'C'
aS'T'
aS'C'
aS'T'
aS'G'
aS'C'
aS'A'
aS'G'
aS'A'
aS'G'
aS'T'
aS'T'
aS'G'
aS'T'
aS'T'
aS'G'
aS'C'
aS'T'
aS'C'
aS'G'
aS'G'
aS'G'
aS'A'
aS'G'
aS'A'
aS'C'
aS'T'
aS'T'
aS'G'
aS'T'
aS'G'
aS'T'
aS'C'
aS'A'
aS'T'
aS'C'
aS'A'
aS'T'
aS'C'
aS'C'
aS'A'
aS'C'
aS'A'
aS'A'
aS'C'
aS'C'
aS'T'
aS'T'
aS'G'
aS'T'
aS'T'
aS'T'
aS'C'
aS'T'
aS'C'
aS'A'
aS'C'
aS'T'
aS'T'
aS'C'
aS'C'
aS'T'
aS'G'
aS'G'
aS'T'
aS'T'
aS'G'
aS'G'
aS'G'
aS'C'
aS'T'
aS'C'
aS'A'
aS'T'
aS'C'
aS'T'
aS'C'
aS'T'
aS'G'
aS'A'
aS'A'
aS'G'
aS'A'
aS'A'
aS'C'
aS'A'
aS'G'
aS'G'
aS'T'
aS'C'
aS'T'
aS'C'
aS'C'
aS'C'
aS'A'
aS'G'
aS'C'
aS'T'
aS'T'
aS'C'
aS'G'
aS'C'
aS'T'
aS'C'
aS'C'
aS'T'
aS'T'
aS'A'
aS'T'
aS'C'
aS'A'
aS'C'
aS'T'
aS'G'
aS'C'
aS'A'
aS'T'
aS'T'
aS'G'
aS'T'
aS'G'
aS'A'
aS'A'
aS'G'
aS'A'
aS'G'
aS'G'
aS'A'
aS'G'
aS'G'
aS'A'
aS'A'
aS'A'
aS'A'
aS'G'
aS'T'
aS'G'
aS'A'
aS'A'
aS'T'
aS'C'
aS'A'
aS'C'
aS'G'
aS'G'
aS'A'
aS'G'
aS'A'
aS'G'
aS'A'
aS'G'
aS'A'
aS'A'
aS'A'
aS'G'
aS'G'
aS'A'
aS'A'
aS'A'
aS'G'
aS'G'
aS'A'
aS'T'
aS'A'
aS'G'
aS'A'
aS'A'
aS'T'
aS'C'
aS'A'
aS'C'
aS'A'
aS'G'
aS'G'
aS'C'
aS'T'
aS'G'
aS'C'
aS'G'
aS'T'
aS'C'
aS'T'
aS'G'
aS'C'
aS'A'
aS'C'
aS'C'
aS'T'
aS'G'
aS'A'
aS'A'
aS'A'
aS'A'
aS'G'
aS'T'
aS'G'
aS'A'
aS'C'
aS'C'
aS'C'
aS'G'
aS'C'
aS'G'
aS'G'
aS'A'
aS'A'
aS'A'
aS'C'
aS'T'
aS'C'
aS'T'
aS'A'
aS'T'
aS'G'
aS'G'
aS'C'
aS'G'
aS'G'
aS'A'
aS'T'
aS'T'
aS'T'
aS'T'
aS'T'
aS'T'
aS'T'
aS'T'
aS'T'
aS'T'
aS'A'
aS'A'
aS'C'
aS'T'
aS'T'
aS'T'
aS'C'
aS'T'
aS'T'
aS'C'
aS'T'
aS'T'
aS'C'
aS'C'
aS'T'
aS'G'
aS'T'
aS'T'
aS'A'
aS'A'
aS'A'
aS'A'
aS'C'
aS'A'
aS'T'
aS'A'
aS'G'
aS'G'
aS'T'
aS'C'
aS'A'
aS'C'
aS'T'
aS'A'
aS'A'
aS'C'
aS'T'
aS'G'
aS'T'
aS'G'
aS'A'
aS'T'
aS'G'
aS'T'
aS'T'
aS'A'
aS'T'
aS'T'
aS'T'
aS'G'
aS'T'
aS'T'
aS'T'
aS'T'
aS'C'
aS'T'
aS'A'
aS'A'
aS'G'
aS'T'
aS'G'
aS'G'
aS'T'
aS'A'
aS'T'
aS'G'
aS'T'
aS'G'
aS'A'
aS'G'
aS'A'
aS'T'
aS'T'
aS'T'
aS'T'
aS'C'
aS'T'
aS'A'
aS'A'
aS'T'
aS'G'
aS'T'
aS'A'
aS'G'
aS'T'
aS'T'
aS'A'
aS'G'
aS'A'
aS'A'
aS'G'
aS'T'
aS'T'
aS'T'
aS'C'
aS'A'
aS'T'
aS'T'
aS'G'
aS'T'
aS'C'
aS'T'
aS'G'
aS'A'
aS'T'
aS'G'
aS'G'
aS'A'
aS'C'
aS'A'
aS'C'
aS'A'
aS'A'
aS'T'
aS'A'
aS'T'
aS'G'
aS'C'
aS'C'
aS'C'
aS'T'
aS'T'
aS'C'
aS'C'
aS'G'
aS'G'
aS'T'
aS'T'
aS'C'
aS'T'
aS'A'
aS'T'
aS'T'
aS'C'
aS'A'
aS'A'
aS'A'
aS'C'
aS'C'
aS'A'
aS'G'
aS'C'
aS'A'
aS'G'
aS'G'
aS'A'
aS'T'
aS'C'
aS'T'
aS'G'
aS'T'
aS'C'
aS'G'
aS'G'
aS'T'
aS'G'
aS'C'
aS'T'
aS'T'
aS'A'
aS'G'
aS'A'
aS'G'
aS'A'
aS'T'
aS'G'
aS'G'
aS'C'
aS'T'
aS'G'
aS'C'
aS'C'
aS'T'
aS'G'
aS'G'
aS'A'
aS'C'
aS'T'
aS'G'
aS'G'
aS'A'
aS'A'
aS'T'
aS'C'
aS'A'
aS'A'
aS'A'
aS'T'
aS'C'
aS'T'
aS'A'
aS'A'
aS'T'
aS'T'
aS'T'
aS'C'
aS'A'
aS'G'
aS'G'
aS'G'
aS'A'
aS'A'
aS'A'
aS'T'
aS'G'
aS'A'
aS'A'
aS'G'
aS'A'
aS'T'
aS'G'
aS'G'
aS'A'
aS'A'
aS'T'
aS'T'
aS'T'
aS'G'
aS'A'
aS'A'
aS'G'
aS'G'
aS'T'
aS'C'
aS'A'
aS'C'
aS'T'
aS'T'
aS'T'
aS'T'
aS'A'
aS'A'
aS'A'
aS'A'
aS'T'
aS'T'
aS'A'
aS'A'
aS'G'
aS'T'
aS'C'
aS'A'
aS'T'
aS'T'
aS'G'
aS'A'
aS'T'
aS'G'
aS'C'
aS'T'
aS'G'
aS'C'
aS'T'
aS'G'
aS'T'
aS'T'
aS'A'
aS'C'
aS'A'
aS'G'
aS'A'
aS'G'
aS'T'
aS'G'
aS'T'
aS'G'
aS'A'
aS'C'
aS'A'
aS'G'
aS'A'
aS'G'
aS'G'
aS'A'
aS'T'
aS'C'
aS'C'
aS'A'
aS'T'
aS'G'
aS'T'
aS'C'
aS'T'
aS'G'
aS'T'
aS'G'
aS'A'
aS'C'
aS'A'
aS'C'
aS'A'
aS'G'
aS'G'
aS'A'
aS'C'
aS'G'
aS'G'
aS'T'
aS'G'
aS'G'
aS'G'
aS'A'
aS'A'
aS'G'
aS'C'
aS'C'
aS'T'
aS'G'
aS'A'
aS'G'
aS'A'
aS'G'
aS'A'
aS'G'
aS'A'
aS'G'
aS'T'
aS'G'
aS'A'
aS'A'
aS'A'
aS'T'
aS'T'
aS'A'
aS'T'
aS'G'
aS'T'
aS'G'
aS'A'
aS'T'
aS'A'
aS'C'
aS'A'
aS'C'
aS'T'
aS'G'
aS'A'
aS'A'
aS'A'
aS'T'
aS'G'
aS'A'
aS'C'
aS'T'
aS'T'
aS'T'
aS'T'
aS'G'
aS'T'
aS'T'
aS'T'
aS'T'
aS'T'
aS'C'
aS'T'
aS'T'
aS'C'
aS'T'
aS'A'
aS'A'
aS'C'
aS'T'
aS'C'
aS'A'
aS'T'
aS'A'
aS'C'
aS'A'
aS'A'
aS'A'
aS'A'
aS'C'
aS'T'
aS'G'
aS'G'
aS'T'
aS'T'
aS'T'
aS'G'
aS'G'
aS'A'
aS'A'
aS'A'
aS'G'
aS'T'
aS'C'
aS'T'
aS'T'
aS'T'
aS'G'
aS'C'
aS'T'
aS'T'
aS'T'
aS'G'
aS'G'
aS'A'
aS'A'
aS'G'
aS'C'
aS'G'
aS'T'
aS'C'
aS'A'
aS'G'
aS'A'
aS'C'
aS'A'
aS'T'
aS'T'
aS'A'
aS'G'
aS'A'
aS'A'
aS'C'
aS'A'
aS'G'
aS'G'
aS'C'
aS'C'
aS'A'
aS'A'
aS'A'
aS'C'
aS'T'
aS'G'
aS'G'
aS'A'
aS'C'
aS'T'
aS'G'
aS'T'
aS'C'
aS'T'
aS'G'
aS'T'
aS'T'
aS'C'
aS'A'
aS'T'
aS'A'
aS'G'
aS'C'
aS'G'
aS'T'
aS'G'
aS'C'
aS'C'
aS'T'
aS'G'
aS'A'
aS'A'
aS'T'
aS'A'
aS'A'
aS'G'
aS'A'
aS'A'
aS'G'
aS'G'
aS'C'
aS'C'
aS'T'
aS'C'
aS'T'
aS'T'
aS'A'
aS'G'
aS'G'
aS'G'
aS'A'
aS'G'
aS'C'
aS'C'
aS'A'
aS'G'
aS'A'
aS'G'
aS'G'
aS'G'
aS'A'
aS'G'
aS'C'
aS'A'
aS'G'
aS'A'
aS'G'
aS'T'
aS'G'
aS'G'
aS'T'
aS'C'
aS'G'
aS'T'
aS'G'
aS'T'
aS'C'
aS'C'
aS'T'
aS'G'
aS'C'
aS'G'
aS'T'
aS'G'
aS'C'
aS'T'
aS'C'
aS'T'
aS'T'
aS'C'
aS'A'
aS'C'
aS'C'
aS'C'
aS'T'
aS'C'
aS'T'
aS'G'
aS'G'
aS'G'
aS'G'
aS'C'
aS'G'
aS'C'
aS'C'
aS'C'
aS'C'
aS'T'
aS'G'
aS'C'
aS'T'
aS'G'
aS'C'
aS'G'
aS'G'
aS'C'
aS'T'
aS'G'
aS'G'
aS'C'
aS'A'
aS'G'
aS'G'
aS'T'
aS'G'
aS'C'
aS'A'
aS'G'
aS'A'
aS'C'
aS'A'
aS'G'
aS'C'
aS'C'
aS'T'
aS'T'
aS'T'
aS'G'
aS'C'
aS'T'
aS'G'
aS'G'
aS'T'
aS'C'
aS'C'
aS'C'
aS'C'
aS'A'
aS'G'
aS'C'
aS'A'
aS'C'
aS'G'
aS'T'
aS'C'
aS'C'
aS'A'
aS'G'
aS'G'
aS'G'
aS'T'
aS'G'
aS'G'
aS'G'
aS'T'
aS'G'
aS'C'
aS'T'
aS'C'
aS'C'
aS'C'
aS'T'
aS'T'
aS'G'
aS'C'
aS'C'
aS'C'
aS'G'
aS'A'
aS'C'
aS'A'
aS'G'
aS'A'
aS'A'
aS'C'
aS'C'
aS'A'
aS'T'
aS'C'
aS'C'
aS'C'
aS'C'
aS'A'
aS'C'
aS'T'
aS'G'
aS'T'
aS'G'
aS'A'
aS'G'
aS'G'
aS'C'
aS'T'
aS'G'
aS'T'
aS'G'
aS'A'
aS'G'
aS'A'
aS'G'
aS'A'
aS'T'
aS'T'
aS'T'
aS'G'
aS'T'
aS'G'
aS'G'
aS'C'
aS'A'
aS'G'
aS'G'
aS'A'
aS'A'
aS'C'
aS'T'
aS'G'
aS'T'
aS'T'
aS'T'
aS'A'
aS'T'
aS'G'
aS'A'
aS'G'
aS'G'
aS'C'
aS'T'
aS'C'
aS'T'
aS'A'
aS'G'
aS'T'
aS'T'
aS'G'
aS'T'
aS'T'
aS'G'
aS'C'
aS'T'
aS'G'
aS'T'
aS'T'
aS'G'
aS'T'
aS'G'
aS'G'
aS'C'
aS'G'
aS'G'
aS'G'
aS'A'
aS'A'
aS'A'
aS'G'
aS'T'
aS'T'
aS'A'
aS'A'
aS'G'
aS'A'
aS'A'
aS'A'
aS'C'
aS'A'
aS'T'
aS'A'
aS'G'
aS'C'
aS'C'
aS'C'
aS'T'
aS'T'
aS'A'
aS'A'
aS'G'
aS'G'
aS'A'
aS'A'
aS'A'
aS'C'
aS'C'
aS'A'
aS'C'
aS'C'
aS'T'
aS'T'
aS'T'
aS'A'
aS'T'
aS'G'
aS'T'
aS'A'
aS'T'
aS'T'
aS'T'
aS'T'
aS'C'
aS'T'
aS'T'
aS'A'
aS'A'
aS'A'
aS'G'
aS'C'
aS'A'
aS'C'
aS'G'
aS'C'
aS'C'
aS'T'
aS'T'
aS'T'
aS'A'
aS'A'
aS'A'
aS'T'
aS'A'
aS'A'
aS'G'
aS'C'
aS'A'
aS'A'
aS'A'
aS'A'
aS'A'
aS'C'
aS'T'
aS'T'
aS'T'
aS'A'
aS'A'
aS'A'
aS'A'
aS'G'
aS'G'
aS'C'
aS'A'
aS'G'
aS'G'
aS'A'
aS'A'
aS'A'
aS'G'
aS'A'
aS'G'
aS'A'
aS'A'
aS'T'
aS'T'
aS'C'
aS'T'
aS'T'
aS'A'
aS'G'
aS'G'
aS'C'
aS'A'
aS'A'
aS'A'
aS'T'
aS'T'
aS'C'
aS'A'
aS'G'
aS'A'
aS'G'
aS'A'
aS'A'
aS'A'
aS'T'
aS'A'
aS'A'
aS'G'
aS'T'
aS'G'
aS'C'
aS'T'
aS'A'
aS'G'
aS'T'
aS'T'
aS'A'
aS'A'
aS'T'
aS'A'
aS'C'
aS'T'
aS'A'
aS'A'
aS'T'
aS'C'
aS'A'
aS'C'
aS'C'
aS'T'
aS'C'
aS'C'
aS'T'
aS'C'
aS'C'
aS'T'
aS'C'
aS'T'
aS'G'
aS'T'
aS'C'
aS'T'
aS'C'
aS'T'
aS'C'
aS'A'
aS'T'
aS'C'
aS'C'
aS'T'
aS'C'
aS'C'
aS'T'
aS'T'
aS'T'
aS'C'
aS'T'
aS'C'
aS'C'
aS'C'
aS'A'
aS'T'
aS'C'
aS'A'
aS'A'
aS'A'
aS'G'
aS'C'
aS'A'
aS'A'
aS'A'
aS'A'
aS'T'
aS'A'
aS'T'
aS'G'
aS'G'
aS'C'
aS'C'
aS'T'
aS'C'
aS'A'
aS'C'
aS'C'
aS'A'
aS'C'
aS'C'
aS'A'
aS'G'
aS'C'
aS'C'
aS'C'
aS'C'
aS'A'
aS'A'
aS'A'
aS'T'
aS'C'
aS'A'
aS'G'
aS'T'
aS'G'
aS'C'
aS'T'
aS'C'
aS'A'
aS'G'
aS'A'
aS'C'
aS'C'
aS'C'
aS'T'
aS'C'
aS'T'
aS'C'
aS'T'
aS'G'
aS'T'
aS'G'
aS'T'
aS'C'
aS'T'
aS'G'
aS'T'
aS'G'
aS'T'
aS'G'
aS'C'
aS'C'
aS'C'
aS'T'
aS'C'
aS'C'
aS'T'
aS'G'
aS'G'
aS'G'
aS'A'
aS'G'
aS'T'
aS'C'
aS'A'
aS'G'
aS'T'
aS'C'
aS'A'
aS'G'
aS'C'
aS'G'
aS'C'
aS'T'
aS'C'
aS'A'
aS'G'
aS'G'
aS'C'
aS'C'
aS'A'
aS'G'
aS'G'
aS'A'
aS'C'
aS'T'
aS'G'
aS'T'
aS'G'
aS'C'
aS'A'
aS'G'
aS'G'
aS'G'
aS'C'
aS'C'
aS'A'
aS'G'
aS'C'
aS'C'
aS'A'
aS'G'
aS'C'
aS'C'
aS'C'
aS'A'
aS'T'
aS'G'
aS'C'
aS'G'
aS'C'
aS'T'
aS'A'
aS'G'
aS'T'
aS'C'
aS'A'
aS'G'
aS'G'
aS'A'
aS'G'
aS'C'
aS'A'
aS'C'
aS'A'
aS'G'
aS'G'
aS'C'
aS'A'
aS'A'
aS'G'
aS'G'
aS'G'
aS'G'
aS'T'
aS'G'
aS'C'
aS'T'
aS'T'
aS'G'
aS'T'
aS'G'
aS'G'
aS'C'
aS'A'
aS'G'
aS'T'
aS'G'
aS'G'
aS'C'
aS'C'
aS'G'
aS'G'
aS'G'
aS'C'
aS'A'
aS'C'
aS'C'
aS'T'
aS'G'
aS'A'
aS'G'
aS'C'
aS'C'
aS'C'
aS'C'
aS'A'
aS'G'
aS'C'
aS'T'
aS'C'
aS'G'
aS'T'
aS'T'
aS'G'
aS'T'
aS'T'
aS'A'
aS'A'
aS'A'
aS'C'
aS'G'
aS'T'
aS'G'
aS'C'
aS'T'
aS'G'
aS'A'
aS'C'
aS'G'
aS'G'
aS'C'
aS'A'
aS'A'
aS'G'
aS'G'
aS'G'
aS'G'
aS'C'
aS'A'
aS'A'
aS'T'
aS'G'
aS'G'
aS'A'
aS'G'
aS'T'
aS'G'
aS'A'
aS'G'
aS'T'
aS'T'
aS'T'
aS'C'
aS'C'
aS'C'
aS'A'
aS'A'
aS'C'
aS'T'
aS'A'
aS'A'
aS'G'
aS'A'
aS'A'
aS'A'
aS'C'
aS'C'
aS'A'
aS'C'
aS'T'
aS'A'
aS'T'
aS'T'
aS'A'
aS'T'
aS'A'
aS'T'
aS'A'
aS'T'
aS'T'
aS'T'
aS'T'
aS'T'
aS'T'
aS'C'
aS'C'
aS'C'
aS'T'
aS'T'
aS'C'
aS'A'
aS'G'
aS'T'
aS'C'
aS'A'
aS'C'
aS'A'
aS'T'
aS'A'
aS'G'
aS'A'
aS'C'
aS'T'
aS'T'
aS'C'
aS'A'
aS'G'
aS'A'
aS'C'
aS'A'
aS'A'
aS'C'
aS'T'
aS'C'
aS'T'
aS'C'
aS'C'
aS'T'
aS'A'
aS'T'
aS'T'
aS'T'
aS'T'
aS'T'
aS'T'
aS'A'
aS'T'
aS'G'
aS'G'
aS'A'
aS'T'
aS'T'
aS'T'
aS'T'
aS'T'
aS'C'
aS'A'
aS'G'
aS'C'
aS'T'
aS'C'
aS'A'
aS'T'
aS'T'
aS'T'
aS'C'
aS'A'
aS'G'
aS'A'
aS'T'
aS'G'
aS'A'
aS'A'
aS'G'
aS'G'
aS'A'
aS'A'
aS'C'
aS'T'
aS'A'
aS'A'
aS'G'
aS'T'
aS'C'
aS'A'
aS'T'
aS'T'
aS'G'
aS'T'
aS'G'
aS'A'
aS'A'
aS'C'
aS'T'
aS'G'
aS'T'
aS'C'
aS'T'
aS'C'
aS'T'
aS'T'
aS'G'
aS'A'
aS'G'
aS'A'
aS'T'
aS'C'
aS'T'
aS'A'
aS'A'
aS'A'
aS'A'
aS'A'
aS'C'
aS'A'
aS'A'
aS'G'
aS'A'
aS'T'
aS'G'
aS'A'
aS'C'
aS'T'
aS'T'
aS'T'
aS'T'
aS'C'
aS'C'
aS'T'
aS'G'
aS'G'
aS'C'
aS'A'
aS'C'
aS'A'
aS'T'
aS'A'
aS'T'
aS'T'
aS'C'
aS'C'
aS'A'
aS'A'
aS'A'
aS'G'
aS'C'
aS'A'
aS'A'
aS'A'
aS'G'
aS'A'
aS'C'
aS'T'
aS'T'
aS'T'
aS'G'
aS'T'
aS'T'
aS'G'
aS'C'
aS'C'
aS'T'
aS'G'
aS'C'
aS'T'
aS'G'
aS'C'
aS'T'
aS'T'
aS'A'
aS'T'
aS'T'
aS'G'
aS'T'
aS'C'
aS'T'
aS'A'
aS'A'
aS'T'
aS'T'
aS'T'
aS'A'
aS'C'
aS'A'
aS'G'
aS'G'
aS'G'
aS'A'
aS'T'
aS'A'
aS'T'
aS'T'
aS'T'
aS'A'
aS'A'
aS'T'
aS'T'
aS'T'
aS'T'
aS'G'
aS'T'
aS'C'
aS'A'
aS'G'
aS'G'
aS'T'
aS'C'
aS'T'
aS'A'
aS'T'
aS'G'
aS'T'
aS'A'
aS'T'
aS'A'
aS'T'
aS'T'
aS'T'
aS'A'
aS'T'
aS'C'
aS'C'
aS'A'
aS'G'
aS'C'
aS'T'
aS'A'
aS'T'
aS'A'
aS'C'
aS'T'
aS'T'
aS'A'
aS'C'
aS'T'
aS'T'
aS'G'
aS'C'
aS'A'
aS'C'
aS'A'
aS'G'
aS'T'
aS'G'
aS'G'
aS'A'
aS'T'
aS'T'
aS'G'
aS'G'
aS'A'
aS'G'
aS'A'
aS'G'
aS'A'
aS'A'
aS'A'
aS'G'
aS'G'
aS'A'
aS'T'
aS'T'
aS'C'
aS'T'
aS'C'
aS'C'
aS'A'
aS'G'
aS'T'
aS'G'
aS'T'
aS'G'
aS'C'
aS'A'
aS'C'
aS'A'
aS'C'
aS'T'
aS'C'
aS'A'
aS'T'
aS'C'
aS'G'
aS'G'
aS'T'
aS'A'
aS'C'
aS'T'
aS'C'
aS'T'
aS'T'
aS'T'
aS'C'
aS'T'
aS'G'
aS'C'
aS'A'
aS'T'
aS'T'
aS'T'
aS'C'
aS'C'
aS'C'
aS'T'
aS'C'
aS'G'
aS'T'
aS'G'
aS'C'
aS'T'
aS'G'
aS'T'
aS'G'
aS'T'
aS'C'
aS'C'
aS'C'
aS'G'
aS'C'
aS'T'
aS'C'
aS'G'
aS'G'
aS'G'
aS'T'
aS'T'
aS'C'
aS'C'
aS'A'
aS'A'
aS'T'
aS'G'
aS'G'
aS'A'
aS'C'
aS'A'
aS'G'
aS'T'
aS'A'
aS'T'
aS'C'
aS'A'
aS'G'
aS'G'
aS'G'
aS'C'
aS'T'
aS'T'
aS'G'
aS'T'
aS'T'
aS'T'
aS'G'
aS'A'
aS'C'
aS'T'
aS'T'
aS'A'
aS'G'
aS'G'
aS'T'
aS'C'
aS'T'
aS'T'
aS'T'
aS'C'
aS'A'
aS'G'
aS'T'
aS'T'
aS'T'
aS'T'
aS'C'
aS'C'
aS'T'
aS'T'
aS'T'
aS'C'
aS'G'
aS'G'
aS'T'
aS'T'
aS'C'
aS'C'
aS'C'
aS'T'
aS'T'
aS'T'
aS'T'
aS'A'
aS'A'
aS'A'
aS'A'
aS'A'
aS'T'
aS'G'
aS'T'
aS'G'
aS'A'
aS'T'
aS'T'
aS'G'
aS'T'
aS'T'
aS'A'
aS'A'
aS'C'
aS'C'
aS'T'
aS'G'
aS'C'
aS'C'
aS'T'
aS'C'
aS'T'
aS'T'
aS'G'
aS'A'
aS'A'
aS'A'
aS'G'
aS'A'
aS'T'
aS'T'
aS'C'
aS'A'
aS'A'
aS'C'
aS'C'
aS'G'
aS'G'
aS'G'
aS'T'
aS'G'
aS'T'
aS'G'
aS'G'
aS'T'
aS'G'
aS'G'
aS'C'
aS'T'
aS'C'
aS'A'
aS'C'
aS'G'
aS'C'
aS'C'
aS'T'
aS'G'
aS'T'
aS'A'
aS'A'
aS'T'
aS'C'
aS'C'
aS'C'
aS'A'
aS'G'
aS'C'
aS'A'
aS'C'
aS'A'
aS'T'
aS'T'
aS'G'
aS'G'
aS'G'
aS'A'
aS'G'
aS'G'
aS'C'
aS'C'
aS'A'
aS'A'
aS'G'
aS'G'
aS'C'
aS'A'
aS'G'
aS'G'
aS'T'
aS'G'
aS'G'
aS'A'
aS'T'
aS'C'
aS'A'
aS'C'
aS'C'
aS'T'
aS'G'
aS'A'
aS'G'
aS'G'
aS'T'
aS'C'
aS'A'
aS'G'
aS'A'
aS'A'
aS'G'
aS'T'
aS'T'
aS'T'
aS'G'
aS'A'
aS'G'
aS'A'
aS'C'
aS'C'
aS'A'
aS'G'
aS'C'
aS'C'
aS'T'
aS'G'
aS'G'
aS'C'
aS'C'
aS'A'
aS'A'
aS'C'
aS'A'
aS'T'
aS'G'
aS'G'
aS'T'
aS'G'
aS'A'
aS'A'
aS'A'
aS'C'
aS'C'
aS'C'
aS'C'
aS'G'
aS'T'
aS'C'
aS'T'
aS'C'
aS'T'
aS'A'
aS'C'
aS'T'
aS'A'
aS'A'
aS'A'
aS'A'
aS'A'
aS'T'
aS'A'
aS'C'
aS'A'
aS'A'
aS'A'
aS'A'
aS'A'
aS'G'
aS'T'
aS'A'
aS'G'
aS'C'
aS'C'
aS'A'
aS'G'
aS'G'
aS'C'
aS'G'
aS'T'
aS'G'
aS'G'
aS'T'
aS'G'
aS'G'
aS'C'
aS'G'
aS'T'
aS'G'
aS'T'
aS'G'
aS'C'
aS'C'
aS'T'
aS'G'
aS'T'
aS'A'
aS'G'
aS'T'
aS'C'
aS'C'
aS'C'
aS'A'
aS'G'
aS'C'
aS'T'
aS'A'
aS'C'
aS'T'
aS'T'
aS'G'
aS'G'
aS'G'
aS'A'
aS'G'
aS'G'
aS'C'
aS'T'
aS'G'
aS'A'
aS'G'
aS'G'
aS'C'
aS'A'
aS'G'
aS'G'
aS'A'
aS'G'
aS'A'
aS'A'
aS'T'
aS'A'
aS'G'
aS'C'
aS'T'
aS'T'
aS'G'
aS'A'
aS'A'
aS'C'
aS'C'
aS'T'
aS'G'
aS'G'
aS'G'
aS'A'
aS'G'
aS'G'
aS'T'
aS'G'
aS'G'
aS'A'
aS'G'
aS'G'
aS'C'
aS'T'
aS'G'
aS'C'
aS'A'
aS'G'
aS'T'
aS'G'
aS'A'
aS'G'
aS'T'
aS'T'
aS'G'
aS'A'
aS'G'
aS'A'
aS'C'
aS'T'
aS'G'
aS'C'
aS'A'
aS'C'
aS'C'
aS'A'
aS'T'
aS'T'
aS'G'
aS'C'
aS'A'
aS'C'
aS'T'
aS'C'
aS'C'
aS'A'
aS'G'
aS'C'
aS'C'
aS'T'
aS'G'
aS'G'
aS'G'
aS'T'
aS'G'
aS'A'
aS'C'
aS'A'
aS'A'
aS'A'
aS'G'
aS'C'
aS'A'
aS'G'
aS'G'
aS'A'
aS'C'
aS'T'
aS'C'
aS'C'
aS'G'
aS'T'
aS'C'
aS'T'
aS'C'
aS'A'
aS'A'
aS'A'
aS'A'
aS'A'
aS'A'
aS'A'
aS'A'
aS'A'
aS'G'
aS'A'
aS'A'
aS'A'
aS'A'
aS'G'
aS'A'
aS'T'
aS'T'
aS'C'
aS'A'
aS'T'
aS'G'
aS'A'
aS'T'
aS'G'
aS'C'
aS'T'
aS'G'
aS'C'
aS'T'
aS'G'
aS'C'
aS'T'
aS'C'
aS'C'
aS'C'
aS'A'
aS'G'
aS'A'
aS'A'
aS'G'
aS'G'
aS'T'
aS'T'
aS'T'
aS'G'
aS'C'
aS'T'
aS'G'
aS'G'
aS'A'
aS'T'
aS'G'
aS'T'
aS'G'
aS'T'
aS'T'
aS'T'
aS'A'
aS'C'
aS'A'
aS'T'
aS'A'
aS'G'
aS'G'
aS'A'
aS'C'
aS'T'
aS'C'
aS'T'
aS'A'
aS'A'
aS'C'
aS'T'
aS'T'
aS'G'
aS'T'
aS'G'
aS'T'
aS'G'
aS'C'
aS'A'
aS'C'
aS'T'
aS'A'
aS'C'
aS'A'
aS'G'
aS'T'
aS'T'
aS'G'
aS'T'
aS'T'
aS'C'
aS'A'
aS'C'
aS'C'
aS'A'
aS'G'
aS'G'
aS'G'
aS'C'
aS'C'
aS'A'
aS'G'
aS'T'
aS'G'
aS'A'
aS'T'
aS'T'
aS'C'
aS'A'
aS'C'
aS'C'
aS'C'
aS'C'
aS'A'
aS'G'
aS'T'
aS'G'
aS'T'
aS'G'
aS'T'
aS'G'
aS'G'
aS'C'
aS'C'
aS'A'
aS'G'
aS'A'
aS'C'
aS'C'
aS'A'
aS'T'
aS'G'
aS'A'
aS'C'
aS'T'
aS'G'
aS'T'
aS'G'
aS'T'
aS'A'
aS'G'
aS'C'
aS'A'
aS'G'
aS'G'
aS'A'
aS'A'
aS'T'
aS'G'
aS'T'
aS'T'
aS'T'
aS'T'
aS'A'
aS'A'
aS'T'
aS'T'
aS'T'
aS'G'
aS'T'
aS'G'
aS'C'
aS'T'
aS'T'
aS'C'
aS'C'
aS'T'
aS'T'
aS'A'
aS'G'
aS'T'
aS'A'
aS'A'
aS'A'
aS'T'
aS'T'
aS'G'
aS'A'
aS'A'
aS'A'
aS'T'
aS'A'
aS'T'
aS'C'
aS'A'
aS'G'
aS'C'
aS'T'
aS'G'
aS'A'
aS'G'
aS'A'
aS'G'
aS'A'
aS'T'
aS'T'
aS'A'
aS'T'
aS'T'
aS'T'
aS'G'
aS'C'
aS'T'
aS'G'
aS'C'
aS'T'
aS'G'
aS'T'
aS'T'
aS'A'
aS'T'
aS'T'
aS'C'
aS'A'
aS'A'
aS'A'
aS'A'
aS'G'
aS'G'
aS'C'
aS'C'
aS'A'
aS'T'
aS'T'
aS'T'
aS'A'
aS'T'
aS'G'
aS'A'
aS'A'
aS'G'
aS'T'
aS'T'
aS'A'
aS'G'
aS'T'
aS'A'
aS'T'
aS'T'
aS'T'
aS'G'
aS'A'
aS'G'
aS'C'
aS'C'
aS'C'
aS'C'
aS'A'
aS'T'
aS'A'
aS'A'
aS'G'
aS'A'
aS'T'
aS'C'
aS'T'
aS'T'
aS'T'
aS'A'
aS'A'
aS'A'
aS'A'
aS'A'
aS'G'
aS'C'
aS'C'
aS'T'
aS'C'
aS'C'
aS'A'
aS'A'
aS'T'
aS'C'
aS'A'
aS'T'
aS'T'
aS'T'
aS'A'
aS'A'
aS'A'
aS'G'
aS'G'
aS'A'
aS'A'
aS'G'
aS'A'
aS'A'
aS'A'
aS'T'
aS'C'
aS'A'
aS'G'
aS'A'
aS'G'
aS'T'
aS'T'
aS'G'
aS'C'
aS'T'
aS'A'
aS'T'
aS'A'
aS'A'
aS'A'
aS'A'
aS'T'
aS'T'
aS'C'
aS'A'
aS'G'
aS'T'
aS'A'
aS'A'
aS'A'
aS'A'
aS'A'
aS'G'
aS'C'
aS'T'
aS'C'
aS'A'
aS'T'
aS'A'
aS'G'
aS'C'
aS'C'
aS'A'
aS'A'
aS'A'
aS'C'
aS'G'
aS'G'
aS'C'
aS'T'
aS'G'
aS'T'
aS'G'
aS'C'
aS'T'
aS'C'
aS'A'
aS'G'
aS'A'
aS'T'
aS'G'
aS'G'
aS'A'
aS'A'
aS'A'
aS'G'
aS'T'
aS'C'
aS'T'
aS'G'
aS'A'
aS'G'
aS'C'
aS'T'
aS'G'
aS'A'
aS'G'
aS'G'
aS'T'
aS'T'
aS'G'
aS'G'
aS'T'
aS'C'
aS'T'
aS'C'
aS'T'
aS'T'
aS'G'
aS'C'
aS'C'
aS'A'
aS'A'
aS'A'
aS'C'
aS'C'
aS'G'
aS'T'
aS'G'
aS'G'
aS'C'
aS'T'
aS'G'
aS'T'
aS'T'
aS'G'
aS'T'
aS'G'
aS'T'
aS'G'
aS'T'
aS'T'
aS'G'
aS'T'
aS'T'
aS'C'
aS'T'
aS'T'
aS'C'
aS'A'
aS'T'
aS'G'
aS'T'
aS'C'
aS'T'
aS'T'
aS'C'
aS'G'
aS'A'
aS'G'
aS'T'
aS'T'
aS'C'
aS'A'
aS'T'
aS'T'
aS'T'
aS'T'
aS'T'
aS'T'
aS'T'
aS'T'
aS'C'
aS'A'
aS'T'
aS'T'
aS'C'
aS'T'
aS'G'
aS'C'
aS'C'
aS'T'
aS'A'
aS'T'
aS'T'
aS'C'
aS'T'
aS'G'
aS'G'
aS'C'
aS'A'
aS'T'
aS'C'
aS'A'
aS'G'
aS'C'
aS'T'
aS'C'
aS'A'
aS'C'
aS'T'
aS'T'
aS'G'
aS'A'
aS'G'
aS'G'
aS'A'
aS'G'
aS'T'
aS'C'
aS'C'
aS'C'
aS'T'
aS'C'
aS'A'
aS'G'
aS'C'
aS'C'
aS'T'
aS'T'
aS'C'
aS'T'
aS'T'
aS'G'
aS'T'
aS'A'
aS'T'
aS'T'
aS'T'
aS'A'
aS'A'
aS'G'
aS'G'
aS'C'
aS'A'
aS'T'
aS'C'
aS'G'
aS'T'
aS'C'
aS'T'
aS'T'
aS'A'
aS'G'
aS'A'
aS'C'
aS'T'
aS'T'
aS'T'
aS'G'
aS'T'
aS'G'
aS'G'
aS'C'
aS'T'
aS'C'
aS'T'
aS'A'
aS'A'
aS'A'
aS'G'
aS'T'
aS'A'
aS'C'
aS'C'
aS'T'
aS'G'
aS'T'
aS'C'
aS'T'
aS'G'
aS'T'
aS'T'
aS'G'
aS'A'
aS'G'
aS'A'
aS'T'
aS'T'
aS'T'
aS'C'
aS'A'
aS'A'
aS'G'
aS'T'
aS'C'
aS'T'
aS'C'
aS'T'
aS'T'
aS'G'
aS'T'
aS'C'
aS'A'
aS'C'
aS'C'
aS'A'
aS'T'
aS'C'
aS'C'
aS'T'
aS'C'
aS'A'
aS'C'
aS'A'
aS'C'
aS'A'
aS'T'
aS'G'
aS'A'
aS'C'
aS'A'
aS'A'
aS'C'
aS'A'
aS'A'
aS'A'
aS'A'
aS'C'
aS'C'
aS'C'
aS'A'
aS'T'
aS'A'
aS'A'
aS'T'
aS'G'
aS'C'
aS'A'
aS'T'
aS'A'
aS'A'
aS'G'
aS'T'
aS'G'
aS'G'
aS'C'
aS'C'
aS'T'
aS'T'
aS'T'
aS'T'
aS'T'
aS'G'
aS'A'
aS'A'
aS'C'
aS'C'
aS'A'
aS'A'
aS'G'
aS'A'
aS'C'
aS'T'
aS'T'
aS'T'
aS'G'
aS'C'
aS'A'
aS'A'
aS'A'
aS'C'
aS'T'
aS'G'
aS'A'
aS'T'
aS'C'
aS'T'
aS'C'
aS'T'
aS'C'
aS'C'
aS'C'
aS'C'
aS'C'
aS'G'
aS'T'
aS'G'
aS'A'
aS'A'
aS'G'
aS'G'
aS'A'
aS'G'
aS'T'
aS'T'
aS'G'
aS'A'
aS'G'
aS'C'
aS'A'
aS'C'
aS'A'
aS'T'
aS'T'
aS'A'
aS'G'
aS'C'
aS'A'
aS'A'
aS'C'
aS'A'
aS'A'
aS'T'
aS'G'
aS'T'
aS'A'
aS'C'
aS'A'
aS'T'
aS'T'
aS'A'
aS'A'
aS'T'
aS'T'
aS'T'
aS'T'
aS'G'
aS'G'
aS'A'
aS'T'
aS'T'
aS'T'
aS'T'
aS'C'
aS'A'
aS'T'
aS'T'
aS'T'
aS'T'
aS'C'
aS'A'
aS'T'
aS'G'
aS'T'
aS'T'
aS'T'
aS'T'
aS'A'
aS'T'
aS'T'
aS'T'
aS'T'
aS'G'
aS'T'
aS'A'
aS'A'
aS'A'
aS'T'
aS'A'
aS'T'
aS'T'
aS'A'
aS'T'
aS'C'
aS'T'
aS'G'
aS'A'
aS'T'
aS'G'
aS'T'
aS'T'
aS'T'
aS'G'
aS'G'
aS'A'
aS'G'
aS'C'
aS'T'
aS'T'
aS'G'
aS'A'
aS'G'
aS'T'
aS'A'
aS'T'
aS'A'
aS'C'
aS'A'
aS'G'
aS'A'
aS'C'
aS'T'
aS'G'
aS'T'
aS'A'
aS'A'
aS'A'
aS'T'
aS'A'
aS'T'
aS'A'
aS'G'
aS'T'
aS'T'
aS'C'
aS'T'
aS'T'
aS'G'
aS'T'
aS'A'
aS'T'
aS'T'
aS'T'
aS'G'
aS'T'
aS'A'
aS'C'
aS'T'
aS'A'
aS'A'
aS'T'
aS'T'
aS'C'
aS'T'
aS'G'
aS'A'
aS'T'
aS'T'
aS'C'
aS'T'
aS'T'
aS'T'
aS'T'
aS'G'
aS'C'
aS'T'
aS'G'
aS'T'
aS'A'
aS'T'
aS'A'
aS'G'
aS'C'
aS'C'
aS'T'
aS'T'
aS'A'
aS'G'
aS'A'
aS'T'
aS'G'
aS'T'
aS'G'
aS'C'
aS'A'
aS'A'
aS'T'
aS'G'
aS'C'
aS'A'
aS'G'
aS'A'
aS'C'
aS'A'
aS'C'
aS'T'
aS'A'
aS'T'
aS'C'
aS'T'
aS'A'
aS'A'
aS'C'
aS'T'
aS'G'
aS'T'
aS'G'
aS'T'
aS'G'
aS'T'
aS'G'
aS'G'
aS'T'
aS'A'
aS'A'
aS'C'
aS'C'
aS'T'
aS'T'
aS'G'
aS'C'
aS'G'
aS'T'
aS'C'
aS'A'
aS'C'
aS'G'
aS'G'
aS'A'
aS'G'
aS'C'
aS'T'
aS'G'
aS'T'
aS'T'
aS'A'
aS'G'
aS'T'
aS'G'
aS'A'
aS'A'
aS'C'
aS'G'
aS'A'
aS'G'
aS'G'
aS'T'
aS'A'
aS'A'
aS'A'
aS'A'
aS'A'
aS'T'
aS'A'
aS'A'
aS'T'
aS'A'
aS'A'
aS'A'
aS'G'
aS'G'
aS'T'
aS'A'
aS'C'
aS'A'
aS'G'
aS'C'
aS'C'
aS'A'
aS'G'
aS'T'
aS'G'
aS'C'
aS'A'
aS'T'
aS'C'
aS'A'
aS'G'
aS'A'
aS'A'
aS'G'
aS'G'
aS'T'
aS'T'
aS'C'
aS'T'
aS'C'
aS'G'
aS'A'
aS'T'
aS'G'
aS'T'
aS'G'
aS'C'
aS'A'
aS'T'
aS'T'
aS'T'
aS'A'
aS'T'
aS'T'
aS'C'
aS'T'
aS'T'
aS'G'
aS'C'
aS'A'
aS'C'
aS'C'
aS'C'
aS'C'
aS'T'
aS'T'
aS'G'
aS'A'
aS'A'
aS'A'
aS'G'
aS'G'
aS'T'
aS'A'
aS'A'
aS'T'
aS'T'
aS'G'
aS'C'
aS'A'
aS'C'
aS'A'
aS'A'
aS'A'
aS'G'
aS'A'
aS'T'
aS'T'
aS'T'
aS'C'
aS'T'
aS'T'
aS'T'
aS'T'
aS'C'
aS'T'
aS'T'
aS'G'
aS'A'
aS'T'
aS'T'
aS'T'
aS'G'
aS'C'
aS'A'
aS'A'
aS'A'
aS'G'
aS'A'
aS'T'
aS'A'
aS'A'
aS'T'
aS'A'
aS'C'
aS'C'
aS'T'
aS'T'
aS'T'
aS'C'
aS'T'
aS'A'
aS'A'
aS'G'
aS'A'
aS'C'
aS'A'
aS'G'
aS'A'
aS'A'
aS'G'
aS'T'
aS'C'
aS'A'
aS'C'
aS'G'
aS'A'
aS'T'
aS'A'
aS'T'
aS'C'
aS'A'
aS'T'
aS'C'
aS'G'
aS'C'
aS'T'
aS'T'
aS'A'
aS'A'
aS'G'
aS'T'
aS'A'
aS'T'
aS'T'
aS'C'
aS'C'
aS'T'
aS'T'
aS'T'
aS'C'
aS'T'
aS'G'
aS'A'
aS'T'
aS'A'
aS'T'
aS'T'
aS'C'
aS'A'
aS'A'
aS'A'
aS'A'
aS'T'
aS'C'
aS'G'
aS'T'
aS'G'
aS'G'
aS'T'
aS'T'
aS'T'
aS'T'
assss.