(dp1
I1
(dp2
S'exon list'
p3
(lp4
I1
aI2
aI3
aI4
aI5
aI6
asS'variants'
p5
(dp6
I1
(dp7
S'position'
p8
I5120
sS'transcript'
p9
S'NM_000530.6'
p10
sS'new base'
p11
S'G'
sS'hgvs'
p12
S'c.C54G'
p13
ssI2
(dp14
g8
I7580
sg9
g10
sg11
S'T'
sg12
S'c.A100T'
p15
ssI3
(dp16
g8
I8129
sg9
g10
sg11
S'T'
sg12
S'c.C313T'
p17
ssI4
(dp18
g8
I8632
sg9
g10
sg11
S'C'
sg12
S'c.G573C'
p19
ssI5
(dp20
g8
I8857
sg9
g10
sg11
S'A'
sg12
S'c.G638A'
p21
ssI6
(dp22
g8
I10172
sg9
g10
sg11
S'G'
sg12
S'c.*1076T>G'
p23
sssS'exons'
p24
(dp25
I1
(dp26
S'start'
p27
I5001
sS'length'
p28
I133
sS'padded length'
p29
I433
sS'end'
p30
I5134
sS'padded seq'
p31
(lp32
S'C'
aS'T'
aS'A'
aS'T'
aS'A'
aS'C'
aS'A'
aS'A'
aS'T'
aS'G'
aS'C'
aS'C'
aS'C'
aS'C'
aS'T'
aS'T'
aS'C'
aS'T'
aS'G'
aS'C'
aS'T'
aS'C'
aS'C'
aS'C'
aS'T'
aS'G'
aS'C'
aS'A'
aS'C'
aS'T'
aS'C'
aS'T'
aS'G'
aS'C'
aS'C'
aS'C'
aS'C'
aS'C'
aS'C'
aS'T'
aS'C'
aS'C'
aS'C'
aS'C'
aS'A'
aS'C'
aS'C'
aS'A'
aS'C'
aS'C'
aS'T'
aS'C'
aS'T'
aS'C'
aS'A'
aS'A'
aS'C'
aS'T'
aS'G'
aS'C'
aS'A'
aS'C'
aS'A'
aS'T'
aS'G'
aS'C'
aS'C'
aS'A'
aS'G'
aS'G'
aS'C'
aS'T'
aS'G'
aS'C'
aS'A'
aS'A'
aS'T'
aS'T'
aS'G'
aS'G'
aS'T'
aS'T'
aS'A'
aS'C'
aS'T'
aS'G'
aS'G'
aS'C'
aS'T'
aS'G'
aS'A'
aS'G'
aS'G'
aS'A'
aS'C'
aS'A'
aS'G'
aS'C'
aS'C'
aS'C'
aS'C'
aS'C'
aS'T'
aS'C'
aS'A'
aS'T'
aS'G'
aS'C'
aS'T'
aS'G'
aS'G'
aS'G'
aS'G'
aS'C'
aS'C'
aS'C'
aS'T'
aS'A'
aS'G'
aS'G'
aS'G'
aS'G'
aS'A'
aS'T'
aS'T'
aS'T'
aS'T'
aS'A'
aS'A'
aS'G'
aS'C'
aS'A'
aS'G'
aS'G'
aS'T'
aS'T'
aS'C'
aS'C'
aS'A'
aS'G'
aS'G'
aS'A'
aS'A'
aS'C'
aS'C'
aS'C'
aS'C'
aS'C'
aS'C'
aS'G'
aS'T'
aS'T'
aS'C'
aS'A'
aS'G'
aS'T'
aS'T'
aS'C'
aS'C'
aS'T'
aS'G'
aS'G'
aS'T'
aS'C'
aS'C'
aS'C'
aS'C'
aS'C'
aS'A'
aS'C'
aS'T'
aS'T'
aS'T'
aS'C'
aS'T'
aS'C'
aS'A'
aS'A'
aS'C'
aS'C'
aS'C'
aS'C'
aS'A'
aS'C'
aS'A'
aS'G'
aS'A'
aS'T'
aS'G'
aS'C'
aS'T'
aS'C'
aS'C'
aS'G'
aS'G'
aS'G'
aS'C'
aS'C'
aS'C'
aS'C'
aS'T'
aS'G'
aS'C'
aS'C'
aS'C'
aS'C'
aS'T'
aS'G'
aS'C'
aS'C'
aS'C'
aS'C'
aS'A'
aS'G'
aS'C'
aS'T'
aS'A'
aS'T'
aS'G'
aS'G'
aS'C'
aS'T'
aS'C'
aS'C'
aS'T'
aS'G'
aS'G'
aS'G'
aS'G'
aS'C'
aS'T'
aS'C'
aS'C'
aS'C'
aS'T'
aS'C'
aS'A'
aS'T'
aS'C'
aS'C'
aS'A'
aS'G'
aS'C'
aS'C'
aS'C'
aS'C'
aS'A'
aS'G'
aS'C'
aS'C'
aS'C'
aS'T'
aS'A'
aS'T'
aS'C'
aS'C'
aS'T'
aS'G'
aS'G'
aS'C'
aS'T'
aS'G'
aS'T'
aS'G'
aS'C'
aS'T'
aS'G'
aS'C'
aS'T'
aS'G'
aS'T'
aS'T'
aS'C'
aS'T'
aS'C'
aS'T'
aS'T'
aS'C'
aS'T'
aS'T'
aS'T'
aS'G'
aS'G'
aS'G'
aS'T'
aS'A'
aS'A'
aS'G'
aS'T'
aS'G'
aS'G'
aS'A'
aS'G'
aS'C'
aS'C'
aS'A'
aS'C'
aS'T'
aS'C'
aS'T'
aS'A'
aS'C'
aS'T'
aS'C'
aS'T'
aS'G'
aS'G'
aS'G'
aS'A'
aS'G'
aS'T'
aS'C'
aS'T'
aS'T'
aS'G'
aS'G'
aS'G'
aS'A'
aS'C'
aS'T'
aS'C'
aS'A'
aS'G'
aS'G'
aS'T'
aS'G'
aS'T'
aS'C'
aS'T'
aS'C'
aS'T'
aS'C'
aS'A'
aS'G'
aS'C'
aS'A'
aS'A'
aS'T'
aS'C'
aS'C'
aS'C'
aS'C'
aS'A'
aS'C'
aS'A'
aS'G'
aS'C'
aS'C'
aS'T'
aS'T'
aS'T'
aS'G'
aS'C'
aS'T'
aS'G'
aS'C'
aS'A'
aS'C'
aS'T'
aS'C'
aS'C'
aS'C'
aS'C'
aS'A'
aS'C'
aS'T'
aS'G'
aS'C'
aS'A'
aS'A'
aS'C'
aS'C'
aS'A'
aS'A'
aS'A'
aS'G'
aS'A'
aS'A'
aS'A'
aS'G'
aS'A'
aS'A'
aS'C'
aS'A'
aS'A'
aS'G'
aS'C'
aS'A'
aS'G'
aS'G'
aS'A'
aS'G'
aS'C'
aS'A'
aS'G'
aS'G'
aS'A'
aS'A'
aS'G'
aS'G'
aS'T'
aS'G'
aS'A'
aS'C'
aS'A'
aS'T'
aS'T'
aS'A'
aS'T'
aS'A'
aS'T'
aS'T'
aS'C'
aS'A'
aS'G'
aS'A'
aS'A'
aS'A'
aS'G'
aS'A'
aS'A'
aS'A'
aS'A'
aS'A'
aS'A'
aS'T'
aS'A'
aS'T'
aS'G'
aS'C'
aS'G'
aS'G'
aS'C'
assI2
(dp33
g27
I7549
sg28
I166
sg29
I466
sg30
I7715
sg31
(lp34
S'C'
aS'C'
aS'C'
aS'A'
aS'G'
aS'A'
aS'G'
aS'A'
aS'C'
aS'T'
aS'T'
aS'G'
aS'G'
aS'G'
aS'G'
aS'C'
aS'T'
aS'C'
aS'A'
aS'G'
aS'A'
aS'A'
aS'T'
aS'T'
aS'T'
aS'G'
aS'T'
aS'T'
aS'G'
aS'T'
aS'T'
aS'T'
aS'C'
aS'T'
aS'T'
aS'T'
aS'T'
aS'C'
aS'C'
aS'A'
aS'A'
aS'A'
aS'T'
aS'T'
aS'G'
aS'G'
aS'C'
aS'C'
aS'T'
aS'C'
aS'T'
aS'G'
aS'A'
aS'C'
aS'C'
aS'T'
aS'G'
aS'T'
aS'G'
aS'A'
aS'C'
aS'T'
aS'C'
aS'A'
aS'G'
aS'C'
aS'A'
aS'C'
aS'T'
aS'T'
aS'G'
aS'A'
aS'T'
aS'T'
aS'T'
aS'C'
aS'C'
aS'T'
aS'A'
aS'C'
aS'T'
aS'G'
aS'A'
aS'T'
aS'C'
aS'T'
aS'C'
aS'A'
aS'C'
aS'T'
aS'T'
aS'C'
aS'C'
aS'T'
aS'C'
aS'T'
aS'G'
aS'T'
aS'A'
aS'T'
aS'C'
aS'C'
aS'C'
aS'T'
aS'T'
aS'A'
aS'C'
aS'T'
aS'G'
aS'G'
aS'G'
aS'C'
aS'C'
aS'C'
aS'A'
aS'T'
aS'A'
aS'G'
aS'G'
aS'T'
aS'G'
aS'C'
aS'A'
aS'T'
aS'C'
aS'T'
aS'G'
aS'A'
aS'T'
aS'T'
aS'C'
aS'C'
aS'C'
aS'C'
aS'A'
aS'C'
aS'T'
aS'T'
aS'T'
aS'G'
aS'T'
aS'G'
aS'C'
aS'T'
aS'T'
aS'G'
aS'C'
aS'A'
aS'G'
aS'T'
aS'G'
aS'C'
aS'T'
aS'G'
aS'T'
aS'C'
aS'C'
aS'C'
aS'C'
aS'G'
aS'G'
aS'C'
aS'C'
aS'C'
aS'A'
aS'G'
aS'G'
aS'C'
aS'C'
aS'A'
aS'T'
aS'C'
aS'G'
aS'T'
aS'G'
aS'G'
aS'T'
aS'T'
aS'T'
aS'A'
aS'C'
aS'T'
aS'C'
aS'C'
aS'G'
aS'A'
aS'C'
aS'A'
aS'G'
aS'G'
aS'G'
aS'A'
aS'G'
aS'G'
aS'T'
aS'C'
aS'C'
aS'A'
aS'T'
aS'G'
aS'G'
aS'T'
aS'G'
aS'C'
aS'T'
aS'G'
aS'T'
aS'G'
aS'G'
aS'G'
aS'C'
aS'T'
aS'C'
aS'C'
aS'C'
aS'G'
aS'G'
aS'G'
aS'T'
aS'G'
aS'A'
aS'C'
aS'C'
aS'C'
aS'T'
aS'G'
aS'C'
aS'A'
aS'C'
aS'T'
aS'G'
aS'C'
aS'T'
aS'C'
aS'C'
aS'T'
aS'T'
aS'C'
aS'T'
aS'G'
aS'G'
aS'T'
aS'C'
aS'C'
aS'A'
aS'G'
aS'T'
aS'G'
aS'A'
aS'G'
aS'T'
aS'G'
aS'G'
aS'G'
aS'T'
aS'C'
aS'T'
aS'C'
aS'A'
aS'G'
aS'A'
aS'T'
aS'G'
aS'A'
aS'C'
aS'A'
aS'T'
aS'C'
aS'T'
aS'C'
aS'C'
aS'T'
aS'T'
aS'C'
aS'A'
aS'C'
aS'C'
aS'T'
aS'G'
aS'G'
aS'C'
aS'G'
aS'C'
aS'T'
aS'A'
aS'C'
aS'C'
aS'A'
aS'G'
aS'C'
aS'C'
aS'C'
aS'G'
aS'A'
aS'A'
aS'G'
aS'G'
aS'G'
aS'G'
aS'G'
aS'C'
aS'A'
aS'G'
aS'A'
aS'G'
aS'A'
aS'T'
aS'G'
aS'C'
aS'C'
aS'A'
aS'T'
aS'T'
aS'T'
aS'C'
aS'G'
aS'G'
aS'T'
aS'G'
aS'A'
aS'G'
aS'T'
aS'G'
aS'C'
aS'C'
aS'T'
aS'G'
aS'G'
aS'G'
aS'G'
aS'G'
aS'A'
aS'A'
aS'T'
aS'C'
aS'C'
aS'T'
aS'G'
aS'G'
aS'G'
aS'G'
aS'T'
aS'T'
aS'G'
aS'G'
aS'A'
aS'T'
aS'A'
aS'A'
aS'C'
aS'A'
aS'G'
aS'A'
aS'A'
aS'A'
aS'G'
aS'T'
aS'G'
aS'C'
aS'T'
aS'T'
aS'C'
aS'A'
aS'A'
aS'A'
aS'G'
aS'A'
aS'A'
aS'C'
aS'A'
aS'A'
aS'C'
aS'A'
aS'A'
aS'A'
aS'A'
aS'A'
aS'A'
aS'G'
aS'A'
aS'T'
aS'A'
aS'A'
aS'C'
aS'T'
aS'T'
aS'G'
aS'G'
aS'G'
aS'C'
aS'T'
aS'A'
aS'A'
aS'G'
aS'G'
aS'A'
aS'G'
aS'G'
aS'G'
aS'G'
aS'G'
aS'A'
aS'A'
aS'A'
aS'T'
aS'C'
aS'C'
aS'T'
aS'T'
aS'T'
aS'T'
aS'T'
aS'G'
aS'A'
aS'G'
aS'C'
aS'C'
aS'A'
aS'T'
aS'A'
aS'A'
aS'C'
aS'C'
aS'C'
aS'C'
aS'A'
aS'A'
aS'C'
aS'T'
aS'T'
aS'T'
aS'G'
aS'G'
aS'C'
aS'A'
aS'A'
aS'G'
aS'G'
aS'T'
aS'A'
aS'A'
aS'A'
aS'T'
aS'G'
aS'A'
aS'C'
aS'A'
aS'G'
aS'T'
aS'C'
aS'T'
aS'T'
aS'T'
aS'G'
aS'T'
aS'C'
aS'A'
aS'C'
aS'C'
aS'C'
aS'T'
aS'G'
aS'A'
aS'C'
aS'T'
aS'A'
assI3
(dp35
g27
I8052
sg28
I213
sg29
I513
sg30
I8265
sg31
(lp36
S'C'
aS'A'
aS'A'
aS'G'
aS'A'
aS'T'
aS'C'
aS'C'
aS'C'
aS'T'
aS'T'
aS'A'
aS'C'
aS'C'
aS'C'
aS'T'
aS'G'
aS'A'
aS'G'
aS'G'
aS'C'
aS'T'
aS'G'
aS'G'
aS'A'
aS'G'
aS'C'
aS'G'
aS'A'
aS'A'
aS'G'
aS'C'
aS'T'
aS'T'
aS'T'
aS'T'
aS'T'
aS'T'
aS'T'
aS'T'
aS'T'
aS'T'
aS'T'
aS'T'
aS'T'
aS'T'
aS'T'
aS'T'
aS'T'
aS'T'
aS'T'
aS'T'
aS'T'
aS'T'
aS'T'
aS'T'
aS'G'
aS'C'
aS'T'
aS'T'
aS'T'
aS'T'
aS'T'
aS'T'
aS'C'
aS'T'
aS'T'
aS'T'
aS'C'
aS'T'
aS'G'
aS'T'
aS'A'
aS'A'
aS'C'
aS'A'
aS'A'
aS'A'
aS'T'
aS'T'
aS'A'
aS'T'
aS'G'
aS'G'
aS'A'
aS'G'
aS'C'
aS'T'
aS'A'
aS'A'
aS'G'
aS'C'
aS'T'
aS'T'
aS'T'
aS'G'
aS'A'
aS'C'
aS'A'
aS'G'
aS'C'
aS'T'
aS'G'
aS'T'
aS'G'
aS'T'
aS'T'
aS'C'
aS'T'
aS'C'
aS'A'
aS'T'
aS'T'
aS'A'
aS'G'
aS'G'
aS'G'
aS'T'
aS'C'
aS'C'
aS'T'
aS'C'
aS'T'
aS'C'
aS'A'
aS'C'
aS'A'
aS'T'
aS'G'
aS'C'
aS'T'
aS'T'
aS'C'
aS'C'
aS'C'
aS'C'
aS'T'
aS'C'
aS'A'
aS'T'
aS'T'
aS'C'
aS'C'
aS'T'
aS'C'
aS'A'
aS'T'
aS'A'
aS'G'
aS'A'
aS'T'
aS'C'
aS'T'
aS'T'
aS'C'
aS'C'
aS'A'
aS'C'
aS'T'
aS'A'
aS'T'
aS'G'
aS'C'
aS'C'
aS'A'
aS'A'
aS'G'
aS'G'
aS'G'
aS'A'
aS'C'
aS'A'
aS'A'
aS'C'
aS'C'
aS'C'
aS'T'
aS'A'
aS'C'
aS'A'
aS'T'
aS'T'
aS'G'
aS'A'
aS'C'
aS'G'
aS'A'
aS'G'
aS'G'
aS'T'
aS'G'
aS'G'
aS'G'
aS'G'
aS'A'
aS'C'
aS'C'
aS'T'
aS'T'
aS'C'
aS'A'
aS'A'
aS'A'
aS'G'
aS'A'
aS'G'
aS'C'
aS'G'
aS'C'
aS'A'
aS'T'
aS'C'
aS'C'
aS'A'
aS'G'
aS'T'
aS'G'
aS'G'
aS'G'
aS'T'
aS'A'
aS'G'
aS'G'
aS'G'
aS'G'
aS'A'
aS'C'
aS'T'
aS'C'
aS'T'
aS'C'
aS'G'
aS'C'
aS'T'
aS'G'
aS'G'
aS'A'
aS'A'
aS'G'
aS'G'
aS'A'
aS'T'
aS'G'
aS'G'
aS'C'
aS'T'
aS'C'
aS'C'
aS'A'
aS'T'
aS'T'
aS'G'
aS'T'
aS'C'
aS'A'
aS'T'
aS'A'
aS'C'
aS'A'
aS'C'
aS'A'
aS'A'
aS'C'
aS'C'
aS'T'
aS'A'
aS'G'
aS'A'
aS'C'
aS'T'
aS'A'
aS'C'
aS'A'
aS'G'
aS'T'
aS'G'
aS'A'
aS'C'
aS'A'
aS'A'
aS'T'
aS'G'
aS'G'
aS'C'
aS'A'
aS'C'
aS'G'
aS'T'
aS'T'
aS'C'
aS'A'
aS'C'
aS'T'
aS'T'
aS'G'
aS'T'
aS'G'
aS'A'
aS'C'
aS'G'
aS'T'
aS'C'
aS'A'
aS'A'
aS'A'
aS'A'
aS'A'
aS'C'
aS'C'
aS'C'
aS'T'
aS'C'
aS'C'
aS'A'
aS'G'
aS'A'
aS'C'
aS'A'
aS'T'
aS'A'
aS'G'
aS'T'
aS'G'
aS'G'
aS'G'
aS'C'
aS'A'
aS'A'
aS'G'
aS'A'
aS'C'
aS'C'
aS'T'
aS'C'
aS'T'
aS'C'
aS'A'
aS'G'
aS'G'
aS'T'
aS'C'
aS'A'
aS'C'
aS'G'
aS'C'
aS'T'
aS'G'
aS'T'
aS'A'
aS'T'
aS'G'
aS'T'
aS'C'
aS'T'
aS'T'
aS'T'
aS'G'
aS'A'
aS'A'
aS'A'
aS'A'
aS'A'
aS'G'
aS'G'
aS'T'
aS'G'
aS'T'
aS'G'
aS'A'
aS'G'
aS'A'
aS'A'
aS'G'
aS'G'
aS'G'
aS'A'
aS'T'
aS'G'
aS'G'
aS'G'
aS'G'
aS'A'
aS'C'
aS'A'
aS'A'
aS'G'
aS'G'
aS'G'
aS'T'
aS'A'
aS'T'
aS'G'
aS'G'
aS'G'
aS'A'
aS'A'
aS'G'
aS'C'
aS'A'
aS'G'
aS'T'
aS'T'
aS'T'
aS'G'
aS'G'
aS'G'
aS'A'
aS'G'
aS'G'
aS'G'
aS'G'
aS'A'
aS'T'
aS'C'
aS'A'
aS'G'
aS'G'
aS'G'
aS'A'
aS'G'
aS'G'
aS'A'
aS'C'
aS'T'
aS'G'
aS'A'
aS'T'
aS'A'
aS'G'
aS'G'
aS'T'
aS'T'
aS'G'
aS'G'
aS'G'
aS'G'
aS'G'
aS'A'
aS'A'
aS'G'
aS'A'
aS'G'
aS'G'
aS'C'
aS'A'
aS'A'
aS'A'
aS'A'
aS'A'
aS'G'
aS'C'
aS'C'
aS'C'
aS'G'
aS'G'
aS'C'
aS'C'
aS'T'
aS'A'
aS'A'
aS'G'
aS'G'
aS'A'
aS'C'
aS'C'
aS'T'
aS'T'
aS'T'
aS'A'
aS'T'
aS'T'
aS'C'
aS'A'
aS'G'
aS'G'
aS'C'
aS'T'
aS'C'
aS'T'
aS'G'
aS'G'
aS'G'
aS'A'
aS'G'
aS'C'
aS'G'
aS'T'
aS'G'
aS'G'
aS'G'
aS'C'
aS'A'
aS'G'
aS'A'
aS'A'
aS'G'
aS'G'
aS'C'
aS'A'
aS'G'
aS'T'
aS'T'
aS'T'
aS'T'
aS'A'
aS'G'
aS'C'
aS'T'
aS'G'
aS'G'
aS'G'
aS'A'
aS'G'
assI4
(dp37
g27
I8509
sg28
I135
sg29
I435
sg30
I8644
sg31
(lp38
S'T'
aS'A'
aS'A'
aS'G'
aS'G'
aS'A'
aS'C'
aS'C'
aS'T'
aS'T'
aS'T'
aS'A'
aS'T'
aS'T'
aS'C'
aS'A'
aS'G'
aS'G'
aS'C'
aS'T'
aS'C'
aS'T'
aS'G'
aS'G'
aS'G'
aS'A'
aS'G'
aS'C'
aS'G'
aS'T'
aS'G'
aS'G'
aS'G'
aS'C'
aS'A'
aS'G'
aS'A'
aS'A'
aS'G'
aS'G'
aS'C'
aS'A'
aS'G'
aS'T'
aS'T'
aS'T'
aS'T'
aS'A'
aS'G'
aS'C'
aS'T'
aS'G'
aS'G'
aS'G'
aS'A'
aS'G'
aS'T'
aS'C'
aS'C'
aS'T'
aS'A'
aS'C'
aS'A'
aS'T'
aS'C'
aS'C'
aS'T'
aS'C'
aS'A'
aS'A'
aS'T'
aS'G'
aS'C'
aS'A'
aS'G'
aS'G'
aS'G'
aS'C'
aS'A'
aS'T'
aS'A'
aS'C'
aS'A'
aS'C'
aS'T'
aS'C'
aS'G'
aS'G'
aS'A'
aS'C'
aS'T'
aS'A'
aS'G'
aS'G'
aS'A'
aS'A'
aS'C'
aS'C'
aS'A'
aS'C'
aS'A'
aS'G'
aS'A'
aS'T'
aS'A'
aS'C'
aS'A'
aS'G'
aS'G'
aS'G'
aS'C'
aS'C'
aS'C'
aS'T'
aS'G'
aS'C'
aS'T'
aS'C'
aS'A'
aS'T'
aS'T'
aS'C'
aS'T'
aS'C'
aS'C'
aS'C'
aS'A'
aS'C'
aS'T'
aS'T'
aS'C'
aS'T'
aS'T'
aS'T'
aS'T'
aS'C'
aS'C'
aS'C'
aS'A'
aS'C'
aS'C'
aS'C'
aS'C'
aS'T'
aS'C'
aS'C'
aS'T'
aS'A'
aS'G'
aS'T'
aS'G'
aS'C'
aS'C'
aS'A'
aS'A'
aS'C'
aS'T'
aS'A'
aS'G'
aS'G'
aS'T'
aS'A'
aS'C'
aS'G'
aS'G'
aS'G'
aS'G'
aS'T'
aS'C'
aS'G'
aS'T'
aS'T'
aS'C'
aS'T'
aS'G'
aS'G'
aS'G'
aS'A'
aS'G'
aS'C'
aS'T'
aS'G'
aS'T'
aS'G'
aS'A'
aS'T'
aS'C'
aS'G'
aS'G'
aS'G'
aS'G'
aS'G'
aS'T'
aS'G'
aS'T'
aS'C'
aS'C'
aS'T'
aS'C'
aS'G'
aS'G'
aS'G'
aS'G'
aS'T'
aS'G'
aS'G'
aS'T'
aS'G'
aS'C'
aS'T'
aS'G'
aS'T'
aS'T'
aS'G'
aS'C'
aS'T'
aS'G'
aS'C'
aS'T'
aS'G'
aS'C'
aS'T'
aS'G'
aS'C'
aS'T'
aS'T'
aS'T'
aS'T'
aS'C'
aS'T'
aS'A'
aS'C'
aS'G'
aS'T'
aS'G'
aS'G'
aS'T'
aS'T'
aS'C'
aS'G'
aS'G'
aS'T'
aS'A'
aS'C'
aS'T'
aS'G'
aS'C'
aS'T'
aS'G'
aS'G'
aS'C'
aS'T'
aS'A'
aS'C'
aS'G'
aS'C'
aS'A'
aS'G'
aS'G'
aS'C'
aS'A'
aS'G'
aS'G'
aS'C'
aS'G'
aS'G'
aS'C'
aS'C'
aS'C'
aS'T'
aS'G'
aS'C'
aS'A'
aS'C'
aS'A'
aS'G'
aS'G'
aS'A'
aS'G'
aS'G'
aS'C'
aS'T'
aS'C'
aS'A'
aS'G'
aS'G'
aS'T'
aS'A'
aS'A'
aS'G'
aS'G'
aS'G'
aS'G'
aS'C'
aS'G'
aS'G'
aS'A'
aS'G'
aS'C'
aS'C'
aS'T'
aS'A'
aS'G'
aS'C'
aS'T'
aS'C'
aS'C'
aS'C'
aS'C'
aS'T'
aS'C'
aS'C'
aS'C'
aS'C'
aS'C'
aS'T'
aS'C'
aS'T'
aS'C'
aS'C'
aS'C'
aS'C'
aS'A'
aS'C'
aS'T'
aS'A'
aS'T'
aS'C'
aS'C'
aS'C'
aS'C'
aS'C'
aS'A'
aS'T'
aS'C'
aS'T'
aS'G'
aS'G'
aS'G'
aS'C'
aS'G'
aS'G'
aS'A'
aS'G'
aS'A'
aS'C'
aS'T'
aS'A'
aS'C'
aS'T'
aS'C'
aS'C'
aS'A'
aS'G'
aS'T'
aS'G'
aS'G'
aS'G'
aS'T'
aS'G'
aS'G'
aS'G'
aS'A'
aS'G'
aS'G'
aS'G'
aS'C'
aS'C'
aS'A'
aS'A'
aS'G'
aS'G'
aS'G'
aS'G'
aS'A'
aS'A'
aS'G'
aS'A'
aS'G'
aS'G'
aS'A'
aS'A'
aS'G'
aS'C'
aS'T'
aS'G'
aS'T'
aS'G'
aS'T'
aS'C'
aS'C'
aS'G'
aS'C'
aS'G'
aS'G'
aS'T'
aS'G'
aS'C'
aS'A'
aS'A'
aS'G'
aS'G'
aS'G'
aS'G'
aS'T'
aS'T'
aS'C'
aS'C'
aS'G'
aS'G'
aS'C'
aS'G'
aS'A'
aS'G'
aS'G'
aS'C'
aS'C'
aS'A'
aS'A'
aS'A'
aS'C'
aS'G'
aS'T'
aS'A'
aS'C'
aS'A'
aS'G'
aS'C'
aS'A'
aS'G'
aS'T'
aS'C'
aS'T'
aS'C'
aS'T'
assI5
(dp39
g27
I8805
sg28
I60
sg29
I360
sg30
I8865
sg31
(lp40
S'A'
aS'G'
aS'C'
aS'C'
aS'T'
aS'A'
aS'G'
aS'C'
aS'T'
aS'C'
aS'C'
aS'C'
aS'C'
aS'T'
aS'C'
aS'C'
aS'C'
aS'C'
aS'C'
aS'T'
aS'C'
aS'T'
aS'C'
aS'C'
aS'C'
aS'C'
aS'A'
aS'C'
aS'T'
aS'A'
aS'T'
aS'C'
aS'C'
aS'C'
aS'C'
aS'C'
aS'A'
aS'T'
aS'C'
aS'T'
aS'G'
aS'G'
aS'G'
aS'C'
aS'G'
aS'G'
aS'A'
aS'G'
aS'A'
aS'C'
aS'T'
aS'A'
aS'C'
aS'T'
aS'C'
aS'C'
aS'A'
aS'G'
aS'T'
aS'G'
aS'G'
aS'G'
aS'T'
aS'G'
aS'G'
aS'G'
aS'A'
aS'G'
aS'G'
aS'G'
aS'C'
aS'C'
aS'A'
aS'A'
aS'G'
aS'G'
aS'G'
aS'G'
aS'A'
aS'A'
aS'G'
aS'A'
aS'G'
aS'G'
aS'A'
aS'A'
aS'G'
aS'C'
aS'T'
aS'G'
aS'T'
aS'G'
aS'T'
aS'C'
aS'C'
aS'G'
aS'C'
aS'G'
aS'G'
aS'T'
aS'G'
aS'C'
aS'A'
aS'A'
aS'G'
aS'G'
aS'G'
aS'G'
aS'T'
aS'T'
aS'C'
aS'C'
aS'G'
aS'G'
aS'C'
aS'G'
aS'A'
aS'G'
aS'G'
aS'C'
aS'C'
aS'A'
aS'A'
aS'A'
aS'C'
aS'G'
aS'T'
aS'A'
aS'C'
aS'A'
aS'G'
aS'C'
aS'A'
aS'G'
aS'T'
aS'C'
aS'T'
aS'C'
aS'T'
aS'C'
aS'T'
aS'T'
aS'C'
aS'T'
aS'T'
aS'G'
aS'C'
aS'A'
aS'G'
aS'T'
aS'G'
aS'C'
aS'T'
aS'A'
aS'T'
aS'G'
aS'G'
aS'A'
aS'G'
aS'A'
aS'A'
aS'G'
aS'G'
aS'G'
aS'G'
aS'A'
aS'A'
aS'A'
aS'T'
aS'T'
aS'G'
aS'C'
aS'A'
aS'C'
aS'A'
aS'A'
aS'G'
aS'C'
aS'C'
aS'A'
aS'G'
aS'G'
aS'A'
aS'A'
aS'A'
aS'G'
aS'G'
aS'A'
aS'C'
aS'G'
aS'C'
aS'G'
aS'T'
aS'C'
aS'G'
aS'A'
aS'A'
aS'G'
aS'C'
aS'G'
aS'C'
aS'G'
aS'A'
aS'G'
aS'C'
aS'G'
aS'G'
aS'C'
aS'A'
aS'G'
aS'G'
aS'T'
aS'T'
aS'A'
aS'G'
aS'C'
aS'G'
aS'G'
aS'G'
aS'A'
aS'C'
aS'T'
aS'T'
aS'G'
aS'G'
aS'G'
aS'G'
aS'C'
aS'C'
aS'T'
aS'A'
aS'G'
aS'A'
aS'C'
aS'A'
aS'A'
aS'G'
aS'A'
aS'T'
aS'G'
aS'G'
aS'G'
aS'A'
aS'A'
aS'G'
aS'G'
aS'A'
aS'G'
aS'A'
aS'A'
aS'C'
aS'C'
aS'C'
aS'T'
aS'G'
aS'G'
aS'G'
aS'A'
aS'G'
aS'C'
aS'C'
aS'G'
aS'C'
aS'C'
aS'G'
aS'G'
aS'G'
aS'C'
aS'A'
aS'G'
aS'C'
aS'A'
aS'G'
aS'T'
aS'G'
aS'A'
aS'G'
aS'G'
aS'G'
aS'G'
aS'T'
aS'G'
aS'G'
aS'G'
aS'A'
aS'T'
aS'G'
aS'G'
aS'G'
aS'A'
aS'A'
aS'C'
aS'A'
aS'G'
aS'T'
aS'C'
aS'A'
aS'A'
aS'G'
aS'C'
aS'C'
aS'C'
aS'C'
aS'A'
aS'G'
aS'T'
aS'C'
aS'G'
aS'C'
aS'T'
aS'C'
aS'G'
aS'G'
aS'T'
aS'G'
aS'A'
aS'C'
aS'T'
aS'G'
aS'A'
aS'T'
aS'G'
aS'T'
aS'G'
aS'T'
aS'G'
aS'C'
aS'G'
aS'C'
aS'C'
aS'C'
aS'C'
aS'T'
aS'C'
aS'C'
aS'C'
aS'C'
aS'C'
aS'A'
aS'G'
aS'A'
aS'C'
aS'G'
aS'C'
aS'C'
aS'A'
aS'G'
aS'T'
aS'G'
aS'C'
aS'T'
aS'G'
aS'T'
aS'A'
aS'T'
aS'G'
aS'C'
aS'A'
aS'A'
aS'T'
assI6
(dp41
g27
I8996
sg28
I1242
sg29
I1542
sg30
I10238
sg31
(lp42
S'G'
aS'T'
aS'C'
aS'G'
aS'A'
aS'A'
aS'G'
aS'C'
aS'G'
aS'C'
aS'G'
aS'A'
aS'G'
aS'C'
aS'G'
aS'G'
aS'C'
aS'A'
aS'G'
aS'G'
aS'T'
aS'T'
aS'A'
aS'G'
aS'C'
aS'G'
aS'G'
aS'G'
aS'A'
aS'C'
aS'T'
aS'T'
aS'G'
aS'G'
aS'G'
aS'G'
aS'C'
aS'C'
aS'T'
aS'A'
aS'G'
aS'A'
aS'C'
aS'A'
aS'A'
aS'G'
aS'A'
aS'T'
aS'G'
aS'G'
aS'G'
aS'A'
aS'A'
aS'G'
aS'G'
aS'A'
aS'G'
aS'A'
aS'A'
aS'C'
aS'C'
aS'C'
aS'T'
aS'G'
aS'G'
aS'G'
aS'A'
aS'G'
aS'C'
aS'C'
aS'G'
aS'C'
aS'C'
aS'G'
aS'G'
aS'G'
aS'C'
aS'A'
aS'G'
aS'C'
aS'A'
aS'G'
aS'T'
aS'G'
aS'A'
aS'G'
aS'G'
aS'G'
aS'G'
aS'T'
aS'G'
aS'G'
aS'G'
aS'A'
aS'T'
aS'G'
aS'G'
aS'G'
aS'A'
aS'A'
aS'C'
aS'A'
aS'G'
aS'T'
aS'C'
aS'A'
aS'A'
aS'G'
aS'C'
aS'C'
aS'C'
aS'C'
aS'A'
aS'G'
aS'T'
aS'C'
aS'G'
aS'C'
aS'T'
aS'C'
aS'G'
aS'G'
aS'T'
aS'G'
aS'A'
aS'C'
aS'T'
aS'G'
aS'A'
aS'T'
aS'G'
aS'T'
aS'G'
aS'T'
aS'G'
aS'C'
aS'G'
aS'C'
aS'C'
aS'C'
aS'C'
aS'T'
aS'C'
aS'C'
aS'C'
aS'C'
aS'C'
aS'A'
aS'G'
aS'A'
aS'C'
aS'G'
aS'C'
aS'C'
aS'A'
aS'G'
aS'T'
aS'G'
aS'C'
aS'T'
aS'G'
aS'T'
aS'A'
aS'T'
aS'G'
aS'C'
aS'A'
aS'A'
aS'T'
aS'G'
aS'C'
aS'T'
aS'G'
aS'G'
aS'A'
aS'C'
aS'C'
aS'A'
aS'C'
aS'A'
aS'G'
aS'C'
aS'A'
aS'G'
aS'A'
aS'A'
aS'G'
aS'C'
aS'A'
aS'C'
aS'C'
aS'A'
aS'A'
aS'A'
aS'G'
aS'C'
aS'T'
aS'G'
aS'T'
aS'C'
aS'A'
aS'G'
aS'T'
aS'G'
aS'A'
aS'G'
aS'A'
aS'A'
aS'G'
aS'A'
aS'A'
aS'G'
aS'G'
aS'C'
aS'C'
aS'A'
aS'A'
aS'G'
aS'G'
aS'G'
aS'G'
aS'C'
aS'T'
aS'G'
aS'G'
aS'G'
aS'G'
aS'G'
aS'A'
aS'G'
aS'T'
aS'C'
aS'T'
aS'C'
aS'G'
aS'C'
aS'A'
aS'A'
aS'G'
aS'G'
aS'A'
aS'T'
aS'A'
aS'A'
aS'G'
aS'A'
aS'A'
aS'A'
aS'T'
aS'A'
aS'G'
aS'C'
aS'G'
aS'G'
aS'T'
aS'T'
aS'A'
aS'G'
aS'C'
aS'G'
aS'G'
aS'G'
aS'C'
aS'C'
aS'G'
aS'G'
aS'G'
aS'C'
aS'G'
aS'G'
aS'G'
aS'G'
aS'G'
aS'A'
aS'T'
aS'C'
aS'G'
aS'G'
aS'G'
aS'G'
aS'G'
aS'T'
aS'T'
aS'A'
aS'G'
aS'G'
aS'G'
aS'G'
aS'T'
aS'G'
aS'G'
aS'A'
aS'G'
aS'T'
aS'C'
aS'C'
aS'G'
aS'C'
aS'C'
aS'A'
aS'A'
aS'A'
aS'G'
aS'G'
aS'C'
aS'C'
aS'C'
aS'A'
aS'A'
aS'A'
aS'G'
aS'G'
aS'T'
aS'G'
aS'A'
aS'T'
aS'G'
aS'G'
aS'T'
aS'C'
aS'A'
aS'T'
aS'C'
aS'G'
aS'A'
aS'G'
aS'A'
aS'T'
aS'G'
aS'G'
aS'A'
aS'G'
aS'C'
aS'T'
aS'A'
aS'C'
aS'G'
aS'A'
aS'A'
aS'A'
aS'G'
aS'G'
aS'A'
aS'T'
aS'G'
aS'A'
aS'G'
aS'C'
aS'A'
aS'G'
aS'A'
aS'G'
aS'C'
aS'C'
aS'C'
aS'G'
aS'G'
aS'A'
aS'G'
aS'C'
aS'T'
aS'C'
aS'C'
aS'G'
aS'G'
aS'C'
aS'C'
aS'T'
aS'G'
aS'C'
aS'T'
aS'G'
aS'T'
aS'C'
aS'A'
aS'A'
aS'G'
aS'T'
aS'C'
aS'C'
aS'C'
aS'C'
aS'C'
aS'A'
aS'G'
aS'C'
aS'A'
aS'G'
aS'A'
aS'A'
aS'C'
aS'C'
aS'A'
aS'G'
aS'C'
aS'C'
aS'T'
aS'C'
aS'A'
aS'A'
aS'A'
aS'A'
aS'A'
aS'C'
aS'G'
aS'C'
aS'C'
aS'C'
aS'T'
aS'C'
aS'A'
aS'A'
aS'G'
aS'A'
aS'A'
aS'C'
aS'A'
aS'T'
aS'G'
aS'A'
aS'T'
aS'G'
aS'G'
aS'G'
aS'C'
aS'C'
aS'T'
aS'G'
aS'A'
aS'A'
aS'C'
aS'T'
aS'C'
aS'G'
aS'G'
aS'A'
aS'C'
aS'A'
aS'A'
aS'G'
aS'T'
aS'G'
aS'A'
aS'T'
aS'C'
aS'G'
aS'C'
aS'C'
aS'A'
aS'C'
aS'C'
aS'C'
aS'C'
aS'C'
aS'C'
aS'C'
aS'A'
aS'C'
aS'C'
aS'C'
aS'C'
aS'A'
aS'G'
aS'G'
aS'C'
aS'C'
aS'C'
aS'T'
aS'G'
aS'C'
aS'C'
aS'A'
aS'G'
aS'A'
aS'G'
aS'C'
aS'A'
aS'G'
aS'G'
aS'G'
aS'G'
aS'G'
aS'A'
aS'C'
aS'C'
aS'T'
aS'A'
aS'G'
aS'G'
aS'C'
aS'T'
aS'C'
aS'C'
aS'T'
aS'C'
aS'T'
aS'T'
aS'A'
aS'C'
aS'C'
aS'C'
aS'C'
aS'C'
aS'G'
aS'T'
aS'C'
aS'T'
aS'A'
aS'G'
aS'G'
aS'T'
aS'G'
aS'C'
aS'T'
aS'T'
aS'T'
aS'C'
aS'C'
aS'C'
aS'T'
aS'C'
aS'T'
aS'T'
aS'T'
aS'G'
aS'C'
aS'T'
aS'C'
aS'C'
aS'C'
aS'C'
aS'C'
aS'G'
aS'C'
aS'C'
aS'C'
aS'T'
aS'G'
aS'C'
aS'C'
aS'C'
aS'T'
aS'G'
aS'C'
aS'C'
aS'C'
aS'T'
aS'C'
aS'A'
aS'C'
aS'C'
aS'T'
aS'C'
aS'C'
aS'C'
aS'T'
aS'T'
aS'T'
aS'G'
aS'A'
aS'G'
aS'A'
aS'T'
aS'G'
aS'T'
aS'A'
aS'A'
aS'G'
aS'T'
aS'T'
aS'T'
aS'C'
aS'A'
aS'T'
aS'T'
aS'C'
aS'C'
aS'A'
aS'G'
aS'A'
aS'A'
aS'T'
aS'T'
aS'C'
aS'A'
aS'T'
aS'T'
aS'C'
aS'C'
aS'C'
aS'C'
aS'A'
aS'G'
aS'G'
aS'C'
aS'A'
aS'A'
aS'T'
aS'T'
aS'G'
aS'T'
aS'A'
aS'T'
aS'T'
aS'C'
aS'T'
aS'C'
aS'C'
aS'C'
aS'C'
aS'C'
aS'A'
aS'C'
aS'C'
aS'T'
aS'T'
aS'C'
aS'A'
aS'C'
aS'C'
aS'C'
aS'C'
aS'T'
aS'G'
aS'G'
aS'C'
aS'T'
aS'T'
aS'T'
aS'C'
aS'T'
aS'G'
aS'G'
aS'G'
aS'A'
aS'G'
aS'C'
aS'C'
aS'C'
aS'A'
aS'G'
aS'G'
aS'A'
aS'G'
aS'C'
aS'T'
aS'A'
aS'A'
aS'T'
aS'C'
aS'C'
aS'T'
aS'A'
aS'C'
aS'C'
aS'C'
aS'C'
aS'T'
aS'C'
aS'A'
aS'C'
aS'C'
aS'T'
aS'G'
aS'C'
aS'C'
aS'C'
aS'C'
aS'G'
aS'G'
aS'G'
aS'G'
aS'G'
aS'C'
aS'T'
aS'G'
aS'T'
aS'G'
aS'T'
aS'G'
aS'T'
aS'T'
aS'T'
aS'G'
aS'G'
aS'T'
aS'G'
aS'C'
aS'C'
aS'T'
aS'G'
aS'T'
aS'C'
aS'C'
aS'A'
aS'C'
aS'C'
aS'T'
aS'G'
aS'A'
aS'G'
aS'C'
aS'A'
aS'C'
aS'T'
aS'G'
aS'A'
aS'G'
aS'A'
aS'A'
aS'G'
aS'A'
aS'A'
aS'A'
aS'G'
aS'G'
aS'G'
aS'A'
aS'C'
aS'T'
aS'T'
aS'T'
aS'G'
aS'A'
aS'T'
aS'A'
aS'C'
aS'C'
aS'C'
aS'T'
aS'C'
aS'T'
aS'G'
aS'C'
aS'C'
aS'T'
aS'C'
aS'A'
aS'A'
aS'G'
aS'T'
aS'C'
aS'C'
aS'A'
aS'G'
aS'G'
aS'C'
aS'C'
aS'A'
aS'C'
aS'C'
aS'T'
aS'G'
aS'G'
aS'C'
aS'A'
aS'T'
aS'T'
aS'C'
aS'C'
aS'C'
aS'A'
aS'T'
aS'C'
aS'T'
aS'C'
aS'C'
aS'T'
aS'G'
aS'C'
aS'A'
aS'T'
aS'C'
aS'C'
aS'C'
aS'C'
aS'C'
aS'A'
aS'G'
aS'C'
aS'C'
aS'T'
aS'G'
aS'T'
aS'C'
aS'C'
aS'C'
aS'C'
aS'C'
aS'T'
aS'G'
aS'G'
aS'C'
aS'T'
aS'G'
aS'T'
aS'T'
aS'T'
aS'C'
aS'C'
aS'T'
aS'C'
aS'T'
aS'C'
aS'C'
aS'C'
aS'G'
aS'T'
aS'C'
aS'C'
aS'C'
aS'T'
aS'C'
aS'C'
aS'C'
aS'T'
aS'C'
aS'C'
aS'C'
aS'C'
aS'T'
aS'C'
aS'T'
aS'A'
aS'C'
aS'C'
aS'A'
aS'G'
aS'G'
aS'T'
aS'G'
aS'G'
aS'C'
aS'C'
aS'C'
aS'A'
aS'G'
aS'C'
aS'T'
aS'C'
aS'C'
aS'A'
aS'T'
aS'A'
aS'C'
aS'T'
aS'C'
aS'T'
aS'G'
aS'T'
aS'C'
aS'C'
aS'C'
aS'C'
aS'C'
aS'C'
aS'A'
aS'G'
aS'C'
aS'T'
aS'A'
aS'A'
aS'T'
aS'A'
aS'C'
aS'C'
aS'C'
aS'A'
aS'G'
aS'A'
aS'G'
aS'C'
aS'A'
aS'C'
aS'C'
aS'C'
aS'A'
aS'G'
aS'A'
aS'T'
aS'C'
aS'A'
aS'G'
aS'A'
aS'C'
aS'T'
aS'C'
aS'T'
aS'C'
aS'C'
aS'T'
aS'T'
aS'C'
aS'A'
aS'G'
aS'G'
aS'G'
aS'T'
aS'T'
aS'T'
aS'A'
aS'T'
aS'T'
aS'T'
aS'A'
aS'G'
aS'G'
aS'T'
aS'T'
aS'A'
aS'T'
aS'T'
aS'A'
aS'T'
aS'T'
aS'T'
aS'T'
aS'T'
aS'T'
aS'A'
aS'T'
aS'T'
aS'T'
aS'T'
aS'T'
aS'T'
aS'A'
aS'A'
aS'T'
aS'C'
aS'C'
aS'A'
aS'T'
aS'T'
aS'C'
aS'T'
aS'T'
aS'T'
aS'G'
aS'T'
aS'T'
aS'T'
aS'G'
aS'T'
aS'T'
aS'T'
aS'A'
aS'C'
aS'C'
aS'T'
aS'G'
aS'T'
aS'G'
aS'C'
aS'T'
aS'C'
aS'A'
aS'T'
aS'C'
aS'C'
aS'T'
aS'C'
aS'T'
aS'G'
aS'C'
aS'C'
aS'C'
aS'T'
aS'T'
aS'A'
aS'C'
aS'A'
aS'C'
aS'C'
aS'C'
aS'A'
aS'T'
aS'G'
aS'A'
aS'C'
aS'T'
aS'G'
aS'A'
aS'G'
aS'G'
aS'A'
aS'C'
aS'C'
aS'A'
aS'A'
aS'T'
aS'G'
aS'A'
aS'C'
aS'G'
aS'T'
aS'C'
aS'A'
aS'T'
aS'G'
aS'T'
aS'G'
aS'G'
aS'C'
aS'T'
aS'T'
aS'T'
aS'T'
aS'G'
aS'C'
aS'A'
aS'A'
aS'T'
aS'T'
aS'C'
aS'A'
aS'C'
aS'G'
aS'C'
aS'C'
aS'C'
aS'C'
aS'C'
aS'C'
aS'T'
aS'T'
aS'A'
aS'A'
aS'G'
aS'T'
aS'C'
aS'C'
aS'T'
aS'T'
aS'A'
aS'A'
aS'T'
aS'G'
aS'A'
aS'A'
aS'G'
aS'A'
aS'G'
aS'C'
aS'C'
aS'A'
aS'G'
aS'C'
aS'C'
aS'C'
aS'A'
aS'A'
aS'G'
aS'T'
aS'A'
aS'G'
aS'A'
aS'G'
aS'G'
aS'G'
aS'G'
aS'C'
aS'C'
aS'C'
aS'C'
aS'T'
aS'G'
aS'A'
aS'T'
aS'C'
aS'C'
aS'T'
aS'C'
aS'A'
aS'C'
aS'A'
aS'C'
aS'T'
aS'T'
aS'C'
aS'A'
aS'G'
aS'T'
aS'A'
aS'T'
aS'A'
aS'G'
aS'C'
aS'A'
aS'T'
aS'T'
aS'G'
aS'G'
aS'T'
aS'T'
aS'C'
aS'C'
aS'C'
aS'C'
aS'C'
aS'T'
aS'G'
aS'A'
aS'C'
aS'C'
aS'A'
aS'C'
aS'T'
aS'T'
aS'T'
aS'G'
aS'G'
aS'A'
aS'G'
aS'C'
aS'A'
aS'C'
aS'T'
aS'G'
aS'T'
aS'T'
aS'C'
aS'T'
aS'G'
aS'G'
aS'G'
aS'A'
aS'C'
aS'T'
aS'C'
aS'C'
aS'A'
aS'G'
aS'G'
aS'T'
aS'C'
aS'T'
aS'T'
aS'G'
aS'A'
aS'G'
aS'G'
aS'A'
aS'G'
aS'A'
aS'G'
aS'A'
aS'G'
aS'A'
aS'C'
aS'A'
aS'G'
aS'A'
aS'G'
aS'A'
aS'G'
aS'A'
aS'G'
aS'A'
aS'G'
aS'A'
aS'A'
aS'T'
aS'G'
aS'G'
aS'A'
aS'T'
aS'C'
aS'C'
aS'T'
aS'C'
aS'A'
aS'T'
aS'A'
aS'G'
aS'G'
aS'T'
aS'C'
aS'A'
aS'G'
aS'G'
aS'G'
aS'A'
aS'G'
aS'T'
aS'G'
aS'G'
aS'G'
aS'G'
aS'G'
aS'A'
aS'G'
aS'G'
aS'G'
aS'G'
aS'G'
aS'C'
aS'A'
aS'A'
aS'A'
aS'T'
aS'G'
aS'A'
aS'G'
aS'C'
aS'C'
aS'T'
aS'T'
aS'A'
aS'A'
aS'G'
aS'A'
aS'A'
aS'A'
aS'T'
aS'G'
aS'G'
aS'T'
aS'T'
aS'T'
aS'T'
aS'T'
aS'A'
aS'A'
aS'A'
aS'C'
aS'A'
aS'A'
aS'C'
aS'C'
aS'A'
aS'A'
aS'A'
aS'C'
aS'A'
aS'A'
aS'A'
aS'A'
aS'A'
aS'G'
aS'C'
aS'A'
aS'G'
aS'G'
aS'A'
aS'A'
aS'A'
aS'A'
aS'A'
aS'C'
aS'A'
aS'A'
aS'A'
aS'T'
aS'G'
aS'G'
aS'G'
aS'A'
aS'A'
aS'A'
aS'T'
aS'G'
aS'G'
aS'G'
aS'G'
aS'G'
aS'G'
aS'G'
aS'C'
aS'G'
aS'G'
aS'G'
aS'G'
aS'G'
aS'G'
aS'G'
aS'A'
aS'G'
aS'G'
aS'A'
aS'A'
aS'G'
aS'A'
aS'G'
aS'G'
aS'C'
aS'T'
aS'G'
aS'C'
aS'A'
aS'C'
aS'T'
aS'G'
aS'C'
aS'A'
aS'G'
aS'C'
aS'C'
aS'A'
aS'C'
aS'A'
aS'G'
aS'G'
aS'G'
aS'G'
aS'A'
aS'T'
aS'T'
aS'C'
aS'T'
aS'T'
aS'A'
aS'G'
aS'G'
aS'A'
aS'T'
aS'T'
aS'T'
aS'T'
aS'T'
aS'C'
aS'T'
aS'A'
aS'C'
aS'A'
aS'T'
aS'G'
aS'C'
aS'T'
aS'G'
aS'T'
aS'A'
aS'T'
aS'A'
aS'T'
aS'T'
aS'T'
aS'C'
aS'T'
aS'T'
aS'C'
aS'T'
aS'C'
aS'A'
aS'A'
aS'A'
aS'C'
aS'C'
aS'T'
aS'C'
aS'C'
aS'A'
aS'A'
aS'A'
aS'T'
aS'G'
aS'T'
aS'C'
aS'C'
aS'T'
aS'T'
aS'A'
aS'A'
aS'A'
aS'T'
aS'G'
aS'T'
aS'T'
aS'T'
aS'A'
aS'A'
aS'T'
aS'A'
aS'A'
aS'A'
aS'C'
aS'A'
aS'C'
aS'T'
aS'G'
aS'A'
aS'C'
aS'A'
aS'T'
aS'T'
aS'T'
aS'C'
aS'C'
aS'A'
aS'G'
aS'A'
aS'A'
aS'G'
aS'C'
aS'T'
aS'G'
aS'C'
aS'T'
aS'G'
aS'C'
aS'C'
aS'T'
aS'T'
aS'G'
aS'T'
aS'C'
aS'T'
aS'A'
aS'G'
aS'A'
aS'A'
aS'T'
aS'T'
aS'T'
aS'C'
aS'C'
aS'T'
aS'A'
aS'G'
aS'T'
aS'C'
aS'C'
aS'T'
aS'C'
aS'C'
aS'T'
aS'G'
aS'G'
aS'G'
aS'A'
aS'A'
aS'T'
aS'A'
aS'A'
aS'T'
aS'T'
aS'C'
aS'C'
aS'T'
aS'G'
aS'C'
aS'C'
aS'C'
aS'C'
aS'T'
aS'T'
aS'A'
aS'T'
aS'C'
aS'C'
aS'C'
aS'A'
aS'T'
aS'C'
aS'C'
aS'C'
aS'C'
aS'A'
aS'A'
aS'C'
aS'C'
aS'T'
aS'T'
aS'C'
aS'C'
aS'A'
aS'T'
aS'A'
aS'C'
aS'T'
aS'T'
aS'G'
aS'G'
aS'C'
aS'T'
aS'T'
aS'C'
aS'A'
aS'G'
aS'T'
aS'T'
aS'G'
aS'T'
aS'T'
aS'T'
aS'A'
aS'G'
aS'T'
aS'T'
aS'T'
aS'G'
aS'T'
aS'T'
aS'T'
aS'T'
aS'T'
aS'T'
aS'T'
aS'G'
aS'G'
aS'G'
aS'G'
aS'T'
aS'G'
aS'G'
aS'G'
aS'C'
aS'T'
aS'T'
aS'A'
aS'T'
aS'A'
aS'T'
aS'A'
aS'G'
aS'T'
aS'A'
aS'T'
aS'A'
aS'C'
aS'T'
aS'A'
aS'G'
aS'A'
aS'A'
aS'A'
aS'G'
aS'A'
aS'A'
aS'C'
aS'T'
aS'C'
aS'T'
aS'G'
aS'A'
aS'A'
aS'A'
aS'T'
aS'A'
aS'G'
aS'C'
aS'C'
assss.