(dp1
I1
(dp2
S'exon list'
p3
(lp4
I1
aI2
aI3
aI4
aI5
aI6
aI7
aI8
aI9
aI10
aI11
aI12
aI13
aI14
aI15
aI16
aI17
aI18
aI19
aI20
aI21
aI22
aI23
aI24
aI25
aI26
aI27
aI28
aI29
aI30
aI31
aI32
aI33
aI34
aI35
asS'variants'
p5
(dp6
I1
(dp7
S'position'
p8
I5017
sS'transcript'
p9
S'NM_000256.3'
p10
sS'new base'
p11
S'A'
sS'hgvs'
p12
S'c.-38C>A'
p13
ssI2
(dp14
g8
I6406
sg9
g10
sg11
S'G'
sg12
S'c.T235G'
p15
ssI3
(dp16
g8
I7183
sg9
g10
sg11
S'A'
sg12
S'c.G389A'
p17
ssI4
(dp18
g8
I7676
sg9
g10
sg11
S'A'
sg12
S'c.G493A'
p19
ssI5
(dp20
g8
I7901
sg9
g10
sg11
S'T'
sg12
S'c.G627T'
p21
ssI6
(dp22
g8
I9220
sg9
g10
sg11
S'T'
sg12
S'c.C714T'
p23
ssI7
(dp24
g8
I9819
sg9
g10
sg11
S'A'
sg12
S'c.G795A'
p25
ssI8
(dp26
g8
I10041
sg9
g10
sg11
S'T'
sg12
S'c.C841T'
p27
ssI9
(dp28
g8
I10261
sg9
g10
sg11
S'T'
sg12
S'c.C890T'
p29
ssI10
(dp30
g8
I10673
sg9
g10
sg11
S'C'
sg12
S'c.A906C'
p31
ssI11
(dp32
g8
I11067
sg9
g10
sg11
S'T'
sg12
S'c.G918T'
p33
ssI12
(dp34
g8
I11426
sg9
g10
sg11
S'A'
sg12
S'c.G1021A'
p35
ssI13
(dp36
g8
I14175
sg9
g10
sg11
S'A'
sg12
S'c.G1188A'
p37
ssI14
(dp38
g8
I14440
sg9
g10
sg11
S'G'
sg12
S'c.C1224G'
p39
ssI15
(dp40
g8
I14628
sg9
g10
sg11
S'T'
sg12
S'c.C1298T'
p41
ssI16
(dp42
g8
I14832
sg9
g10
sg11
S'G'
sg12
S'c.T1417G'
p43
ssI17
(dp44
g8
I14981
sg9
g10
sg11
S'T'
sg12
S'c.C1481T'
p45
ssI18
(dp46
g8
I15626
sg9
g10
sg11
S'G'
sg12
S'c.T1705G'
p47
ssI19
(dp48
g8
I16528
sg9
g10
sg11
S'C'
sg12
S'c.T1861C'
p49
ssI20
(dp50
g8
I16685
sg9
g10
sg11
S'C'
sg12
S'c.T1913C'
p51
ssI21
(dp52
g8
I17990
sg9
g10
sg11
S'G'
sg12
S'c.T2006G'
p53
ssI22
(dp54
g8
I18351
sg9
g10
sg11
S'T'
sg12
S'c.C2121T'
p55
ssI23
(dp56
g8
I19127
sg9
g10
sg11
S'G'
sg12
S'c.C2253G'
p57
ssI24
(dp58
g8
I19917
sg9
g10
sg11
S'G'
sg12
S'c.A2318G'
p59
ssI25
(dp60
g8
I20185
sg9
g10
sg11
S'T'
sg12
S'c.A2476T'
p61
ssI26
(dp62
g8
I21699
sg9
g10
sg11
S'C'
sg12
S'c.A2611C'
p63
ssI27
(dp64
g8
I22535
sg9
g10
sg11
S'A'
sg12
S'c.C2780A'
p65
ssI28
(dp66
g8
I23773
sg9
g10
sg11
S'T'
sg12
S'c.C2987T'
p67
ssI29
(dp68
g8
I24030
sg9
g10
sg11
S'T'
sg12
S'c.C3075T'
p69
ssI30
(dp70
g8
I24446
sg9
g10
sg11
S'T'
sg12
S'c.C3268T'
p71
ssI31
(dp72
g8
I24881
sg9
g10
sg11
S'T'
sg12
S'c.C3483T'
p73
ssI32
(dp74
g8
I25063
sg9
g10
sg11
S'G'
sg12
S'c.A3554G'
p75
ssI33
(dp76
g8
I25570
sg9
g10
sg11
S'C'
sg12
S'c.G3754C'
p77
ssI34
(dp78
g8
I25826
sg9
g10
sg11
S'G'
sg12
S'c.C3820G'
p79
ssI35
(dp80
g8
I26049
sg9
g10
sg11
S'C'
sg12
S'c.*90T>C'
p81
sssS'exons'
p82
(dp83
I1
(dp84
S'start'
p85
I5001
sS'length'
p86
I79
sS'padded length'
p87
I379
sS'end'
p88
I5080
sS'padded seq'
p89
(lp90
S'G'
aS'G'
aS'G'
aS'A'
aS'C'
aS'A'
aS'A'
aS'T'
aS'G'
aS'T'
aS'G'
aS'G'
aS'C'
aS'C'
aS'C'
aS'T'
aS'A'
aS'C'
aS'C'
aS'T'
aS'T'
aS'C'
aS'T'
aS'C'
aS'C'
aS'C'
aS'T'
aS'G'
aS'G'
aS'A'
aS'G'
aS'A'
aS'G'
aS'A'
aS'C'
aS'C'
aS'T'
aS'C'
aS'A'
aS'G'
aS'C'
aS'T'
aS'C'
aS'T'
aS'C'
aS'T'
aS'G'
aS'G'
aS'A'
aS'A'
aS'T'
aS'T'
aS'C'
aS'A'
aS'T'
aS'C'
aS'T'
aS'A'
aS'T'
aS'A'
aS'T'
aS'T'
aS'T'
aS'A'
aS'G'
aS'C'
aS'A'
aS'G'
aS'G'
aS'T'
aS'G'
aS'G'
aS'C'
aS'T'
aS'G'
aS'G'
aS'A'
aS'C'
aS'A'
aS'G'
aS'G'
aS'A'
aS'G'
aS'G'
aS'C'
aS'A'
aS'G'
aS'A'
aS'T'
aS'A'
aS'A'
aS'G'
aS'C'
aS'A'
aS'G'
aS'A'
aS'G'
aS'C'
aS'C'
aS'T'
aS'G'
aS'G'
aS'G'
aS'G'
aS'A'
aS'G'
aS'G'
aS'G'
aS'G'
aS'G'
aS'G'
aS'A'
aS'G'
aS'G'
aS'T'
aS'C'
aS'C'
aS'C'
aS'C'
aS'A'
aS'T'
aS'A'
aS'T'
aS'A'
aS'T'
aS'A'
aS'G'
aS'T'
aS'G'
aS'G'
aS'G'
aS'A'
aS'A'
aS'G'
aS'G'
aS'A'
aS'C'
aS'A'
aS'G'
aS'G'
aS'A'
aS'C'
aS'C'
aS'C'
aS'C'
aS'A'
aS'C'
aS'T'
aS'C'
aS'A'
aS'G'
aS'T'
aS'C'
aS'C'
aS'C'
aS'T'
aS'C'
aS'T'
aS'T'
aS'T'
aS'G'
aS'G'
aS'G'
aS'T'
aS'G'
aS'A'
aS'A'
aS'C'
aS'T'
aS'G'
aS'T'
aS'G'
aS'C'
aS'C'
aS'T'
aS'G'
aS'C'
aS'T'
aS'T'
aS'C'
aS'G'
aS'T'
aS'G'
aS'C'
aS'C'
aS'T'
aS'G'
aS'G'
aS'T'
aS'G'
aS'T'
aS'G'
aS'A'
aS'C'
aS'G'
aS'T'
aS'C'
aS'T'
aS'C'
aS'T'
aS'C'
aS'A'
aS'G'
aS'G'
aS'A'
aS'T'
aS'G'
aS'C'
aS'C'
aS'T'
aS'G'
aS'A'
aS'G'
aS'C'
aS'C'
aS'G'
aS'G'
aS'G'
aS'G'
aS'A'
aS'A'
aS'G'
aS'A'
aS'A'
aS'G'
aS'C'
aS'C'
aS'A'
aS'G'
aS'G'
aS'T'
aS'A'
aS'G'
aS'C'
aS'T'
aS'T'
aS'T'
aS'A'
aS'G'
aS'G'
aS'A'
aS'C'
aS'T'
aS'G'
aS'G'
aS'G'
aS'G'
aS'T'
aS'T'
aS'G'
aS'G'
aS'G'
aS'T'
aS'C'
aS'T'
aS'A'
aS'A'
aS'G'
aS'T'
aS'G'
aS'T'
aS'G'
aS'G'
aS'G'
aS'A'
aS'G'
aS'C'
aS'A'
aS'G'
aS'G'
aS'G'
aS'G'
aS'G'
aS'G'
aS'T'
aS'G'
aS'T'
aS'C'
aS'T'
aS'A'
aS'C'
aS'A'
aS'A'
aS'T'
aS'T'
aS'G'
aS'G'
aS'G'
aS'G'
aS'A'
aS'G'
aS'C'
aS'A'
aS'G'
aS'G'
aS'G'
aS'C'
aS'T'
aS'A'
aS'G'
aS'G'
aS'A'
aS'G'
aS'G'
aS'G'
aS'A'
aS'G'
aS'T'
aS'T'
aS'C'
aS'T'
aS'T'
aS'G'
aS'A'
aS'G'
aS'G'
aS'G'
aS'G'
aS'G'
aS'T'
aS'T'
aS'G'
aS'A'
aS'C'
aS'G'
aS'A'
aS'G'
aS'G'
aS'A'
aS'C'
aS'G'
aS'T'
aS'G'
aS'G'
aS'C'
aS'C'
aS'T'
aS'C'
aS'T'
aS'G'
aS'A'
aS'G'
aS'C'
aS'C'
aS'C'
aS'C'
aS'A'
aS'G'
aS'G'
aS'A'
aS'C'
aS'A'
aS'G'
aS'G'
aS'G'
aS'G'
aS'C'
aS'A'
aS'G'
aS'C'
aS'C'
aS'A'
aS'G'
aS'T'
aS'C'
aS'C'
aS'T'
aS'C'
aS'C'
aS'A'
aS'G'
aS'G'
aS'G'
aS'T'
aS'C'
aS'C'
aS'T'
aS'T'
aS'T'
assI2
(dp91
g85
I6198
sg86
I266
sg87
I566
sg88
I6464
sg89
(lp92
S'A'
aS'G'
aS'A'
aS'A'
aS'T'
aS'A'
aS'A'
aS'C'
aS'T'
aS'G'
aS'C'
aS'A'
aS'A'
aS'C'
aS'T'
aS'A'
aS'C'
aS'C'
aS'T'
aS'C'
aS'A'
aS'G'
aS'A'
aS'G'
aS'A'
aS'A'
aS'C'
aS'T'
aS'G'
aS'G'
aS'T'
aS'A'
aS'G'
aS'A'
aS'G'
aS'T'
aS'A'
aS'T'
aS'T'
aS'A'
aS'C'
aS'G'
aS'T'
aS'G'
aS'A'
aS'G'
aS'G'
aS'G'
aS'G'
aS'A'
aS'T'
aS'G'
aS'C'
aS'A'
aS'T'
aS'A'
aS'G'
aS'A'
aS'A'
aS'A'
aS'G'
aS'T'
aS'G'
aS'C'
aS'T'
aS'A'
aS'G'
aS'C'
aS'A'
aS'C'
aS'A'
aS'G'
aS'T'
aS'A'
aS'T'
aS'T'
aS'T'
aS'A'
aS'C'
aS'T'
aS'G'
aS'A'
aS'G'
aS'A'
aS'G'
aS'G'
aS'G'
aS'G'
aS'C'
aS'T'
aS'G'
aS'C'
aS'A'
aS'G'
aS'G'
aS'G'
aS'G'
aS'C'
aS'G'
aS'G'
aS'G'
aS'G'
aS'T'
aS'G'
aS'C'
aS'A'
aS'C'
aS'G'
aS'C'
aS'T'
aS'C'
aS'C'
aS'A'
aS'A'
aS'C'
aS'C'
aS'A'
aS'G'
aS'G'
aS'G'
aS'G'
aS'C'
aS'C'
aS'G'
aS'C'
aS'T'
aS'G'
aS'T'
aS'A'
aS'G'
aS'C'
aS'C'
aS'T'
aS'C'
aS'C'
aS'A'
aS'C'
aS'C'
aS'T'
aS'G'
aS'G'
aS'C'
aS'C'
aS'C'
aS'T'
aS'T'
aS'C'
aS'A'
aS'G'
aS'T'
aS'C'
aS'T'
aS'C'
aS'A'
aS'G'
aS'C'
aS'T'
aS'T'
aS'T'
aS'T'
aS'A'
aS'G'
aS'C'
aS'A'
aS'A'
aS'G'
aS'A'
aS'A'
aS'G'
aS'C'
aS'C'
aS'A'
aS'C'
aS'G'
aS'G'
aS'T'
aS'C'
aS'A'
aS'G'
aS'T'
aS'G'
aS'G'
aS'A'
aS'A'
aS'G'
aS'T'
aS'G'
aS'G'
aS'C'
aS'C'
aS'G'
aS'C'
aS'A'
aS'G'
aS'G'
aS'C'
aS'A'
aS'G'
aS'C'
aS'C'
aS'C'
aS'T'
aS'G'
aS'C'
aS'C'
aS'G'
aS'T'
aS'G'
aS'T'
aS'T'
aS'C'
aS'G'
aS'A'
aS'G'
aS'G'
aS'C'
aS'C'
aS'G'
aS'A'
aS'G'
aS'A'
aS'C'
aS'A'
aS'G'
aS'A'
aS'G'
aS'C'
aS'G'
aS'G'
aS'G'
aS'C'
aS'A'
aS'G'
aS'G'
aS'A'
aS'G'
aS'T'
aS'G'
aS'A'
aS'A'
aS'G'
aS'G'
aS'T'
aS'G'
aS'C'
aS'G'
aS'C'
aS'T'
aS'G'
aS'G'
aS'C'
aS'A'
aS'G'
aS'C'
aS'G'
aS'C'
aS'G'
aS'G'
aS'A'
aS'G'
aS'G'
aS'C'
aS'A'
aS'G'
aS'T'
aS'G'
aS'A'
aS'C'
aS'A'
aS'T'
aS'C'
aS'A'
aS'G'
aS'C'
aS'G'
aS'C'
aS'C'
aS'A'
aS'G'
aS'C'
aS'A'
aS'A'
aS'C'
aS'A'
aS'A'
aS'G'
aS'T'
aS'A'
aS'C'
aS'G'
aS'G'
aS'C'
aS'C'
aS'T'
aS'G'
aS'G'
aS'C'
aS'C'
aS'A'
aS'C'
aS'A'
aS'G'
aS'A'
aS'G'
aS'G'
aS'G'
aS'C'
aS'A'
aS'C'
aS'A'
aS'C'
aS'G'
aS'G'
aS'C'
aS'A'
aS'T'
aS'A'
aS'C'
aS'G'
aS'C'
aS'T'
aS'G'
aS'A'
aS'C'
aS'A'
aS'G'
aS'T'
aS'G'
aS'C'
aS'G'
aS'G'
aS'G'
aS'A'
aS'A'
aS'G'
aS'T'
aS'G'
aS'G'
aS'G'
aS'C'
aS'C'
aS'C'
aS'T'
aS'G'
aS'C'
aS'C'
aS'G'
aS'A'
aS'C'
aS'C'
aS'A'
aS'G'
aS'G'
aS'G'
aS'A'
aS'T'
aS'C'
aS'T'
aS'G'
aS'A'
aS'C'
aS'G'
aS'C'
aS'A'
aS'G'
aS'T'
aS'C'
aS'A'
aS'T'
aS'T'
aS'G'
aS'C'
aS'T'
aS'G'
aS'G'
aS'C'
aS'T'
aS'C'
aS'C'
aS'T'
aS'C'
aS'C'
aS'A'
aS'A'
aS'G'
aS'G'
aS'T'
aS'C'
aS'A'
aS'A'
aS'G'
aS'T'
aS'T'
aS'C'
aS'G'
aS'A'
aS'C'
aS'C'
aS'T'
aS'C'
aS'A'
aS'A'
aS'G'
aS'G'
aS'T'
aS'C'
aS'A'
aS'T'
aS'A'
aS'G'
aS'A'
aS'G'
aS'G'
aS'C'
aS'A'
aS'G'
aS'G'
aS'T'
aS'A'
aS'A'
aS'G'
aS'A'
aS'T'
aS'C'
aS'C'
aS'T'
aS'G'
aS'A'
aS'T'
aS'C'
aS'A'
aS'G'
aS'C'
aS'C'
aS'T'
aS'T'
aS'C'
aS'C'
aS'C'
aS'T'
aS'G'
aS'A'
aS'G'
aS'G'
aS'T'
aS'T'
aS'T'
aS'G'
aS'G'
aS'G'
aS'C'
aS'T'
aS'G'
aS'C'
aS'T'
aS'G'
aS'G'
aS'G'
aS'G'
aS'G'
aS'A'
aS'G'
aS'G'
aS'G'
aS'G'
aS'C'
aS'A'
aS'G'
aS'C'
aS'C'
aS'C'
aS'A'
aS'G'
aS'C'
aS'G'
aS'A'
aS'C'
aS'T'
aS'C'
aS'T'
aS'C'
aS'C'
aS'A'
aS'T'
aS'C'
aS'C'
aS'A'
aS'T'
aS'C'
aS'C'
aS'A'
aS'G'
aS'G'
aS'G'
aS'A'
aS'A'
aS'C'
aS'A'
aS'G'
aS'G'
aS'A'
aS'G'
aS'G'
aS'T'
aS'G'
aS'C'
aS'T'
aS'T'
aS'T'
aS'C'
aS'A'
aS'C'
aS'A'
aS'C'
aS'T'
aS'T'
aS'T'
aS'C'
aS'T'
aS'T'
aS'G'
aS'C'
aS'C'
aS'T'
aS'T'
aS'T'
aS'G'
aS'C'
aS'T'
aS'G'
aS'T'
aS'G'
aS'G'
aS'C'
aS'T'
aS'G'
aS'T'
aS'G'
aS'C'
aS'C'
aS'C'
aS'C'
aS'C'
aS'C'
aS'G'
aS'C'
aS'C'
aS'A'
aS'G'
aS'G'
aS'A'
aS'A'
aS'C'
aS'G'
aS'C'
aS'C'
aS'C'
aS'T'
aS'T'
aS'T'
aS'C'
aS'C'
aS'C'
aS'C'
aS'C'
aS'T'
assI3
(dp93
g85
I7088
sg86
I113
sg87
I413
sg88
I7201
sg89
(lp94
S'C'
aS'T'
aS'G'
aS'C'
aS'C'
aS'T'
aS'C'
aS'T'
aS'G'
aS'A'
aS'G'
aS'G'
aS'G'
aS'G'
aS'C'
aS'C'
aS'C'
aS'A'
aS'G'
aS'G'
aS'C'
aS'A'
aS'G'
aS'C'
aS'G'
aS'G'
aS'G'
aS'A'
aS'G'
aS'G'
aS'A'
aS'C'
aS'A'
aS'G'
aS'C'
aS'C'
aS'A'
aS'T'
aS'G'
aS'G'
aS'C'
aS'A'
aS'G'
aS'A'
aS'C'
aS'T'
aS'T'
aS'T'
aS'C'
aS'C'
aS'T'
aS'C'
aS'A'
aS'T'
aS'C'
aS'C'
aS'A'
aS'C'
aS'A'
aS'G'
aS'C'
aS'G'
aS'G'
aS'G'
aS'C'
aS'T'
aS'C'
aS'A'
aS'T'
aS'G'
aS'G'
aS'G'
aS'T'
aS'C'
aS'C'
aS'A'
aS'A'
aS'T'
aS'G'
aS'C'
aS'T'
aS'C'
aS'A'
aS'G'
aS'G'
aS'A'
aS'G'
aS'A'
aS'G'
aS'A'
aS'G'
aS'A'
aS'G'
aS'G'
aS'G'
aS'T'
aS'G'
aS'G'
aS'A'
aS'G'
aS'G'
aS'G'
aS'G'
aS'T'
aS'C'
aS'T'
aS'C'
aS'T'
aS'G'
aS'G'
aS'T'
aS'T'
aS'A'
aS'G'
aS'T'
aS'G'
aS'G'
aS'C'
aS'T'
aS'G'
aS'C'
aS'A'
aS'C'
aS'C'
aS'A'
aS'C'
aS'G'
aS'A'
aS'C'
aS'T'
aS'C'
aS'C'
aS'C'
aS'A'
aS'T'
aS'C'
aS'T'
aS'G'
aS'A'
aS'T'
aS'C'
aS'C'
aS'C'
aS'C'
aS'T'
aS'C'
aS'C'
aS'A'
aS'G'
aS'A'
aS'G'
aS'A'
aS'A'
aS'G'
aS'G'
aS'C'
aS'A'
aS'G'
aS'A'
aS'G'
aS'C'
aS'C'
aS'C'
aS'A'
aS'T'
aS'G'
aS'C'
aS'T'
aS'G'
aS'G'
aS'C'
aS'C'
aS'C'
aS'C'
aS'T'
aS'G'
aS'C'
aS'C'
aS'C'
aS'C'
aS'T'
aS'G'
aS'C'
aS'C'
aS'C'
aS'C'
aS'T'
aS'G'
aS'C'
aS'T'
aS'G'
aS'A'
aS'G'
aS'G'
aS'C'
aS'C'
aS'A'
aS'C'
aS'T'
aS'G'
aS'G'
aS'A'
aS'G'
aS'C'
aS'C'
aS'C'
aS'C'
aS'T'
aS'G'
aS'G'
aS'A'
aS'G'
aS'A'
aS'A'
aS'G'
aS'C'
aS'C'
aS'C'
aS'C'
aS'G'
aS'G'
aS'C'
aS'C'
aS'C'
aS'C'
aS'A'
aS'G'
aS'C'
aS'C'
aS'G'
aS'C'
aS'T'
aS'G'
aS'A'
aS'G'
aS'C'
aS'T'
aS'G'
aS'G'
aS'G'
aS'A'
aS'G'
aS'A'
aS'A'
aS'A'
aS'A'
aS'T'
aS'G'
aS'C'
aS'C'
aS'C'
aS'C'
aS'A'
aS'A'
aS'G'
aS'T'
aS'C'
aS'C'
aS'C'
aS'A'
aS'A'
aS'A'
aS'G'
aS'G'
aS'T'
aS'G'
aS'A'
aS'G'
aS'A'
aS'G'
aS'G'
aS'G'
aS'G'
aS'C'
aS'T'
aS'G'
aS'G'
aS'G'
aS'C'
aS'A'
aS'G'
aS'G'
aS'G'
aS'A'
aS'G'
aS'G'
aS'G'
aS'G'
aS'C'
aS'A'
aS'G'
aS'G'
aS'A'
aS'T'
aS'C'
aS'C'
aS'G'
aS'T'
aS'G'
aS'G'
aS'G'
aS'T'
aS'A'
aS'G'
aS'G'
aS'G'
aS'C'
aS'G'
aS'T'
aS'G'
aS'T'
aS'C'
aS'C'
aS'A'
aS'G'
aS'G'
aS'G'
aS'C'
aS'A'
aS'G'
aS'G'
aS'T'
aS'C'
aS'T'
aS'C'
aS'A'
aS'A'
aS'A'
aS'A'
aS'G'
aS'C'
aS'C'
aS'T'
aS'T'
aS'T'
aS'G'
aS'C'
aS'T'
aS'G'
aS'G'
aS'G'
aS'C'
aS'C'
aS'A'
aS'G'
aS'G'
aS'T'
aS'G'
aS'C'
aS'G'
aS'G'
aS'T'
aS'G'
aS'G'
aS'C'
aS'T'
aS'C'
aS'A'
aS'G'
aS'G'
aS'C'
aS'C'
aS'T'
aS'A'
aS'T'
aS'A'
aS'A'
aS'T'
aS'C'
aS'C'
aS'C'
aS'C'
aS'A'
aS'G'
aS'T'
aS'A'
aS'C'
aS'T'
aS'T'
aS'T'
aS'G'
aS'G'
aS'G'
aS'A'
aS'G'
aS'G'
aS'C'
aS'C'
aS'G'
aS'A'
aS'G'
aS'G'
aS'T'
aS'G'
aS'G'
aS'G'
aS'C'
aS'G'
aS'G'
aS'A'
aS'T'
aS'C'
aS'A'
aS'T'
aS'G'
aS'A'
aS'G'
aS'G'
aS'T'
aS'C'
aS'A'
aS'G'
aS'G'
assI4
(dp95
g85
I7591
sg86
I98
sg87
I398
sg88
I7689
sg89
(lp96
S'T'
aS'C'
aS'C'
aS'C'
aS'A'
aS'G'
aS'C'
aS'T'
aS'A'
aS'A'
aS'C'
aS'T'
aS'T'
aS'G'
aS'G'
aS'G'
aS'A'
aS'G'
aS'G'
aS'C'
aS'T'
aS'G'
aS'A'
aS'G'
aS'G'
aS'C'
aS'A'
aS'G'
aS'G'
aS'A'
aS'G'
aS'A'
aS'A'
aS'T'
aS'G'
aS'G'
aS'T'
aS'G'
aS'T'
aS'G'
aS'A'
aS'A'
aS'C'
aS'C'
aS'T'
aS'G'
aS'G'
aS'G'
aS'A'
aS'G'
aS'G'
aS'C'
aS'G'
aS'G'
aS'A'
aS'G'
aS'C'
aS'T'
aS'T'
aS'G'
aS'C'
aS'A'
aS'G'
aS'T'
aS'G'
aS'A'
aS'G'
aS'C'
aS'C'
aS'G'
aS'A'
aS'G'
aS'A'
aS'T'
aS'T'
aS'G'
aS'T'
aS'G'
aS'C'
aS'C'
aS'T'
aS'C'
aS'T'
aS'G'
aS'C'
aS'A'
aS'C'
aS'T'
aS'C'
aS'C'
aS'A'
aS'G'
aS'C'
aS'C'
aS'T'
aS'G'
aS'G'
aS'G'
aS'T'
aS'G'
aS'A'
aS'C'
aS'A'
aS'G'
aS'A'
aS'G'
aS'C'
aS'A'
aS'A'
aS'G'
aS'A'
aS'C'
aS'T'
aS'C'
aS'C'
aS'A'
aS'T'
aS'C'
aS'T'
aS'C'
aS'A'
aS'A'
aS'A'
aS'C'
aS'A'
aS'A'
aS'A'
aS'C'
aS'A'
aS'G'
aS'A'
aS'A'
aS'A'
aS'A'
aS'A'
aS'G'
aS'C'
aS'C'
aS'T'
aS'T'
aS'T'
aS'G'
aS'C'
aS'T'
aS'C'
aS'A'
aS'C'
aS'A'
aS'G'
aS'G'
aS'G'
aS'T'
aS'C'
aS'A'
aS'A'
aS'G'
aS'C'
aS'T'
aS'C'
aS'A'
aS'G'
aS'C'
aS'A'
aS'G'
aS'C'
aS'T'
aS'C'
aS'T'
aS'C'
aS'A'
aS'A'
aS'T'
aS'G'
aS'G'
aS'T'
aS'C'
aS'C'
aS'T'
aS'A'
aS'C'
aS'C'
aS'C'
aS'C'
aS'T'
aS'G'
aS'G'
aS'A'
aS'G'
aS'C'
aS'C'
aS'C'
aS'C'
aS'C'
aS'G'
aS'A'
aS'T'
aS'G'
aS'A'
aS'C'
aS'C'
aS'C'
aS'C'
aS'A'
aS'T'
aS'T'
aS'G'
aS'G'
aS'C'
aS'C'
aS'T'
aS'C'
aS'T'
aS'T'
aS'C'
aS'G'
aS'T'
aS'G'
aS'A'
aS'T'
aS'G'
aS'C'
aS'G'
aS'G'
aS'C'
aS'C'
aS'A'
aS'C'
aS'A'
aS'G'
aS'G'
aS'A'
aS'T'
aS'G'
aS'G'
aS'C'
aS'A'
aS'A'
aS'G'
aS'G'
aS'T'
aS'G'
aS'A'
aS'C'
aS'C'
aS'G'
aS'T'
aS'G'
aS'G'
aS'G'
aS'T'
aS'G'
aS'A'
aS'G'
aS'T'
aS'G'
aS'T'
aS'G'
aS'A'
aS'G'
aS'C'
aS'T'
aS'G'
aS'C'
aS'T'
aS'G'
aS'T'
aS'G'
aS'C'
aS'C'
aS'C'
aS'A'
aS'G'
aS'C'
aS'A'
aS'T'
aS'T'
aS'G'
aS'G'
aS'G'
aS'G'
aS'T'
aS'G'
aS'G'
aS'G'
aS'A'
aS'A'
aS'G'
aS'G'
aS'G'
aS'G'
aS'G'
aS'G'
aS'G'
aS'C'
aS'A'
aS'G'
aS'C'
aS'A'
aS'G'
aS'G'
aS'A'
aS'C'
aS'A'
aS'C'
aS'T'
aS'C'
aS'C'
aS'C'
aS'C'
aS'A'
aS'A'
aS'G'
aS'C'
aS'C'
aS'G'
aS'G'
aS'G'
aS'C'
aS'C'
aS'T'
aS'G'
aS'T'
aS'C'
aS'G'
aS'C'
aS'C'
aS'C'
aS'C'
aS'T'
aS'G'
aS'C'
aS'C'
aS'T'
aS'T'
aS'T'
aS'G'
aS'C'
aS'A'
aS'G'
aS'G'
aS'T'
aS'G'
aS'G'
aS'C'
aS'A'
aS'G'
aS'C'
aS'A'
aS'T'
aS'C'
aS'A'
aS'C'
aS'C'
aS'T'
aS'T'
aS'C'
aS'T'
aS'C'
aS'A'
aS'G'
aS'C'
aS'C'
aS'C'
aS'G'
aS'C'
aS'G'
aS'T'
aS'G'
aS'G'
aS'C'
aS'C'
aS'G'
aS'G'
aS'C'
aS'G'
aS'C'
aS'C'
aS'A'
aS'G'
aS'C'
aS'C'
aS'T'
aS'C'
aS'C'
aS'T'
aS'G'
aS'A'
aS'A'
aS'G'
aS'C'
aS'C'
aS'G'
aS'C'
aS'C'
aS'T'
aS'G'
aS'T'
aS'G'
assI5
(dp97
g85
I7781
sg86
I148
sg87
I448
sg88
I7929
sg89
(lp98
S'C'
aS'C'
aS'C'
aS'G'
aS'A'
aS'T'
aS'G'
aS'A'
aS'C'
aS'C'
aS'C'
aS'C'
aS'A'
aS'T'
aS'T'
aS'G'
aS'G'
aS'C'
aS'C'
aS'T'
aS'C'
aS'T'
aS'T'
aS'C'
aS'G'
aS'T'
aS'G'
aS'A'
aS'T'
aS'G'
aS'C'
aS'G'
aS'G'
aS'C'
aS'C'
aS'A'
aS'C'
aS'A'
aS'G'
aS'G'
aS'A'
aS'T'
aS'G'
aS'G'
aS'C'
aS'A'
aS'A'
aS'G'
aS'G'
aS'T'
aS'G'
aS'A'
aS'C'
aS'C'
aS'G'
aS'T'
aS'G'
aS'G'
aS'G'
aS'T'
aS'G'
aS'A'
aS'G'
aS'T'
aS'G'
aS'T'
aS'G'
aS'A'
aS'G'
aS'C'
aS'T'
aS'G'
aS'C'
aS'T'
aS'G'
aS'T'
aS'G'
aS'C'
aS'C'
aS'C'
aS'A'
aS'G'
aS'C'
aS'A'
aS'T'
aS'T'
aS'G'
aS'G'
aS'G'
aS'G'
aS'T'
aS'G'
aS'G'
aS'G'
aS'A'
aS'A'
aS'G'
aS'G'
aS'G'
aS'G'
aS'G'
aS'G'
aS'G'
aS'C'
aS'A'
aS'G'
aS'C'
aS'A'
aS'G'
aS'G'
aS'A'
aS'C'
aS'A'
aS'C'
aS'T'
aS'C'
aS'C'
aS'C'
aS'C'
aS'A'
aS'A'
aS'G'
aS'C'
aS'C'
aS'G'
aS'G'
aS'G'
aS'C'
aS'C'
aS'T'
aS'G'
aS'T'
aS'C'
aS'G'
aS'C'
aS'C'
aS'C'
aS'C'
aS'T'
aS'G'
aS'C'
aS'C'
aS'T'
aS'T'
aS'T'
aS'G'
aS'C'
aS'A'
aS'G'
aS'G'
aS'T'
aS'G'
aS'G'
aS'C'
aS'A'
aS'G'
aS'C'
aS'A'
aS'T'
aS'C'
aS'A'
aS'C'
aS'C'
aS'T'
aS'T'
aS'C'
aS'T'
aS'C'
aS'A'
aS'G'
aS'C'
aS'C'
aS'C'
aS'G'
aS'C'
aS'G'
aS'T'
aS'G'
aS'G'
aS'C'
aS'C'
aS'G'
aS'G'
aS'C'
aS'G'
aS'C'
aS'C'
aS'A'
aS'G'
aS'C'
aS'C'
aS'T'
aS'C'
aS'C'
aS'T'
aS'G'
aS'A'
aS'A'
aS'G'
aS'C'
aS'C'
aS'G'
aS'C'
aS'C'
aS'T'
aS'G'
aS'T'
aS'G'
aS'G'
aS'T'
aS'C'
aS'A'
aS'A'
aS'G'
aS'T'
aS'G'
aS'G'
aS'T'
aS'T'
aS'C'
aS'A'
aS'A'
aS'G'
aS'G'
aS'G'
aS'C'
aS'A'
aS'A'
aS'A'
aS'T'
aS'G'
aS'G'
aS'G'
aS'T'
aS'G'
aS'G'
aS'A'
aS'C'
aS'C'
aS'T'
aS'G'
aS'A'
aS'G'
aS'C'
aS'A'
aS'G'
aS'C'
aS'A'
aS'A'
aS'G'
aS'G'
aS'T'
aS'G'
aS'G'
aS'G'
aS'C'
aS'C'
aS'A'
aS'G'
aS'C'
aS'A'
aS'C'
aS'C'
aS'T'
aS'G'
aS'C'
aS'A'
aS'G'
aS'C'
aS'T'
aS'T'
aS'C'
aS'A'
aS'C'
aS'G'
aS'A'
aS'C'
aS'A'
aS'G'
aS'C'
aS'T'
aS'A'
aS'C'
aS'G'
aS'A'
aS'C'
aS'C'
aS'G'
aS'C'
aS'G'
aS'C'
aS'C'
aS'A'
aS'G'
aS'C'
aS'A'
aS'A'
aS'G'
aS'G'
aS'T'
aS'G'
aS'G'
aS'G'
aS'T'
aS'C'
aS'C'
aS'A'
aS'C'
aS'C'
aS'G'
aS'G'
aS'G'
aS'G'
aS'T'
aS'C'
aS'G'
aS'T'
aS'G'
aS'G'
aS'A'
aS'G'
aS'A'
aS'C'
aS'A'
aS'C'
aS'G'
aS'G'
aS'A'
aS'G'
aS'A'
aS'G'
aS'A'
aS'G'
aS'G'
aS'G'
aS'G'
aS'A'
aS'C'
aS'A'
aS'T'
aS'G'
aS'G'
aS'A'
aS'G'
aS'A'
aS'G'
aS'C'
aS'C'
aS'C'
aS'T'
aS'A'
aS'G'
aS'A'
aS'A'
aS'G'
aS'G'
aS'C'
aS'A'
aS'C'
aS'A'
aS'A'
aS'G'
aS'G'
aS'C'
aS'A'
aS'C'
aS'A'
aS'C'
aS'A'
aS'G'
aS'A'
aS'G'
aS'G'
aS'G'
aS'C'
aS'A'
aS'C'
aS'C'
aS'A'
aS'T'
aS'G'
aS'A'
aS'G'
aS'A'
aS'C'
aS'C'
aS'C'
aS'A'
aS'G'
aS'A'
aS'G'
aS'G'
aS'C'
aS'A'
aS'C'
aS'A'
aS'C'
aS'A'
aS'C'
aS'G'
aS'A'
aS'G'
aS'C'
aS'T'
aS'G'
aS'C'
aS'A'
aS'A'
aS'G'
aS'C'
aS'A'
aS'A'
aS'G'
aS'G'
aS'G'
aS'G'
aS'T'
aS'G'
aS'T'
aS'G'
aS'G'
aS'G'
aS'G'
aS'A'
aS'A'
aS'T'
aS'C'
aS'T'
aS'G'
aS'G'
aS'G'
aS'A'
aS'G'
aS'G'
aS'C'
aS'A'
aS'G'
aS'G'
aS'T'
aS'G'
aS'G'
aS'A'
aS'G'
aS'G'
aS'G'
aS'G'
aS'C'
aS'C'
assI6
(dp99
g85
I9162
sg86
I117
sg87
I417
sg88
I9279
sg89
(lp100
S'C'
aS'T'
aS'T'
aS'A'
aS'T'
aS'G'
aS'T'
aS'G'
aS'A'
aS'T'
aS'C'
aS'C'
aS'G'
aS'C'
aS'C'
aS'C'
aS'G'
aS'C'
aS'C'
aS'T'
aS'C'
aS'A'
aS'G'
aS'C'
aS'C'
aS'T'
aS'C'
aS'C'
aS'C'
aS'A'
aS'A'
aS'A'
aS'G'
aS'T'
aS'G'
aS'G'
aS'G'
aS'G'
aS'A'
aS'T'
aS'T'
aS'A'
aS'C'
aS'A'
aS'G'
aS'G'
aS'C'
aS'C'
aS'T'
aS'G'
aS'A'
aS'G'
aS'C'
aS'C'
aS'A'
aS'C'
aS'C'
aS'G'
aS'C'
aS'G'
aS'C'
aS'C'
aS'C'
aS'G'
aS'G'
aS'C'
aS'C'
aS'A'
aS'C'
aS'T'
aS'C'
aS'C'
aS'C'
aS'A'
aS'G'
aS'T'
aS'C'
aS'T'
aS'C'
aS'C'
aS'T'
aS'T'
aS'T'
aS'A'
aS'A'
aS'G'
aS'G'
aS'G'
aS'T'
aS'G'
aS'C'
aS'G'
aS'G'
aS'A'
aS'G'
aS'C'
aS'C'
aS'T'
aS'T'
aS'G'
aS'T'
aS'C'
aS'T'
aS'C'
aS'C'
aS'C'
aS'G'
aS'G'
aS'C'
aS'C'
aS'C'
aS'C'
aS'T'
aS'G'
aS'G'
aS'T'
aS'G'
aS'T'
aS'C'
aS'C'
aS'C'
aS'C'
aS'T'
aS'G'
aS'A'
aS'C'
aS'G'
aS'C'
aS'C'
aS'C'
aS'C'
aS'G'
aS'T'
aS'C'
aS'C'
aS'C'
aS'T'
aS'C'
aS'C'
aS'A'
aS'T'
aS'G'
aS'C'
aS'A'
aS'C'
aS'A'
aS'C'
aS'A'
aS'G'
aS'G'
aS'T'
aS'C'
aS'T'
aS'A'
aS'T'
aS'C'
aS'T'
aS'G'
aS'T'
aS'T'
aS'C'
aS'G'
aS'A'
aS'G'
aS'C'
aS'T'
aS'G'
aS'C'
aS'A'
aS'C'
aS'A'
aS'T'
aS'C'
aS'A'
aS'C'
aS'C'
aS'G'
aS'A'
aS'T'
aS'G'
aS'C'
aS'C'
aS'C'
aS'A'
aS'G'
aS'C'
aS'C'
aS'T'
aS'G'
aS'C'
aS'C'
aS'T'
aS'T'
aS'C'
aS'A'
aS'C'
aS'T'
aS'G'
aS'G'
aS'C'
aS'A'
aS'G'
aS'C'
aS'T'
aS'A'
aS'C'
aS'C'
aS'G'
aS'T'
aS'T'
aS'G'
aS'T'
aS'G'
aS'A'
aS'G'
aS'G'
aS'T'
aS'G'
aS'T'
aS'C'
aS'C'
aS'A'
aS'C'
aS'C'
aS'A'
aS'A'
aS'G'
aS'G'
aS'A'
aS'C'
aS'A'
aS'A'
aS'A'
aS'T'
aS'T'
aS'T'
aS'G'
aS'A'
aS'C'
aS'T'
aS'G'
aS'C'
aS'T'
aS'C'
aS'C'
aS'A'
aS'A'
aS'C'
aS'T'
aS'T'
aS'C'
aS'A'
aS'A'
aS'T'
aS'C'
aS'T'
aS'C'
aS'A'
aS'C'
aS'T'
aS'G'
aS'T'
aS'C'
aS'C'
aS'A'
aS'C'
aS'G'
aS'G'
aS'T'
aS'G'
aS'A'
aS'G'
aS'G'
aS'G'
aS'G'
aS'G'
aS'C'
aS'C'
aS'C'
aS'T'
aS'G'
aS'G'
aS'T'
aS'G'
aS'T'
aS'C'
aS'T'
aS'G'
aS'T'
aS'C'
aS'C'
aS'T'
aS'G'
aS'G'
aS'G'
aS'C'
aS'T'
aS'C'
aS'G'
aS'G'
aS'G'
aS'C'
aS'T'
aS'C'
aS'C'
aS'C'
aS'C'
aS'A'
aS'T'
aS'G'
aS'G'
aS'G'
aS'T'
aS'C'
aS'C'
aS'T'
aS'G'
aS'G'
aS'T'
aS'C'
aS'T'
aS'C'
aS'C'
aS'T'
aS'A'
aS'C'
aS'C'
aS'T'
aS'C'
aS'C'
aS'T'
aS'T'
aS'T'
aS'T'
aS'C'
aS'C'
aS'C'
aS'A'
aS'A'
aS'C'
aS'A'
aS'C'
aS'T'
aS'A'
aS'A'
aS'G'
aS'G'
aS'A'
aS'G'
aS'G'
aS'A'
aS'T'
aS'G'
aS'C'
aS'C'
aS'T'
aS'C'
aS'G'
aS'T'
aS'C'
aS'C'
aS'C'
aS'A'
aS'T'
aS'C'
aS'C'
aS'A'
aS'G'
aS'A'
aS'C'
aS'A'
aS'T'
aS'G'
aS'A'
aS'G'
aS'T'
aS'G'
aS'C'
aS'T'
aS'G'
aS'G'
aS'C'
aS'C'
aS'A'
aS'C'
aS'G'
aS'T'
aS'G'
aS'C'
aS'C'
aS'C'
aS'A'
aS'G'
aS'T'
aS'G'
aS'C'
aS'T'
aS'G'
aS'C'
aS'A'
aS'C'
aS'A'
aS'C'
aS'A'
aS'C'
aS'A'
aS'G'
aS'G'
aS'G'
aS'T'
aS'G'
aS'T'
aS'G'
aS'A'
aS'G'
aS'A'
aS'G'
assI7
(dp101
g85
I9798
sg86
I48
sg87
I348
sg88
I9846
sg89
(lp102
S'G'
aS'G'
aS'G'
aS'A'
aS'A'
aS'G'
aS'G'
aS'T'
aS'G'
aS'A'
aS'G'
aS'A'
aS'T'
aS'C'
aS'C'
aS'T'
aS'G'
aS'G'
aS'G'
aS'G'
aS'C'
aS'A'
aS'G'
aS'A'
aS'T'
aS'G'
aS'C'
aS'C'
aS'C'
aS'A'
aS'G'
aS'C'
aS'C'
aS'T'
aS'C'
aS'A'
aS'T'
aS'G'
aS'G'
aS'G'
aS'G'
aS'T'
aS'C'
aS'A'
aS'T'
aS'G'
aS'A'
aS'A'
aS'T'
aS'G'
aS'G'
aS'G'
aS'C'
aS'A'
aS'A'
aS'G'
aS'T'
aS'C'
aS'T'
aS'G'
aS'T'
aS'G'
aS'A'
aS'A'
aS'T'
aS'A'
aS'C'
aS'T'
aS'C'
aS'A'
aS'G'
aS'A'
aS'G'
aS'G'
aS'C'
aS'C'
aS'G'
aS'C'
aS'C'
aS'C'
aS'C'
aS'C'
aS'A'
aS'G'
aS'G'
aS'G'
aS'C'
aS'A'
aS'G'
aS'G'
aS'G'
aS'C'
aS'T'
aS'T'
aS'C'
aS'T'
aS'C'
aS'A'
aS'A'
aS'A'
aS'C'
aS'G'
aS'G'
aS'C'
aS'C'
aS'C'
aS'C'
aS'C'
aS'T'
aS'C'
aS'T'
aS'G'
aS'A'
aS'A'
aS'G'
aS'C'
aS'C'
aS'C'
aS'C'
aS'T'
aS'T'
aS'C'
aS'C'
aS'C'
aS'C'
aS'C'
aS'A'
aS'T'
aS'C'
aS'T'
aS'C'
aS'T'
aS'C'
aS'C'
aS'A'
aS'C'
aS'C'
aS'C'
aS'T'
aS'T'
aS'T'
aS'G'
aS'A'
aS'A'
aS'C'
aS'C'
aS'C'
aS'A'
aS'G'
aS'A'
aS'G'
aS'G'
aS'C'
aS'C'
aS'A'
aS'T'
aS'G'
aS'G'
aS'G'
aS'C'
aS'A'
aS'C'
aS'C'
aS'G'
aS'G'
aS'A'
aS'G'
aS'A'
aS'C'
aS'C'
aS'T'
aS'A'
aS'G'
aS'A'
aS'C'
aS'C'
aS'T'
aS'C'
aS'C'
aS'T'
aS'A'
aS'T'
aS'C'
aS'A'
aS'G'
aS'C'
aS'C'
aS'T'
aS'T'
aS'C'
aS'C'
aS'G'
aS'C'
aS'C'
aS'G'
aS'C'
aS'A'
aS'C'
aS'G'
aS'T'
aS'G'
aS'A'
aS'G'
aS'T'
aS'G'
aS'G'
aS'C'
aS'C'
aS'A'
aS'T'
aS'C'
aS'C'
aS'T'
aS'C'
aS'A'
aS'G'
aS'G'
aS'G'
aS'C'
aS'C'
aS'T'
aS'G'
aS'G'
aS'G'
aS'G'
aS'G'
aS'A'
aS'G'
aS'G'
aS'C'
aS'C'
aS'A'
aS'G'
aS'T'
aS'G'
aS'C'
aS'T'
aS'G'
aS'G'
aS'A'
aS'G'
aS'T'
aS'C'
aS'T'
aS'G'
aS'A'
aS'G'
aS'G'
aS'C'
aS'C'
aS'C'
aS'T'
aS'T'
aS'C'
aS'A'
aS'G'
aS'G'
aS'G'
aS'T'
aS'C'
aS'T'
aS'C'
aS'G'
aS'A'
aS'C'
aS'T'
aS'G'
aS'G'
aS'G'
aS'G'
aS'G'
aS'T'
aS'C'
aS'A'
aS'G'
aS'G'
aS'G'
aS'C'
aS'T'
aS'G'
aS'G'
aS'G'
aS'G'
aS'A'
aS'T'
aS'G'
aS'A'
aS'T'
aS'T'
aS'T'
aS'G'
aS'C'
aS'G'
aS'G'
aS'G'
aS'G'
aS'C'
aS'G'
aS'G'
aS'A'
aS'G'
aS'C'
aS'T'
aS'G'
aS'A'
aS'A'
aS'G'
aS'T'
aS'C'
aS'A'
aS'G'
aS'T'
aS'G'
aS'G'
aS'G'
aS'G'
aS'G'
aS'C'
aS'T'
aS'G'
aS'C'
aS'A'
aS'G'
aS'G'
aS'G'
aS'G'
aS'A'
aS'G'
aS'A'
aS'G'
aS'C'
aS'A'
aS'A'
aS'G'
aS'C'
aS'T'
aS'T'
aS'C'
aS'C'
aS'C'
aS'A'
aS'G'
aS'G'
aS'C'
aS'A'
aS'G'
aS'G'
aS'T'
assI8
(dp103
g85
I10023
sg86
I29
sg87
I329
sg88
I10052
sg89
(lp104
S'G'
aS'A'
aS'G'
aS'G'
aS'C'
aS'C'
aS'A'
aS'G'
aS'T'
aS'G'
aS'C'
aS'T'
aS'G'
aS'G'
aS'A'
aS'G'
aS'T'
aS'C'
aS'T'
aS'G'
aS'A'
aS'G'
aS'G'
aS'C'
aS'C'
aS'C'
aS'T'
aS'T'
aS'C'
aS'A'
aS'G'
aS'G'
aS'G'
aS'T'
aS'C'
aS'T'
aS'C'
aS'G'
aS'A'
aS'C'
aS'T'
aS'G'
aS'G'
aS'G'
aS'G'
aS'G'
aS'T'
aS'C'
aS'A'
aS'G'
aS'G'
aS'G'
aS'C'
aS'T'
aS'G'
aS'G'
aS'G'
aS'G'
aS'A'
aS'T'
aS'G'
aS'A'
aS'T'
aS'T'
aS'T'
aS'G'
aS'C'
aS'G'
aS'G'
aS'G'
aS'G'
aS'C'
aS'G'
aS'G'
aS'A'
aS'G'
aS'C'
aS'T'
aS'G'
aS'A'
aS'A'
aS'G'
aS'T'
aS'C'
aS'A'
aS'G'
aS'T'
aS'G'
aS'G'
aS'G'
aS'G'
aS'G'
aS'C'
aS'T'
aS'G'
aS'C'
aS'A'
aS'G'
aS'G'
aS'G'
aS'G'
aS'A'
aS'G'
aS'A'
aS'G'
aS'C'
aS'A'
aS'A'
aS'G'
aS'C'
aS'T'
aS'T'
aS'C'
aS'C'
aS'C'
aS'A'
aS'G'
aS'G'
aS'C'
aS'A'
aS'G'
aS'G'
aS'T'
aS'G'
aS'A'
aS'G'
aS'G'
aS'A'
aS'T'
aS'A'
aS'C'
aS'T'
aS'G'
aS'A'
aS'G'
aS'T'
aS'C'
aS'T'
aS'A'
aS'A'
aS'C'
aS'C'
aS'C'
aS'C'
aS'C'
aS'A'
aS'C'
aS'A'
aS'G'
aS'G'
aS'A'
aS'G'
aS'C'
aS'C'
aS'T'
aS'G'
aS'G'
aS'C'
aS'T'
aS'G'
aS'G'
aS'A'
aS'G'
aS'G'
aS'T'
aS'G'
aS'G'
aS'T'
aS'T'
aS'G'
aS'G'
aS'C'
aS'G'
aS'G'
aS'A'
aS'T'
aS'C'
aS'A'
aS'G'
aS'G'
aS'T'
aS'A'
aS'C'
aS'C'
aS'C'
aS'C'
aS'T'
aS'G'
aS'C'
aS'C'
aS'C'
aS'C'
aS'A'
aS'G'
aS'G'
aS'C'
aS'C'
aS'C'
aS'T'
aS'A'
aS'C'
aS'C'
aS'T'
aS'G'
aS'C'
aS'A'
aS'C'
aS'C'
aS'A'
aS'T'
aS'C'
aS'C'
aS'G'
aS'C'
aS'A'
aS'G'
aS'A'
aS'C'
aS'C'
aS'C'
aS'C'
aS'C'
aS'A'
aS'G'
aS'G'
aS'G'
aS'G'
aS'T'
aS'C'
aS'T'
aS'G'
aS'A'
aS'G'
aS'A'
aS'C'
aS'G'
aS'G'
aS'G'
aS'T'
aS'G'
aS'G'
aS'G'
aS'A'
aS'G'
aS'C'
aS'C'
aS'C'
aS'A'
aS'A'
aS'T'
aS'C'
aS'T'
aS'G'
aS'G'
aS'C'
aS'T'
aS'A'
aS'G'
aS'T'
aS'G'
aS'T'
aS'C'
aS'C'
aS'C'
aS'T'
aS'T'
aS'T'
aS'C'
aS'T'
aS'C'
aS'C'
aS'C'
aS'T'
aS'C'
aS'C'
aS'C'
aS'C'
aS'A'
aS'C'
aS'T'
aS'C'
aS'C'
aS'A'
aS'C'
aS'T'
aS'C'
aS'C'
aS'C'
aS'A'
aS'T'
aS'C'
aS'C'
aS'T'
aS'G'
aS'C'
aS'T'
aS'C'
aS'C'
aS'T'
aS'A'
aS'A'
aS'T'
aS'C'
aS'C'
aS'C'
aS'T'
aS'T'
aS'T'
aS'C'
aS'C'
aS'A'
aS'G'
aS'T'
aS'C'
aS'C'
aS'C'
aS'T'
aS'C'
aS'A'
aS'C'
aS'T'
aS'G'
aS'C'
aS'A'
aS'G'
aS'C'
aS'C'
aS'T'
aS'C'
assI9
(dp105
g85
I10224
sg86
I53
sg87
I353
sg88
I10277
sg89
(lp106
S'C'
aS'T'
aS'G'
aS'C'
aS'A'
aS'C'
aS'C'
aS'A'
aS'T'
aS'C'
aS'C'
aS'G'
aS'C'
aS'A'
aS'G'
aS'A'
aS'C'
aS'C'
aS'C'
aS'C'
aS'C'
aS'A'
aS'G'
aS'G'
aS'G'
aS'G'
aS'T'
aS'C'
aS'T'
aS'G'
aS'A'
aS'G'
aS'A'
aS'C'
aS'G'
aS'G'
aS'G'
aS'T'
aS'G'
aS'G'
aS'G'
aS'A'
aS'G'
aS'C'
aS'C'
aS'C'
aS'A'
aS'A'
aS'T'
aS'C'
aS'T'
aS'G'
aS'G'
aS'C'
aS'T'
aS'A'
aS'G'
aS'T'
aS'G'
aS'T'
aS'C'
aS'C'
aS'C'
aS'T'
aS'T'
aS'T'
aS'C'
aS'T'
aS'C'
aS'C'
aS'C'
aS'T'
aS'C'
aS'C'
aS'C'
aS'C'
aS'A'
aS'C'
aS'T'
aS'C'
aS'C'
aS'A'
aS'C'
aS'T'
aS'C'
aS'C'
aS'C'
aS'A'
aS'T'
aS'C'
aS'C'
aS'T'
aS'G'
aS'C'
aS'T'
aS'C'
aS'C'
aS'T'
aS'A'
aS'A'
aS'T'
aS'C'
aS'C'
aS'C'
aS'T'
aS'T'
aS'T'
aS'C'
aS'C'
aS'A'
aS'G'
aS'T'
aS'C'
aS'C'
aS'C'
aS'T'
aS'C'
aS'A'
aS'C'
aS'T'
aS'G'
aS'C'
aS'A'
aS'G'
aS'C'
aS'C'
aS'T'
aS'C'
aS'A'
aS'C'
aS'T'
aS'G'
aS'G'
aS'G'
aS'G'
aS'G'
aS'T'
aS'C'
aS'C'
aS'C'
aS'T'
aS'C'
aS'T'
aS'C'
aS'C'
aS'A'
aS'T'
aS'A'
aS'G'
aS'T'
aS'G'
aS'A'
aS'T'
aS'A'
aS'G'
aS'C'
aS'C'
aS'A'
aS'T'
aS'G'
aS'A'
aS'G'
aS'G'
aS'A'
aS'C'
aS'A'
aS'C'
aS'T'
aS'G'
aS'G'
aS'G'
aS'A'
aS'T'
aS'T'
aS'C'
aS'T'
aS'G'
aS'G'
aS'A'
aS'C'
aS'T'
aS'T'
aS'C'
aS'A'
aS'G'
aS'C'
aS'T'
aS'T'
aS'A'
aS'C'
aS'T'
aS'G'
aS'C'
aS'T'
aS'G'
aS'A'
aS'A'
aS'A'
aS'A'
aS'A'
aS'G'
aS'A'
aS'G'
aS'G'
aS'T'
aS'G'
aS'A'
aS'G'
aS'T'
aS'C'
aS'C'
aS'T'
aS'G'
aS'G'
aS'G'
aS'T'
aS'G'
aS'G'
aS'C'
aS'A'
aS'G'
aS'T'
aS'T'
aS'C'
aS'C'
aS'T'
aS'G'
aS'G'
aS'G'
aS'G'
aS'C'
aS'A'
aS'G'
aS'C'
aS'T'
aS'G'
aS'G'
aS'T'
aS'G'
aS'A'
aS'G'
aS'G'
aS'C'
aS'C'
aS'T'
aS'G'
aS'G'
aS'C'
aS'T'
aS'C'
aS'C'
aS'A'
aS'A'
aS'A'
aS'T'
aS'C'
aS'C'
aS'C'
aS'A'
aS'G'
aS'C'
aS'A'
aS'C'
aS'T'
aS'G'
aS'T'
aS'G'
aS'G'
aS'T'
aS'T'
aS'T'
aS'G'
aS'C'
aS'C'
aS'A'
aS'G'
aS'C'
aS'T'
aS'G'
aS'T'
aS'G'
aS'T'
aS'G'
aS'A'
aS'C'
aS'C'
aS'C'
aS'T'
aS'G'
aS'A'
aS'G'
aS'C'
aS'A'
aS'C'
aS'A'
aS'A'
aS'C'
aS'A'
aS'C'
aS'T'
aS'G'
aS'C'
aS'A'
aS'C'
aS'C'
aS'T'
aS'C'
aS'T'
aS'C'
aS'T'
aS'G'
aS'A'
aS'G'
aS'T'
aS'T'
aS'G'
aS'G'
aS'T'
aS'T'
aS'T'
aS'C'
aS'C'
aS'T'
aS'T'
aS'G'
aS'T'
aS'C'
aS'T'
aS'G'
aS'T'
aS'C'
aS'G'
aS'A'
aS'G'
aS'G'
aS'G'
aS'G'
aS'A'
aS'T'
aS'G'
aS'A'
aS'T'
aS'C'
aS'C'
aS'C'
aS'A'
aS'G'
aS'T'
aS'G'
aS'T'
aS'G'
aS'G'
aS'A'
assI10
(dp107
g85
I10674
sg86
I2
sg87
I302
sg88
I10676
sg89
(lp108
S'C'
aS'C'
aS'G'
aS'T'
aS'A'
aS'A'
aS'A'
aS'C'
aS'T'
aS'C'
aS'C'
aS'G'
aS'G'
aS'G'
aS'G'
aS'A'
aS'C'
aS'C'
aS'C'
aS'A'
aS'G'
aS'A'
aS'A'
aS'G'
aS'G'
aS'A'
aS'A'
aS'C'
aS'A'
aS'G'
aS'A'
aS'G'
aS'A'
aS'G'
aS'A'
aS'G'
aS'G'
aS'G'
aS'T'
aS'C'
aS'C'
aS'C'
aS'C'
aS'A'
aS'G'
aS'A'
aS'G'
aS'C'
aS'T'
aS'G'
aS'C'
aS'A'
aS'G'
aS'G'
aS'G'
aS'T'
aS'C'
aS'T'
aS'A'
aS'C'
aS'C'
aS'A'
aS'G'
aS'G'
aS'T'
aS'C'
aS'G'
aS'G'
aS'C'
aS'C'
aS'C'
aS'A'
aS'A'
aS'C'
aS'T'
aS'G'
aS'A'
aS'C'
aS'T'
aS'T'
aS'A'
aS'T'
aS'G'
aS'T'
aS'T'
aS'C'
aS'T'
aS'C'
aS'T'
aS'C'
aS'T'
aS'G'
aS'C'
aS'C'
aS'C'
aS'T'
aS'C'
aS'T'
aS'C'
aS'T'
aS'C'
aS'T'
aS'C'
aS'C'
aS'C'
aS'T'
aS'C'
aS'T'
aS'C'
aS'C'
aS'C'
aS'C'
aS'C'
aS'G'
aS'G'
aS'C'
aS'C'
aS'C'
aS'C'
aS'T'
aS'C'
aS'C'
aS'A'
aS'T'
aS'T'
aS'A'
aS'T'
aS'G'
aS'G'
aS'C'
aS'T'
aS'G'
aS'C'
aS'T'
aS'G'
aS'C'
aS'T'
aS'G'
aS'C'
aS'T'
aS'G'
aS'T'
aS'G'
aS'G'
aS'C'
aS'C'
aS'C'
aS'A'
aS'G'
aS'C'
aS'G'
aS'A'
aS'G'
aS'T'
aS'A'
aS'A'
aS'G'
aS'A'
aS'A'
aS'T'
aS'C'
aS'G'
aS'G'
aS'G'
aS'G'
aS'T'
aS'C'
aS'T'
aS'G'
aS'G'
aS'G'
aS'T'
aS'G'
aS'T'
aS'T'
aS'T'
aS'G'
aS'G'
aS'G'
aS'G'
aS'G'
aS'C'
aS'G'
aS'G'
aS'C'
aS'A'
aS'G'
aS'G'
aS'G'
aS'C'
aS'G'
aS'C'
aS'T'
aS'G'
aS'G'
aS'T'
aS'G'
aS'G'
aS'G'
aS'T'
aS'G'
aS'C'
aS'A'
aS'G'
aS'A'
aS'G'
aS'G'
aS'G'
aS'G'
aS'A'
aS'T'
aS'T'
aS'C'
aS'C'
aS'C'
aS'G'
aS'T'
aS'C'
aS'C'
aS'C'
aS'C'
aS'T'
aS'C'
aS'T'
aS'C'
aS'T'
aS'G'
aS'A'
aS'G'
aS'A'
aS'G'
aS'G'
aS'C'
aS'T'
aS'G'
aS'T'
aS'G'
aS'G'
aS'T'
aS'G'
aS'A'
aS'G'
aS'A'
aS'G'
aS'A'
aS'C'
aS'T'
aS'C'
aS'A'
aS'G'
aS'A'
aS'G'
aS'C'
aS'A'
aS'G'
aS'G'
aS'G'
aS'T'
aS'G'
aS'C'
aS'G'
aS'G'
aS'C'
aS'T'
aS'C'
aS'C'
aS'C'
aS'C'
aS'A'
aS'C'
aS'G'
aS'G'
aS'A'
aS'C'
aS'A'
aS'G'
aS'G'
aS'G'
aS'G'
aS'T'
aS'G'
aS'A'
aS'G'
aS'T'
aS'C'
aS'T'
aS'C'
aS'T'
aS'G'
aS'T'
aS'G'
aS'C'
aS'C'
aS'T'
aS'T'
aS'G'
aS'G'
aS'G'
aS'C'
aS'T'
aS'T'
aS'C'
assI11
(dp109
g85
I11059
sg86
I17
sg87
I317
sg88
I11076
sg89
(lp110
S'C'
aS'A'
aS'G'
aS'C'
aS'A'
aS'T'
aS'G'
aS'G'
aS'G'
aS'T'
aS'G'
aS'C'
aS'C'
aS'C'
aS'C'
aS'A'
aS'C'
aS'A'
aS'A'
aS'C'
aS'A'
aS'C'
aS'A'
aS'G'
aS'G'
aS'G'
aS'A'
aS'G'
aS'T'
aS'G'
aS'C'
aS'A'
aS'A'
aS'G'
aS'T'
aS'G'
aS'C'
aS'G'
aS'G'
aS'A'
aS'A'
aS'A'
aS'A'
aS'T'
aS'A'
aS'G'
aS'G'
aS'G'
aS'A'
aS'G'
aS'G'
aS'A'
aS'A'
aS'G'
aS'T'
aS'A'
aS'A'
aS'A'
aS'G'
aS'G'
aS'C'
aS'C'
aS'C'
aS'A'
aS'T'
aS'G'
aS'G'
aS'G'
aS'T'
aS'G'
aS'G'
aS'G'
aS'G'
aS'T'
aS'C'
aS'C'
aS'A'
aS'G'
aS'G'
aS'T'
aS'C'
aS'T'
aS'T'
aS'T'
aS'G'
aS'A'
aS'G'
aS'G'
aS'G'
aS'A'
aS'A'
aS'G'
aS'G'
aS'T'
aS'G'
aS'G'
aS'C'
aS'C'
aS'A'
aS'T'
aS'A'
aS'C'
aS'C'
aS'T'
aS'C'
aS'T'
aS'C'
aS'A'
aS'T'
aS'G'
aS'T'
aS'G'
aS'C'
aS'C'
aS'A'
aS'C'
aS'C'
aS'T'
aS'A'
aS'C'
aS'C'
aS'C'
aS'T'
aS'T'
aS'T'
aS'C'
aS'T'
aS'C'
aS'C'
aS'C'
aS'A'
aS'C'
aS'C'
aS'C'
aS'C'
aS'C'
aS'A'
aS'C'
aS'C'
aS'C'
aS'C'
aS'T'
aS'G'
aS'G'
aS'A'
aS'G'
aS'C'
aS'A'
aS'G'
aS'C'
aS'A'
aS'G'
aS'T'
aS'T'
aS'T'
aS'C'
aS'C'
aS'G'
aS'T'
aS'A'
aS'C'
aS'C'
aS'C'
aS'C'
aS'G'
aS'A'
aS'G'
aS'G'
aS'T'
aS'G'
aS'A'
aS'G'
aS'T'
aS'G'
aS'C'
aS'C'
aS'C'
aS'A'
aS'A'
aS'C'
aS'A'
aS'T'
aS'A'
aS'G'
aS'C'
aS'A'
aS'C'
aS'A'
aS'G'
aS'C'
aS'A'
aS'C'
aS'C'
aS'C'
aS'T'
aS'C'
aS'A'
aS'T'
aS'C'
aS'A'
aS'C'
aS'C'
aS'C'
aS'C'
aS'T'
aS'A'
aS'A'
aS'T'
aS'T'
aS'C'
aS'T'
aS'G'
aS'C'
aS'C'
aS'A'
aS'G'
aS'G'
aS'A'
aS'G'
aS'C'
aS'C'
aS'C'
aS'C'
aS'T'
aS'C'
aS'C'
aS'A'
aS'G'
aS'A'
aS'T'
aS'C'
aS'C'
aS'C'
aS'C'
aS'A'
aS'G'
aS'C'
aS'C'
aS'C'
aS'C'
aS'T'
aS'C'
aS'T'
aS'T'
aS'C'
aS'A'
aS'G'
aS'C'
aS'T'
aS'C'
aS'C'
aS'C'
aS'T'
aS'T'
aS'G'
aS'G'
aS'C'
aS'C'
aS'C'
aS'C'
aS'C'
aS'A'
aS'G'
aS'T'
aS'C'
aS'C'
aS'T'
aS'G'
aS'C'
aS'C'
aS'T'
aS'G'
aS'G'
aS'C'
aS'C'
aS'T'
aS'G'
aS'G'
aS'G'
aS'A'
aS'C'
aS'C'
aS'C'
aS'A'
aS'G'
aS'A'
aS'G'
aS'C'
aS'A'
aS'G'
aS'C'
aS'T'
aS'C'
aS'C'
aS'A'
aS'G'
aS'C'
aS'T'
aS'G'
aS'C'
aS'C'
aS'C'
aS'C'
aS'A'
aS'C'
aS'C'
aS'A'
aS'G'
aS'A'
aS'A'
aS'G'
aS'G'
aS'G'
aS'A'
aS'A'
aS'G'
aS'G'
assI12
(dp111
g85
I11333
sg86
I163
sg87
I463
sg88
I11496
sg89
(lp112
S'C'
aS'T'
aS'G'
aS'G'
aS'G'
aS'A'
aS'C'
aS'C'
aS'C'
aS'A'
aS'G'
aS'A'
aS'G'
aS'C'
aS'A'
aS'G'
aS'C'
aS'T'
aS'C'
aS'C'
aS'A'
aS'G'
aS'C'
aS'T'
aS'G'
aS'C'
aS'C'
aS'C'
aS'C'
aS'A'
aS'C'
aS'C'
aS'A'
aS'G'
aS'A'
aS'A'
aS'G'
aS'G'
aS'G'
aS'A'
aS'A'
aS'G'
aS'G'
aS'G'
aS'G'
aS'C'
aS'A'
aS'G'
aS'A'
aS'G'
aS'G'
aS'G'
aS'A'
aS'C'
aS'A'
aS'G'
aS'G'
aS'G'
aS'G'
aS'T'
aS'G'
aS'G'
aS'C'
aS'T'
aS'A'
aS'C'
aS'A'
aS'G'
aS'C'
aS'T'
aS'C'
aS'C'
aS'T'
aS'T'
aS'G'
aS'G'
aS'T'
aS'C'
aS'C'
aS'T'
aS'G'
aS'G'
aS'G'
aS'C'
aS'C'
aS'C'
aS'A'
aS'G'
aS'G'
aS'A'
aS'A'
aS'G'
aS'C'
aS'C'
aS'C'
aS'C'
aS'G'
aS'C'
aS'C'
aS'C'
aS'A'
aS'G'
aS'G'
aS'G'
aS'G'
aS'G'
aS'C'
aS'T'
aS'G'
aS'C'
aS'A'
aS'G'
aS'T'
aS'C'
aS'T'
aS'T'
aS'G'
aS'C'
aS'C'
aS'C'
aS'C'
aS'C'
aS'G'
aS'G'
aS'C'
aS'C'
aS'A'
aS'C'
aS'A'
aS'G'
aS'C'
aS'C'
aS'T'
aS'A'
aS'G'
aS'A'
aS'C'
aS'T'
aS'G'
aS'C'
aS'G'
aS'G'
aS'G'
aS'A'
aS'C'
aS'A'
aS'C'
aS'A'
aS'G'
aS'G'
aS'G'
aS'A'
aS'C'
aS'T'
aS'C'
aS'G'
aS'A'
aS'A'
aS'G'
aS'C'
aS'T'
aS'G'
aS'G'
aS'A'
aS'G'
aS'G'
aS'C'
aS'A'
aS'C'
aS'C'
aS'A'
aS'G'
aS'C'
aS'A'
aS'G'
aS'A'
aS'G'
aS'G'
aS'A'
aS'G'
aS'G'
aS'A'
aS'C'
aS'G'
aS'T'
aS'G'
aS'T'
aS'G'
aS'G'
aS'G'
aS'A'
aS'G'
aS'A'
aS'T'
aS'C'
aS'C'
aS'T'
aS'A'
aS'C'
aS'G'
aS'G'
aS'C'
aS'A'
aS'G'
aS'G'
aS'C'
aS'A'
aS'C'
aS'C'
aS'C'
aS'C'
aS'C'
aS'A'
aS'T'
aS'C'
aS'T'
aS'G'
aS'A'
aS'G'
aS'T'
aS'A'
aS'C'
aS'G'
aS'A'
aS'G'
aS'C'
aS'G'
aS'C'
aS'A'
aS'T'
aS'C'
aS'G'
aS'C'
aS'C'
aS'T'
aS'T'
aS'C'
aS'C'
aS'A'
aS'G'
aS'T'
aS'A'
aS'C'
aS'A'
aS'G'
aS'C'
aS'G'
aS'T'
aS'C'
aS'A'
aS'C'
aS'T'
aS'G'
aS'A'
aS'C'
aS'C'
aS'T'
aS'G'
aS'C'
aS'G'
aS'C'
aS'G'
aS'G'
aS'C'
aS'A'
aS'T'
aS'G'
aS'C'
aS'T'
aS'A'
aS'A'
aS'A'
aS'G'
aS'A'
aS'G'
aS'G'
aS'C'
aS'T'
aS'C'
aS'A'
aS'A'
aS'G'
aS'G'
aS'G'
aS'C'
aS'A'
aS'T'
aS'G'
aS'A'
aS'G'
aS'G'
aS'C'
aS'G'
aS'C'
aS'G'
aS'A'
aS'T'
aS'G'
aS'A'
aS'G'
aS'A'
aS'A'
aS'G'
aS'A'
aS'A'
aS'G'
aS'A'
aS'G'
aS'C'
aS'A'
aS'C'
aS'A'
aS'G'
aS'G'
aS'T'
aS'T'
aS'A'
aS'G'
aS'C'
aS'C'
aS'C'
aS'T'
aS'T'
aS'C'
aS'C'
aS'T'
aS'C'
aS'A'
aS'G'
aS'A'
aS'G'
aS'G'
aS'G'
aS'G'
aS'A'
aS'G'
aS'A'
aS'G'
aS'G'
aS'A'
aS'G'
aS'A'
aS'G'
aS'G'
aS'G'
aS'C'
aS'A'
aS'C'
aS'A'
aS'G'
aS'G'
aS'C'
aS'T'
aS'A'
aS'G'
aS'C'
aS'C'
aS'C'
aS'T'
aS'T'
aS'C'
aS'C'
aS'C'
aS'T'
aS'A'
aS'C'
aS'A'
aS'C'
aS'A'
aS'G'
aS'G'
aS'A'
aS'G'
aS'A'
aS'G'
aS'G'
aS'A'
aS'G'
aS'A'
aS'G'
aS'G'
aS'G'
aS'C'
aS'A'
aS'T'
aS'A'
aS'G'
aS'G'
aS'T'
aS'T'
aS'A'
aS'G'
aS'C'
aS'C'
aS'C'
aS'T'
aS'T'
aS'C'
aS'C'
aS'C'
aS'C'
aS'A'
aS'C'
aS'A'
aS'G'
aS'G'
aS'G'
aS'G'
aS'A'
aS'G'
aS'A'
aS'G'
aS'G'
aS'A'
aS'G'
aS'A'
aS'G'
aS'G'
aS'G'
aS'C'
aS'A'
aS'C'
aS'A'
aS'G'
aS'G'
aS'T'
aS'T'
aS'A'
aS'G'
aS'C'
aS'C'
aS'C'
aS'C'
aS'C'
aS'C'
aS'A'
aS'C'
aS'C'
aS'T'
aS'C'
aS'G'
aS'T'
aS'C'
aS'C'
aS'A'
aS'C'
aS'A'
aS'T'
aS'A'
aS'C'
aS'A'
aS'T'
aS'G'
aS'G'
aS'A'
aS'A'
aS'A'
aS'G'
aS'A'
aS'G'
aS'C'
aS'G'
aS'G'
assI13
(dp113
g85
I14079
sg86
I132
sg87
I432
sg88
I14211
sg89
(lp114
S'A'
aS'A'
aS'A'
aS'G'
aS'A'
aS'A'
aS'A'
aS'T'
aS'A'
aS'G'
aS'A'
aS'G'
aS'A'
aS'C'
aS'A'
aS'C'
aS'A'
aS'G'
aS'A'
aS'G'
aS'A'
aS'A'
aS'G'
aS'T'
aS'G'
aS'G'
aS'A'
aS'A'
aS'G'
aS'C'
aS'G'
aS'G'
aS'G'
aS'G'
aS'C'
aS'G'
aS'G'
aS'C'
aS'A'
aS'C'
aS'A'
aS'G'
aS'A'
aS'G'
aS'G'
aS'G'
aS'G'
aS'A'
aS'T'
aS'T'
aS'G'
aS'G'
aS'A'
aS'G'
aS'G'
aS'G'
aS'G'
aS'G'
aS'G'
aS'G'
aS'A'
aS'C'
aS'C'
aS'T'
aS'G'
aS'G'
aS'G'
aS'C'
aS'C'
aS'C'
aS'C'
aS'A'
aS'G'
aS'C'
aS'C'
aS'A'
aS'C'
aS'A'
aS'G'
aS'C'
aS'C'
aS'A'
aS'C'
aS'A'
aS'G'
aS'T'
aS'A'
aS'G'
aS'C'
aS'T'
aS'T'
aS'G'
aS'G'
aS'C'
aS'C'
aS'T'
aS'G'
aS'G'
aS'G'
aS'G'
aS'G'
aS'A'
aS'G'
aS'C'
aS'A'
aS'G'
aS'G'
aS'G'
aS'T'
aS'G'
aS'C'
aS'G'
aS'G'
aS'G'
aS'C'
aS'G'
aS'G'
aS'T'
aS'G'
aS'G'
aS'G'
aS'G'
aS'T'
aS'G'
aS'G'
aS'C'
aS'C'
aS'G'
aS'G'
aS'G'
aS'G'
aS'C'
aS'T'
aS'G'
aS'A'
aS'G'
aS'G'
aS'G'
aS'G'
aS'T'
aS'G'
aS'G'
aS'T'
aS'G'
aS'C'
aS'T'
aS'C'
aS'A'
aS'G'
aS'C'
aS'C'
aS'T'
aS'T'
aS'T'
aS'C'
aS'A'
aS'G'
aS'A'
aS'A'
aS'G'
aS'A'
aS'A'
aS'G'
aS'C'
aS'T'
aS'G'
aS'G'
aS'A'
aS'G'
aS'C'
aS'C'
aS'G'
aS'G'
aS'C'
aS'C'
aS'T'
aS'A'
aS'C'
aS'C'
aS'A'
aS'G'
aS'G'
aS'T'
aS'G'
aS'A'
aS'G'
aS'C'
aS'A'
aS'A'
aS'A'
aS'G'
aS'G'
aS'C'
aS'C'
aS'A'
aS'C'
aS'A'
aS'A'
aS'G'
aS'A'
aS'T'
aS'C'
aS'C'
aS'G'
aS'G'
aS'C'
aS'T'
aS'G'
aS'A'
aS'C'
aS'C'
aS'G'
aS'T'
aS'G'
aS'G'
aS'A'
aS'A'
aS'C'
aS'T'
aS'G'
aS'G'
aS'C'
aS'T'
aS'G'
aS'A'
aS'C'
aS'C'
aS'A'
aS'T'
aS'G'
aS'A'
aS'C'
aS'G'
aS'C'
aS'T'
aS'G'
aS'A'
aS'G'
aS'G'
aS'T'
aS'C'
aS'A'
aS'A'
aS'A'
aS'T'
aS'G'
aS'A'
aS'C'
aS'T'
aS'C'
aS'A'
aS'A'
aS'G'
aS'A'
aS'A'
aS'T'
aS'G'
aS'G'
aS'C'
aS'C'
aS'A'
aS'G'
aS'G'
aS'A'
aS'G'
aS'A'
aS'T'
aS'C'
aS'C'
aS'A'
aS'G'
aS'A'
aS'T'
aS'G'
aS'A'
aS'G'
aS'C'
aS'G'
aS'G'
aS'C'
aS'A'
aS'G'
aS'G'
aS'T'
aS'G'
aS'C'
aS'A'
aS'G'
aS'C'
aS'C'
aS'T'
aS'G'
aS'G'
aS'G'
aS'G'
aS'T'
aS'G'
aS'G'
aS'G'
aS'G'
aS'A'
aS'G'
aS'G'
aS'G'
aS'G'
aS'G'
aS'G'
aS'C'
aS'T'
aS'C'
aS'G'
aS'G'
aS'G'
aS'T'
aS'G'
aS'G'
aS'A'
aS'G'
aS'G'
aS'T'
aS'G'
aS'G'
aS'G'
aS'G'
aS'A'
aS'C'
aS'C'
aS'C'
aS'C'
aS'C'
aS'A'
aS'T'
aS'A'
aS'G'
aS'C'
aS'C'
aS'T'
aS'T'
aS'G'
aS'C'
aS'C'
aS'T'
aS'C'
aS'C'
aS'T'
aS'G'
aS'C'
aS'C'
aS'C'
aS'C'
aS'T'
aS'C'
aS'T'
aS'C'
aS'C'
aS'A'
aS'C'
aS'A'
aS'T'
aS'G'
aS'C'
aS'G'
aS'T'
aS'A'
aS'T'
aS'C'
aS'T'
aS'C'
aS'T'
aS'G'
aS'A'
aS'C'
aS'T'
aS'C'
aS'G'
aS'G'
aS'T'
aS'G'
aS'T'
aS'G'
aS'G'
aS'C'
aS'T'
aS'C'
aS'T'
aS'C'
aS'A'
aS'G'
aS'C'
aS'C'
aS'C'
aS'C'
aS'A'
aS'T'
aS'C'
aS'T'
aS'C'
aS'T'
aS'C'
aS'T'
aS'G'
aS'G'
aS'G'
aS'C'
aS'C'
aS'T'
aS'A'
aS'A'
aS'T'
aS'T'
aS'T'
aS'C'
aS'C'
aS'C'
aS'A'
aS'T'
aS'C'
aS'C'
aS'T'
aS'T'
aS'T'
aS'T'
aS'G'
aS'C'
aS'T'
aS'C'
aS'C'
aS'T'
aS'G'
aS'C'
aS'C'
aS'G'
assI14
(dp115
g85
I14441
sg86
I2
sg87
I302
sg88
I14443
sg89
(lp116
S'T'
aS'A'
aS'T'
aS'C'
aS'T'
aS'C'
aS'T'
aS'G'
aS'A'
aS'C'
aS'T'
aS'C'
aS'G'
aS'G'
aS'T'
aS'G'
aS'T'
aS'G'
aS'G'
aS'C'
aS'T'
aS'C'
aS'T'
aS'C'
aS'A'
aS'G'
aS'C'
aS'C'
aS'C'
aS'C'
aS'A'
aS'T'
aS'C'
aS'T'
aS'C'
aS'T'
aS'C'
aS'T'
aS'G'
aS'G'
aS'G'
aS'C'
aS'C'
aS'T'
aS'A'
aS'A'
aS'T'
aS'T'
aS'T'
aS'C'
aS'C'
aS'C'
aS'A'
aS'T'
aS'C'
aS'C'
aS'T'
aS'T'
aS'T'
aS'T'
aS'G'
aS'C'
aS'T'
aS'C'
aS'C'
aS'T'
aS'G'
aS'C'
aS'C'
aS'G'
aS'G'
aS'T'
aS'C'
aS'C'
aS'C'
aS'T'
aS'C'
aS'T'
aS'C'
aS'T'
aS'C'
aS'T'
aS'C'
aS'T'
aS'C'
aS'T'
aS'C'
aS'C'
aS'T'
aS'T'
aS'T'
aS'T'
aS'G'
aS'T'
aS'C'
aS'T'
aS'C'
aS'G'
aS'G'
aS'G'
aS'C'
aS'T'
aS'C'
aS'A'
aS'C'
aS'T'
aS'T'
aS'C'
aS'C'
aS'T'
aS'C'
aS'C'
aS'C'
aS'G'
aS'T'
aS'C'
aS'G'
aS'G'
aS'G'
aS'A'
aS'A'
aS'C'
aS'A'
aS'C'
aS'T'
aS'T'
aS'C'
aS'A'
aS'A'
aS'C'
aS'G'
aS'G'
aS'C'
aS'C'
aS'C'
aS'C'
aS'T'
aS'T'
aS'C'
aS'T'
aS'G'
aS'T'
aS'T'
aS'C'
aS'T'
aS'A'
aS'C'
aS'A'
aS'G'
aS'G'
aS'A'
aS'A'
aS'G'
aS'T'
aS'A'
aS'A'
aS'G'
aS'T'
aS'T'
aS'C'
aS'C'
aS'C'
aS'C'
aS'T'
aS'C'
aS'T'
aS'G'
aS'G'
aS'A'
aS'T'
aS'G'
aS'G'
aS'C'
aS'T'
aS'T'
aS'G'
aS'G'
aS'G'
aS'G'
aS'T'
aS'G'
aS'G'
aS'G'
aS'G'
aS'G'
aS'G'
aS'C'
aS'A'
aS'C'
aS'A'
aS'G'
aS'G'
aS'G'
aS'A'
aS'T'
aS'T'
aS'A'
aS'T'
aS'C'
aS'A'
aS'T'
aS'G'
aS'G'
aS'G'
aS'G'
aS'C'
aS'G'
aS'C'
aS'A'
aS'C'
aS'T'
aS'G'
aS'G'
aS'G'
aS'C'
aS'C'
aS'C'
aS'G'
aS'G'
aS'A'
aS'G'
aS'G'
aS'G'
aS'G'
aS'T'
aS'G'
aS'T'
aS'C'
aS'C'
aS'G'
aS'C'
aS'A'
aS'G'
aS'C'
aS'T'
aS'T'
aS'T'
aS'C'
aS'C'
aS'T'
aS'G'
aS'C'
aS'C'
aS'A'
aS'C'
aS'T'
aS'T'
aS'C'
aS'C'
aS'C'
aS'T'
aS'G'
aS'C'
aS'G'
aS'G'
aS'C'
aS'C'
aS'C'
aS'C'
aS'C'
aS'A'
aS'C'
aS'C'
aS'C'
aS'A'
aS'G'
aS'G'
aS'T'
aS'A'
aS'C'
aS'A'
aS'T'
aS'C'
aS'T'
aS'T'
aS'T'
aS'G'
aS'A'
aS'G'
aS'T'
aS'C'
aS'C'
aS'A'
aS'T'
aS'C'
aS'G'
aS'G'
aS'T'
aS'G'
aS'C'
aS'C'
aS'A'
aS'A'
aS'G'
aS'C'
aS'G'
aS'T'
aS'A'
aS'C'
aS'C'
aS'C'
aS'T'
assI15
(dp117
g85
I14558
sg86
I124
sg87
I424
sg88
I14682
sg89
(lp118
S'G'
aS'G'
aS'A'
aS'A'
aS'C'
aS'A'
aS'C'
aS'T'
aS'T'
aS'C'
aS'A'
aS'A'
aS'C'
aS'G'
aS'G'
aS'C'
aS'C'
aS'C'
aS'C'
aS'T'
aS'T'
aS'C'
aS'T'
aS'G'
aS'T'
aS'T'
aS'C'
aS'T'
aS'A'
aS'C'
aS'A'
aS'G'
aS'G'
aS'A'
aS'A'
aS'G'
aS'T'
aS'A'
aS'A'
aS'G'
aS'T'
aS'T'
aS'C'
aS'C'
aS'C'
aS'C'
aS'T'
aS'C'
aS'T'
aS'G'
aS'G'
aS'A'
aS'T'
aS'G'
aS'G'
aS'C'
aS'T'
aS'T'
aS'G'
aS'G'
aS'G'
aS'G'
aS'T'
aS'G'
aS'G'
aS'G'
aS'G'
aS'G'
aS'G'
aS'C'
aS'A'
aS'C'
aS'A'
aS'G'
aS'G'
aS'G'
aS'A'
aS'T'
aS'T'
aS'A'
aS'T'
aS'C'
aS'A'
aS'T'
aS'G'
aS'G'
aS'G'
aS'G'
aS'C'
aS'G'
aS'C'
aS'A'
aS'C'
aS'T'
aS'G'
aS'G'
aS'G'
aS'C'
aS'C'
aS'C'
aS'G'
aS'G'
aS'A'
aS'G'
aS'G'
aS'G'
aS'G'
aS'T'
aS'G'
aS'T'
aS'C'
aS'C'
aS'G'
aS'C'
aS'A'
aS'G'
aS'C'
aS'T'
aS'T'
aS'T'
aS'C'
aS'C'
aS'T'
aS'G'
aS'C'
aS'C'
aS'A'
aS'C'
aS'T'
aS'T'
aS'C'
aS'C'
aS'C'
aS'T'
aS'G'
aS'C'
aS'G'
aS'G'
aS'C'
aS'C'
aS'C'
aS'C'
aS'C'
aS'A'
aS'C'
aS'C'
aS'C'
aS'A'
aS'G'
aS'G'
aS'T'
aS'A'
aS'C'
aS'A'
aS'T'
aS'C'
aS'T'
aS'T'
aS'T'
aS'G'
aS'A'
aS'G'
aS'T'
aS'C'
aS'C'
aS'A'
aS'T'
aS'C'
aS'G'
aS'G'
aS'T'
aS'G'
aS'C'
aS'C'
aS'A'
aS'A'
aS'G'
aS'C'
aS'G'
aS'T'
aS'A'
aS'C'
aS'C'
aS'C'
aS'T'
aS'G'
aS'A'
aS'C'
aS'C'
aS'A'
aS'T'
aS'C'
aS'A'
aS'G'
aS'C'
aS'C'
aS'A'
aS'G'
aS'T'
aS'G'
aS'C'
aS'T'
aS'C'
aS'A'
aS'T'
aS'T'
aS'G'
aS'G'
aS'C'
aS'G'
aS'G'
aS'A'
aS'C'
aS'G'
aS'A'
aS'C'
aS'G'
aS'C'
aS'A'
aS'G'
aS'T'
aS'C'
aS'T'
aS'A'
aS'C'
aS'C'
aS'A'
aS'G'
aS'T'
aS'G'
aS'C'
aS'G'
aS'T'
aS'G'
aS'G'
aS'T'
aS'G'
aS'G'
aS'G'
aS'T'
aS'G'
aS'G'
aS'C'
aS'G'
aS'A'
aS'G'
aS'A'
aS'A'
aS'G'
aS'T'
aS'G'
aS'T'
aS'A'
aS'G'
aS'C'
aS'A'
aS'C'
aS'G'
aS'G'
aS'A'
aS'G'
aS'C'
aS'T'
aS'C'
aS'T'
aS'T'
aS'T'
aS'G'
aS'T'
aS'G'
aS'A'
aS'A'
aS'A'
aS'G'
aS'G'
aS'T'
aS'G'
aS'G'
aS'G'
aS'C'
aS'C'
aS'T'
aS'G'
aS'G'
aS'G'
aS'A'
aS'C'
aS'C'
aS'T'
aS'G'
aS'A'
aS'G'
aS'G'
aS'A'
aS'T'
aS'G'
aS'T'
aS'G'
aS'G'
aS'G'
aS'A'
aS'A'
aS'C'
aS'C'
aS'T'
aS'G'
aS'G'
aS'G'
aS'G'
aS'A'
aS'G'
aS'G'
aS'A'
aS'G'
aS'A'
aS'T'
aS'G'
aS'G'
aS'C'
aS'C'
aS'T'
aS'C'
aS'A'
aS'G'
aS'G'
aS'G'
aS'G'
aS'A'
aS'G'
aS'C'
aS'C'
aS'A'
aS'A'
aS'C'
aS'C'
aS'C'
aS'T'
aS'C'
aS'A'
aS'T'
aS'G'
aS'C'
aS'T'
aS'C'
aS'A'
aS'C'
aS'C'
aS'C'
aS'T'
aS'G'
aS'C'
aS'C'
aS'T'
aS'G'
aS'G'
aS'A'
aS'C'
aS'A'
aS'G'
aS'A'
aS'G'
aS'C'
aS'C'
aS'C'
aS'C'
aS'C'
aS'T'
aS'G'
aS'T'
aS'G'
aS'C'
aS'T'
aS'C'
aS'A'
aS'T'
aS'C'
aS'A'
aS'C'
aS'G'
aS'C'
aS'G'
aS'C'
aS'C'
aS'C'
aS'C'
aS'T'
aS'T'
aS'G'
aS'G'
aS'A'
aS'G'
aS'G'
aS'A'
aS'C'
aS'C'
aS'A'
aS'G'
aS'C'
aS'T'
aS'G'
aS'G'
aS'T'
aS'G'
aS'A'
aS'T'
aS'G'
aS'G'
aS'T'
aS'G'
aS'G'
aS'G'
aS'G'
aS'C'
aS'A'
aS'G'
aS'C'
aS'G'
aS'G'
aS'G'
aS'T'
aS'G'
aS'G'
aS'A'
aS'G'
assI16
(dp119
g85
I14768
sg86
I105
sg87
I405
sg88
I14873
sg89
(lp120
S'G'
aS'A'
aS'C'
aS'G'
aS'A'
aS'C'
aS'G'
aS'C'
aS'A'
aS'G'
aS'T'
aS'C'
aS'T'
aS'A'
aS'C'
aS'C'
aS'A'
aS'G'
aS'T'
aS'G'
aS'C'
aS'G'
aS'T'
aS'G'
aS'G'
aS'T'
aS'G'
aS'G'
aS'G'
aS'T'
aS'G'
aS'G'
aS'C'
aS'G'
aS'A'
aS'G'
aS'A'
aS'A'
aS'G'
aS'T'
aS'G'
aS'T'
aS'A'
aS'G'
aS'C'
aS'A'
aS'C'
aS'G'
aS'G'
aS'A'
aS'G'
aS'C'
aS'T'
aS'C'
aS'T'
aS'T'
aS'T'
aS'G'
aS'T'
aS'G'
aS'A'
aS'A'
aS'A'
aS'G'
aS'G'
aS'T'
aS'G'
aS'G'
aS'G'
aS'C'
aS'C'
aS'T'
aS'G'
aS'G'
aS'G'
aS'A'
aS'C'
aS'C'
aS'T'
aS'G'
aS'A'
aS'G'
aS'G'
aS'A'
aS'T'
aS'G'
aS'T'
aS'G'
aS'G'
aS'G'
aS'A'
aS'A'
aS'C'
aS'C'
aS'T'
aS'G'
aS'G'
aS'G'
aS'G'
aS'A'
aS'G'
aS'G'
aS'A'
aS'G'
aS'A'
aS'T'
aS'G'
aS'G'
aS'C'
aS'C'
aS'T'
aS'C'
aS'A'
aS'G'
aS'G'
aS'G'
aS'G'
aS'A'
aS'G'
aS'C'
aS'C'
aS'A'
aS'A'
aS'C'
aS'C'
aS'C'
aS'T'
aS'C'
aS'A'
aS'T'
aS'G'
aS'C'
aS'T'
aS'C'
aS'A'
aS'C'
aS'C'
aS'C'
aS'T'
aS'G'
aS'C'
aS'C'
aS'T'
aS'G'
aS'G'
aS'A'
aS'C'
aS'A'
aS'G'
aS'A'
aS'G'
aS'C'
aS'C'
aS'C'
aS'C'
aS'C'
aS'T'
aS'G'
aS'T'
aS'G'
aS'C'
aS'T'
aS'C'
aS'A'
aS'T'
aS'C'
aS'A'
aS'C'
aS'G'
aS'C'
aS'G'
aS'C'
aS'C'
aS'C'
aS'C'
aS'T'
aS'T'
aS'G'
aS'G'
aS'A'
aS'G'
aS'G'
aS'A'
aS'C'
aS'C'
aS'A'
aS'G'
aS'C'
aS'T'
aS'G'
aS'G'
aS'T'
aS'G'
aS'A'
aS'T'
aS'G'
aS'G'
aS'T'
aS'G'
aS'G'
aS'G'
aS'G'
aS'C'
aS'A'
aS'G'
aS'C'
aS'G'
aS'G'
aS'G'
aS'T'
aS'G'
aS'G'
aS'A'
aS'G'
aS'G'
aS'T'
aS'T'
aS'G'
aS'A'
aS'G'
aS'T'
aS'G'
aS'T'
aS'G'
aS'A'
aS'A'
aS'G'
aS'T'
aS'A'
aS'T'
aS'C'
aS'G'
aS'G'
aS'A'
aS'G'
aS'G'
aS'A'
aS'G'
aS'G'
aS'G'
aS'G'
aS'G'
aS'C'
aS'G'
aS'C'
aS'A'
aS'A'
aS'G'
aS'T'
aS'C'
aS'A'
aS'A'
aS'A'
aS'T'
aS'G'
aS'G'
aS'T'
aS'G'
aS'A'
aS'G'
aS'T'
aS'T'
aS'C'
aS'C'
aS'A'
aS'G'
aS'A'
aS'A'
aS'G'
aS'C'
aS'A'
aS'C'
aS'G'
aS'G'
aS'G'
aS'G'
aS'C'
aS'A'
aS'T'
aS'G'
aS'G'
aS'G'
aS'T'
aS'G'
aS'T'
aS'T'
aS'G'
aS'G'
aS'G'
aS'G'
aS'G'
aS'C'
aS'A'
aS'T'
aS'C'
aS'T'
aS'G'
aS'C'
aS'C'
aS'C'
aS'A'
aS'G'
aS'A'
aS'A'
aS'G'
aS'A'
aS'G'
aS'G'
aS'C'
aS'C'
aS'A'
aS'C'
aS'A'
aS'G'
aS'C'
aS'A'
aS'C'
aS'T'
aS'T'
aS'G'
aS'C'
aS'C'
aS'A'
aS'C'
aS'C'
aS'C'
aS'A'
aS'C'
aS'C'
aS'C'
aS'A'
aS'C'
aS'C'
aS'C'
aS'G'
aS'G'
aS'C'
aS'T'
aS'A'
aS'G'
aS'G'
aS'C'
aS'T'
aS'G'
aS'A'
aS'A'
aS'G'
aS'G'
aS'A'
aS'C'
aS'G'
aS'G'
aS'G'
aS'G'
aS'T'
aS'G'
aS'G'
aS'A'
aS'G'
aS'C'
aS'T'
aS'G'
aS'A'
aS'T'
aS'C'
aS'C'
aS'G'
aS'G'
aS'G'
aS'A'
aS'G'
aS'G'
aS'A'
aS'G'
aS'A'
aS'C'
aS'C'
aS'T'
aS'T'
aS'C'
aS'A'
aS'A'
aS'A'
aS'T'
aS'A'
aS'C'
aS'C'
aS'G'
aS'G'
aS'T'
aS'T'
aS'C'
aS'A'
aS'A'
aS'G'
aS'A'
aS'A'
aS'G'
aS'G'
aS'A'
aS'C'
aS'G'
aS'G'
aS'G'
aS'C'
assI17
(dp121
g85
I14959
sg86
I166
sg87
I466
sg88
I15125
sg89
(lp122
S'T'
aS'G'
aS'A'
aS'T'
aS'G'
aS'G'
aS'T'
aS'G'
aS'G'
aS'G'
aS'G'
aS'C'
aS'A'
aS'G'
aS'C'
aS'G'
aS'G'
aS'G'
aS'T'
aS'G'
aS'G'
aS'A'
aS'G'
aS'G'
aS'T'
aS'T'
aS'G'
aS'A'
aS'G'
aS'T'
aS'G'
aS'T'
aS'G'
aS'A'
aS'A'
aS'G'
aS'T'
aS'A'
aS'T'
aS'C'
aS'G'
aS'G'
aS'A'
aS'G'
aS'G'
aS'A'
aS'G'
aS'G'
aS'G'
aS'G'
aS'G'
aS'C'
aS'G'
aS'C'
aS'A'
aS'A'
aS'G'
aS'T'
aS'C'
aS'A'
aS'A'
aS'A'
aS'T'
aS'G'
aS'G'
aS'T'
aS'G'
aS'A'
aS'G'
aS'T'
aS'T'
aS'C'
aS'C'
aS'A'
aS'G'
aS'A'
aS'A'
aS'G'
aS'C'
aS'A'
aS'C'
aS'G'
aS'G'
aS'G'
aS'G'
aS'C'
aS'A'
aS'T'
aS'G'
aS'G'
aS'G'
aS'T'
aS'G'
aS'T'
aS'T'
aS'G'
aS'G'
aS'G'
aS'G'
aS'G'
aS'C'
aS'A'
aS'T'
aS'C'
aS'T'
aS'G'
aS'C'
aS'C'
aS'C'
aS'A'
aS'G'
aS'A'
aS'A'
aS'G'
aS'A'
aS'G'
aS'G'
aS'C'
aS'C'
aS'A'
aS'C'
aS'A'
aS'G'
aS'C'
aS'A'
aS'C'
aS'T'
aS'T'
aS'G'
aS'C'
aS'C'
aS'A'
aS'C'
aS'C'
aS'C'
aS'A'
aS'C'
aS'C'
aS'C'
aS'A'
aS'C'
aS'C'
aS'C'
aS'G'
aS'G'
aS'C'
aS'T'
aS'A'
aS'G'
aS'G'
aS'C'
aS'T'
aS'G'
aS'A'
aS'A'
aS'G'
aS'G'
aS'A'
aS'C'
aS'G'
aS'G'
aS'G'
aS'G'
aS'T'
aS'G'
aS'G'
aS'A'
aS'G'
aS'C'
aS'T'
aS'G'
aS'A'
aS'T'
aS'C'
aS'C'
aS'G'
aS'G'
aS'G'
aS'A'
aS'G'
aS'G'
aS'A'
aS'G'
aS'A'
aS'C'
aS'C'
aS'T'
aS'T'
aS'C'
aS'A'
aS'A'
aS'A'
aS'T'
aS'A'
aS'C'
aS'C'
aS'G'
aS'G'
aS'T'
aS'T'
aS'C'
aS'A'
aS'A'
aS'G'
aS'A'
aS'A'
aS'G'
aS'G'
aS'A'
aS'C'
aS'G'
aS'G'
aS'G'
aS'C'
aS'A'
aS'G'
aS'A'
aS'G'
aS'A'
aS'C'
aS'A'
aS'C'
aS'C'
aS'A'
aS'C'
aS'C'
aS'T'
aS'G'
aS'A'
aS'T'
aS'C'
aS'A'
aS'T'
aS'C'
aS'A'
aS'A'
aS'C'
aS'G'
aS'A'
aS'G'
aS'G'
aS'C'
aS'C'
aS'A'
aS'T'
aS'G'
aS'C'
aS'T'
aS'G'
aS'G'
aS'A'
aS'G'
aS'G'
aS'A'
aS'C'
aS'G'
aS'C'
aS'G'
aS'G'
aS'G'
aS'G'
aS'C'
aS'A'
aS'C'
aS'T'
aS'A'
aS'T'
aS'G'
aS'C'
aS'A'
aS'C'
aS'T'
aS'G'
aS'T'
aS'G'
aS'C'
aS'A'
aS'C'
aS'T'
aS'A'
aS'G'
aS'C'
aS'G'
aS'G'
aS'G'
aS'G'
aS'G'
aS'C'
aS'C'
aS'A'
aS'G'
aS'G'
aS'C'
aS'G'
aS'C'
aS'T'
aS'G'
aS'G'
aS'C'
aS'T'
aS'G'
aS'A'
aS'G'
aS'C'
aS'T'
aS'C'
aS'A'
aS'T'
aS'T'
aS'G'
aS'T'
aS'G'
aS'C'
aS'A'
aS'G'
aS'G'
aS'G'
aS'T'
aS'G'
aS'A'
aS'G'
aS'C'
aS'C'
aS'T'
aS'G'
aS'G'
aS'C'
aS'T'
aS'G'
aS'G'
aS'G'
aS'G'
aS'G'
aS'G'
aS'G'
aS'C'
aS'A'
aS'C'
aS'A'
aS'T'
aS'G'
aS'A'
aS'G'
aS'G'
aS'C'
aS'T'
aS'T'
aS'T'
aS'A'
aS'G'
aS'G'
aS'G'
aS'C'
aS'T'
aS'T'
aS'G'
aS'G'
aS'A'
aS'C'
aS'C'
aS'C'
aS'C'
aS'T'
aS'C'
aS'A'
aS'G'
aS'C'
aS'C'
aS'C'
aS'C'
aS'C'
aS'A'
aS'C'
aS'C'
aS'C'
aS'C'
aS'A'
aS'C'
aS'C'
aS'T'
aS'A'
aS'G'
aS'C'
aS'C'
aS'C'
aS'T'
aS'G'
aS'T'
aS'A'
aS'G'
aS'G'
aS'G'
aS'G'
aS'A'
aS'G'
aS'C'
aS'A'
aS'G'
aS'G'
aS'C'
aS'A'
aS'A'
aS'A'
aS'C'
aS'C'
aS'T'
aS'G'
aS'G'
aS'G'
aS'C'
aS'T'
aS'C'
aS'A'
aS'A'
aS'G'
aS'G'
aS'C'
aS'C'
aS'T'
aS'C'
aS'T'
aS'G'
aS'T'
aS'G'
aS'A'
aS'C'
aS'C'
aS'T'
aS'T'
aS'G'
aS'G'
aS'G'
aS'C'
aS'C'
aS'T'
aS'T'
aS'T'
aS'G'
aS'A'
aS'C'
aS'A'
aS'G'
aS'C'
aS'C'
aS'T'
aS'A'
aS'A'
aS'A'
aS'C'
aS'C'
aS'T'
aS'C'
aS'A'
aS'T'
aS'C'
aS'C'
aS'T'
aS'T'
aS'C'
aS'T'
aS'C'
aS'A'
aS'T'
aS'C'
aS'T'
aS'C'
assI18
(dp123
g85
I15547
sg86
I165
sg87
I465
sg88
I15712
sg89
(lp124
S'C'
aS'A'
aS'T'
aS'G'
aS'G'
aS'C'
aS'A'
aS'C'
aS'A'
aS'C'
aS'A'
aS'C'
aS'A'
aS'G'
aS'G'
aS'C'
aS'A'
aS'C'
aS'A'
aS'C'
aS'G'
aS'T'
aS'G'
aS'T'
aS'T'
aS'T'
aS'T'
aS'C'
aS'A'
aS'C'
aS'A'
aS'T'
aS'G'
aS'C'
aS'C'
aS'C'
aS'A'
aS'C'
aS'A'
aS'T'
aS'G'
aS'C'
aS'A'
aS'C'
aS'C'
aS'C'
aS'A'
aS'G'
aS'A'
aS'C'
aS'A'
aS'C'
aS'G'
aS'T'
aS'G'
aS'C'
aS'G'
aS'C'
aS'A'
aS'C'
aS'C'
aS'A'
aS'G'
aS'C'
aS'G'
aS'C'
aS'C'
aS'C'
aS'A'
aS'T'
aS'G'
aS'G'
aS'G'
aS'C'
aS'C'
aS'C'
aS'A'
aS'C'
aS'A'
aS'C'
aS'G'
aS'C'
aS'C'
aS'C'
aS'T'
aS'C'
aS'C'
aS'A'
aS'C'
aS'A'
aS'G'
aS'G'
aS'G'
aS'A'
aS'T'
aS'T'
aS'C'
aS'A'
aS'C'
aS'G'
aS'C'
aS'C'
aS'A'
aS'C'
aS'A'
aS'C'
aS'C'
aS'C'
aS'A'
aS'C'
aS'A'
aS'C'
aS'A'
aS'C'
aS'C'
aS'C'
aS'T'
aS'C'
aS'C'
aS'C'
aS'G'
aS'A'
aS'G'
aS'C'
aS'T'
aS'C'
aS'A'
aS'A'
aS'T'
aS'G'
aS'G'
aS'C'
aS'T'
aS'C'
aS'T'
aS'G'
aS'C'
aS'C'
aS'C'
aS'T'
aS'G'
aS'C'
aS'C'
aS'C'
aS'T'
aS'G'
aS'C'
aS'A'
aS'G'
aS'A'
aS'A'
aS'A'
aS'A'
aS'G'
aS'A'
aS'A'
aS'G'
aS'C'
aS'T'
aS'G'
aS'G'
aS'A'
aS'G'
aS'G'
aS'T'
aS'G'
aS'T'
aS'A'
aS'C'
aS'C'
aS'A'
aS'G'
aS'A'
aS'G'
aS'C'
aS'A'
aS'T'
aS'C'
aS'G'
aS'C'
aS'A'
aS'G'
aS'A'
aS'C'
aS'C'
aS'T'
aS'G'
aS'A'
aS'T'
aS'G'
aS'G'
aS'T'
aS'G'
aS'G'
aS'G'
aS'C'
aS'G'
aS'C'
aS'A'
aS'A'
aS'A'
aS'G'
aS'G'
aS'A'
aS'C'
aS'C'
aS'A'
aS'G'
aS'G'
aS'C'
aS'G'
aS'G'
aS'T'
aS'G'
aS'T'
aS'T'
aS'C'
aS'A'
aS'A'
aS'A'
aS'T'
aS'G'
aS'T'
aS'G'
aS'A'
aS'G'
aS'G'
aS'T'
aS'C'
aS'G'
aS'C'
aS'A'
aS'G'
aS'A'
aS'T'
aS'G'
aS'A'
aS'G'
aS'A'
aS'A'
aS'T'
aS'G'
aS'T'
aS'T'
aS'C'
aS'G'
aS'G'
aS'G'
aS'G'
aS'T'
aS'G'
aS'T'
aS'G'
aS'T'
aS'G'
aS'G'
aS'C'
aS'T'
aS'G'
aS'A'
aS'A'
aS'G'
aS'A'
aS'A'
aS'T'
aS'G'
aS'G'
aS'G'
aS'A'
aS'A'
aS'G'
aS'G'
aS'A'
aS'G'
aS'C'
aS'T'
aS'G'
aS'G'
aS'T'
aS'G'
aS'C'
aS'C'
aS'C'
aS'G'
aS'A'
aS'C'
aS'A'
aS'G'
aS'C'
aS'C'
aS'G'
aS'C'
aS'A'
aS'T'
aS'A'
aS'A'
aS'A'
aS'G'
aS'G'
aS'T'
aS'G'
aS'T'
aS'C'
aS'C'
aS'C'
aS'A'
aS'C'
aS'A'
aS'T'
aS'C'
aS'G'
aS'G'
aS'G'
aS'C'
aS'G'
aS'G'
aS'T'
aS'G'
aS'A'
aS'G'
aS'T'
aS'G'
aS'T'
aS'G'
aS'C'
aS'A'
aS'G'
aS'G'
aS'G'
aS'C'
aS'A'
aS'G'
aS'G'
aS'T'
aS'G'
aS'G'
aS'A'
aS'T'
aS'G'
aS'G'
aS'G'
aS'A'
aS'C'
aS'A'
aS'G'
aS'G'
aS'T'
aS'G'
aS'G'
aS'A'
aS'G'
aS'A'
aS'C'
aS'T'
aS'G'
aS'A'
aS'G'
aS'A'
aS'T'
aS'G'
aS'G'
aS'A'
aS'G'
aS'A'
aS'C'
aS'A'
aS'G'
aS'A'
aS'G'
aS'A'
aS'G'
aS'A'
aS'G'
aS'A'
aS'C'
aS'A'
aS'C'
aS'A'
aS'G'
aS'G'
aS'G'
aS'A'
aS'G'
aS'A'
aS'A'
aS'A'
aS'C'
aS'A'
aS'G'
aS'A'
aS'G'
aS'A'
aS'G'
aS'A'
aS'G'
aS'A'
aS'G'
aS'A'
aS'G'
aS'A'
aS'T'
aS'A'
aS'A'
aS'A'
aS'G'
aS'A'
aS'C'
aS'A'
aS'G'
aS'G'
aS'T'
aS'G'
aS'G'
aS'A'
aS'C'
aS'A'
aS'G'
aS'A'
aS'G'
aS'A'
aS'G'
aS'G'
aS'C'
aS'A'
aS'G'
aS'A'
aS'T'
aS'G'
aS'C'
aS'A'
aS'C'
aS'A'
aS'G'
aS'A'
aS'G'
aS'A'
aS'C'
aS'A'
aS'G'
aS'G'
aS'A'
aS'C'
aS'A'
aS'G'
aS'A'
aS'G'
aS'A'
aS'C'
aS'T'
aS'G'
aS'A'
aS'G'
aS'A'
aS'C'
aS'A'
aS'G'
aS'A'
aS'G'
aS'A'
aS'C'
aS'C'
aS'C'
aS'A'
aS'C'
aS'A'
assI19
(dp125
g85
I16459
sg86
I106
sg87
I406
sg88
I16565
sg89
(lp126
S'A'
aS'T'
aS'A'
aS'A'
aS'T'
aS'A'
aS'T'
aS'A'
aS'G'
aS'A'
aS'A'
aS'A'
aS'A'
aS'A'
aS'A'
aS'A'
aS'A'
aS'A'
aS'G'
aS'G'
aS'C'
aS'A'
aS'T'
aS'T'
aS'T'
aS'T'
aS'T'
aS'A'
aS'A'
aS'A'
aS'A'
aS'A'
aS'T'
aS'C'
aS'A'
aS'G'
aS'A'
aS'A'
aS'T'
aS'A'
aS'C'
aS'C'
aS'A'
aS'A'
aS'C'
aS'A'
aS'A'
aS'G'
aS'C'
aS'C'
aS'A'
aS'G'
aS'G'
aS'A'
aS'C'
aS'A'
aS'A'
aS'G'
aS'G'
aS'T'
aS'G'
aS'A'
aS'G'
aS'G'
aS'G'
aS'C'
aS'C'
aS'T'
aS'C'
aS'C'
aS'T'
aS'G'
aS'G'
aS'G'
aS'A'
aS'C'
aS'C'
aS'C'
aS'T'
aS'G'
aS'G'
aS'C'
aS'T'
aS'G'
aS'G'
aS'G'
aS'G'
aS'T'
aS'A'
aS'T'
aS'C'
aS'T'
aS'G'
aS'G'
aS'C'
aS'A'
aS'A'
aS'G'
aS'G'
aS'C'
aS'C'
aS'A'
aS'G'
aS'G'
aS'G'
aS'G'
aS'T'
aS'G'
aS'T'
aS'G'
aS'T'
aS'G'
aS'G'
aS'C'
aS'C'
aS'C'
aS'A'
aS'G'
aS'T'
aS'G'
aS'G'
aS'G'
aS'G'
aS'T'
aS'C'
aS'C'
aS'C'
aS'C'
aS'T'
aS'G'
aS'A'
aS'G'
aS'C'
aS'C'
aS'A'
aS'C'
aS'T'
aS'G'
aS'C'
aS'T'
aS'C'
aS'C'
aS'C'
aS'C'
aS'T'
aS'G'
aS'C'
aS'A'
aS'G'
aS'G'
aS'G'
aS'T'
aS'C'
aS'C'
aS'A'
aS'C'
aS'A'
aS'A'
aS'A'
aS'C'
aS'T'
aS'G'
aS'A'
aS'C'
aS'C'
aS'A'
aS'T'
aS'T'
aS'G'
aS'A'
aS'C'
aS'G'
aS'A'
aS'C'
aS'G'
aS'T'
aS'C'
aS'A'
aS'C'
aS'A'
aS'C'
aS'C'
aS'T'
aS'G'
aS'C'
aS'C'
aS'G'
aS'A'
aS'C'
aS'G'
aS'A'
aS'G'
aS'G'
aS'C'
aS'T'
aS'G'
aS'A'
aS'C'
aS'T'
aS'A'
aS'C'
aS'A'
aS'G'
aS'C'
aS'T'
aS'T'
aS'T'
aS'G'
aS'T'
aS'G'
aS'C'
aS'C'
aS'C'
aS'G'
aS'A'
aS'G'
aS'G'
aS'G'
aS'C'
aS'C'
aS'T'
aS'C'
aS'G'
aS'C'
aS'C'
aS'T'
aS'G'
aS'C'
aS'A'
aS'A'
aS'C'
aS'C'
aS'T'
aS'G'
aS'T'
aS'C'
aS'A'
aS'G'
aS'C'
aS'C'
aS'A'
aS'A'
aS'G'
aS'C'
aS'T'
aS'C'
aS'C'
aS'A'
aS'C'
aS'T'
aS'T'
aS'C'
aS'A'
aS'T'
aS'G'
aS'G'
aS'G'
aS'T'
aS'G'
aS'A'
aS'G'
aS'C'
aS'C'
aS'T'
aS'G'
aS'C'
aS'T'
aS'C'
aS'C'
aS'A'
aS'G'
aS'G'
aS'G'
aS'T'
aS'A'
aS'G'
aS'G'
aS'G'
aS'T'
aS'G'
aS'G'
aS'G'
aS'T'
aS'C'
aS'G'
aS'G'
aS'G'
aS'G'
aS'C'
aS'A'
aS'G'
aS'T'
aS'G'
aS'G'
aS'G'
aS'G'
aS'C'
aS'C'
aS'A'
aS'G'
aS'G'
aS'A'
aS'G'
aS'C'
aS'C'
aS'C'
aS'C'
aS'T'
aS'G'
aS'T'
aS'C'
aS'A'
aS'C'
aS'T'
aS'G'
aS'G'
aS'G'
aS'C'
aS'C'
aS'C'
aS'T'
aS'G'
aS'C'
aS'C'
aS'T'
aS'T'
aS'T'
aS'G'
aS'C'
aS'C'
aS'C'
aS'C'
aS'C'
aS'G'
aS'T'
aS'G'
aS'C'
aS'T'
aS'A'
aS'C'
aS'T'
aS'T'
aS'G'
aS'C'
aS'T'
aS'C'
aS'T'
aS'T'
aS'C'
aS'C'
aS'T'
aS'T'
aS'C'
aS'T'
aS'C'
aS'T'
aS'T'
aS'G'
aS'C'
aS'A'
aS'G'
aS'A'
aS'G'
aS'G'
aS'T'
aS'C'
aS'A'
aS'A'
aS'G'
aS'A'
aS'T'
aS'T'
aS'G'
aS'A'
aS'C'
aS'T'
aS'C'
aS'C'
aS'G'
aS'T'
aS'A'
aS'C'
aS'C'
aS'C'
aS'A'
aS'G'
aS'G'
aS'C'
aS'A'
aS'G'
aS'G'
aS'G'
aS'T'
aS'A'
aS'A'
aS'G'
aS'T'
aS'C'
aS'T'
aS'T'
aS'G'
aS'G'
aS'G'
aS'G'
aS'C'
aS'C'
assI20
(dp127
g85
I16671
sg86
I29
sg87
I329
sg88
I16700
sg89
(lp128
S'C'
aS'G'
aS'A'
aS'G'
aS'G'
aS'G'
aS'C'
aS'C'
aS'T'
aS'C'
aS'G'
aS'C'
aS'C'
aS'T'
aS'G'
aS'C'
aS'A'
aS'A'
aS'C'
aS'C'
aS'T'
aS'G'
aS'T'
aS'C'
aS'A'
aS'G'
aS'C'
aS'C'
aS'A'
aS'A'
aS'G'
aS'C'
aS'T'
aS'C'
aS'C'
aS'A'
aS'C'
aS'T'
aS'T'
aS'C'
aS'A'
aS'T'
aS'G'
aS'G'
aS'G'
aS'T'
aS'G'
aS'A'
aS'G'
aS'C'
aS'C'
aS'T'
aS'G'
aS'C'
aS'T'
aS'C'
aS'C'
aS'A'
aS'G'
aS'G'
aS'G'
aS'T'
aS'A'
aS'G'
aS'G'
aS'G'
aS'T'
aS'G'
aS'G'
aS'G'
aS'T'
aS'C'
aS'G'
aS'G'
aS'G'
aS'G'
aS'C'
aS'A'
aS'G'
aS'T'
aS'G'
aS'G'
aS'G'
aS'G'
aS'C'
aS'C'
aS'A'
aS'G'
aS'G'
aS'A'
aS'G'
aS'C'
aS'C'
aS'C'
aS'C'
aS'T'
aS'G'
aS'T'
aS'C'
aS'A'
aS'C'
aS'T'
aS'G'
aS'G'
aS'G'
aS'C'
aS'C'
aS'C'
aS'T'
aS'G'
aS'C'
aS'C'
aS'T'
aS'T'
aS'T'
aS'G'
aS'C'
aS'C'
aS'C'
aS'C'
aS'C'
aS'G'
aS'T'
aS'G'
aS'C'
aS'T'
aS'A'
aS'C'
aS'T'
aS'T'
aS'G'
aS'C'
aS'T'
aS'C'
aS'T'
aS'T'
aS'C'
aS'C'
aS'T'
aS'T'
aS'C'
aS'T'
aS'C'
aS'T'
aS'T'
aS'G'
aS'C'
aS'A'
aS'G'
aS'A'
aS'G'
aS'G'
aS'T'
aS'C'
aS'A'
aS'A'
aS'G'
aS'A'
aS'T'
aS'T'
aS'G'
aS'A'
aS'C'
aS'T'
aS'C'
aS'C'
aS'G'
aS'T'
aS'A'
aS'C'
aS'C'
aS'C'
aS'A'
aS'G'
aS'G'
aS'C'
aS'A'
aS'G'
aS'G'
aS'G'
aS'T'
aS'A'
aS'A'
aS'G'
aS'T'
aS'C'
aS'T'
aS'T'
aS'G'
aS'G'
aS'G'
aS'G'
aS'C'
aS'C'
aS'C'
aS'C'
aS'T'
aS'G'
aS'A'
aS'G'
aS'T'
aS'C'
aS'T'
aS'T'
aS'G'
aS'G'
aS'T'
aS'T'
aS'C'
aS'T'
aS'G'
aS'C'
aS'T'
aS'C'
aS'A'
aS'C'
aS'T'
aS'T'
aS'T'
aS'C'
aS'C'
aS'C'
aS'G'
aS'C'
aS'A'
aS'A'
aS'C'
aS'C'
aS'C'
aS'A'
aS'C'
aS'C'
aS'C'
aS'A'
aS'C'
aS'G'
aS'C'
aS'A'
aS'G'
aS'G'
aS'C'
aS'C'
aS'T'
aS'C'
aS'C'
aS'C'
aS'C'
aS'T'
aS'C'
aS'C'
aS'A'
aS'C'
aS'T'
aS'C'
aS'A'
aS'C'
aS'A'
aS'G'
aS'A'
aS'G'
aS'G'
aS'G'
aS'A'
aS'A'
aS'G'
aS'A'
aS'G'
aS'C'
aS'A'
aS'A'
aS'G'
aS'G'
aS'A'
aS'T'
aS'C'
aS'A'
aS'A'
aS'A'
aS'A'
aS'G'
aS'T'
aS'G'
aS'G'
aS'G'
aS'G'
aS'G'
aS'T'
aS'C'
aS'C'
aS'T'
aS'G'
aS'G'
aS'G'
aS'G'
aS'C'
aS'C'
aS'C'
aS'A'
aS'G'
aS'C'
aS'T'
aS'T'
aS'C'
aS'A'
aS'G'
aS'C'
aS'T'
aS'T'
aS'T'
aS'G'
aS'C'
aS'C'
aS'A'
aS'C'
aS'T'
aS'C'
aS'A'
aS'T'
aS'G'
aS'A'
aS'C'
aS'C'
aS'A'
aS'T'
aS'G'
aS'G'
aS'G'
aS'T'
aS'C'
assI21
(dp129
g85
I17913
sg86
I139
sg87
I439
sg88
I18052
sg89
(lp130
S'C'
aS'C'
aS'T'
aS'A'
aS'C'
aS'T'
aS'G'
aS'T'
aS'C'
aS'A'
aS'G'
aS'A'
aS'T'
aS'C'
aS'T'
aS'G'
aS'A'
aS'G'
aS'C'
aS'A'
aS'T'
aS'A'
aS'A'
aS'A'
aS'C'
aS'T'
aS'A'
aS'T'
aS'A'
aS'C'
aS'C'
aS'T'
aS'C'
aS'A'
aS'A'
aS'T'
aS'A'
aS'C'
aS'A'
aS'A'
aS'A'
aS'T'
aS'C'
aS'T'
aS'A'
aS'A'
aS'A'
aS'A'
aS'A'
aS'A'
aS'C'
aS'C'
aS'A'
aS'A'
aS'T'
aS'A'
aS'A'
aS'C'
aS'C'
aS'A'
aS'G'
aS'G'
aS'G'
aS'G'
aS'C'
aS'C'
aS'C'
aS'A'
aS'G'
aS'G'
aS'C'
aS'T'
aS'C'
aS'T'
aS'T'
aS'G'
aS'A'
aS'G'
aS'C'
aS'A'
aS'G'
aS'C'
aS'C'
aS'C'
aS'C'
aS'G'
aS'C'
aS'C'
aS'C'
aS'C'
aS'A'
aS'G'
aS'T'
aS'G'
aS'A'
aS'C'
aS'C'
aS'T'
aS'G'
aS'T'
aS'G'
aS'C'
aS'T'
aS'C'
aS'C'
aS'T'
aS'C'
aS'C'
aS'T'
aS'G'
aS'G'
aS'C'
aS'T'
aS'C'
aS'T'
aS'C'
aS'C'
aS'C'
aS'G'
aS'T'
aS'T'
aS'T'
aS'C'
aS'T'
aS'C'
aS'T'
aS'G'
aS'A'
aS'A'
aS'C'
aS'T'
aS'A'
aS'C'
aS'A'
aS'T'
aS'T'
aS'G'
aS'T'
aS'G'
aS'T'
aS'C'
aS'T'
aS'T'
aS'C'
aS'T'
aS'G'
aS'C'
aS'A'
aS'G'
aS'A'
aS'A'
aS'C'
aS'C'
aS'T'
aS'C'
aS'C'
aS'C'
aS'A'
aS'A'
aS'G'
aS'A'
aS'T'
aS'C'
aS'C'
aS'A'
aS'C'
aS'C'
aS'T'
aS'G'
aS'G'
aS'A'
aS'C'
aS'T'
aS'G'
aS'C'
aS'C'
aS'C'
aS'A'
aS'G'
aS'G'
aS'C'
aS'C'
aS'G'
aS'C'
aS'A'
aS'T'
aS'A'
aS'C'
aS'C'
aS'A'
aS'G'
aS'A'
aS'C'
aS'A'
aS'C'
aS'C'
aS'A'
aS'T'
aS'T'
aS'G'
aS'T'
aS'G'
aS'G'
aS'T'
aS'T'
aS'G'
aS'T'
aS'A'
aS'G'
aS'C'
aS'T'
aS'G'
aS'G'
aS'A'
aS'A'
aS'A'
aS'T'
aS'A'
aS'A'
aS'G'
aS'C'
aS'T'
aS'A'
aS'C'
aS'G'
aS'T'
aS'C'
aS'G'
aS'G'
aS'G'
aS'A'
aS'C'
aS'G'
aS'T'
aS'C'
aS'C'
aS'C'
aS'T'
aS'A'
aS'T'
aS'C'
aS'T'
aS'C'
aS'T'
aS'G'
aS'G'
aS'G'
aS'G'
aS'A'
aS'C'
aS'C'
aS'C'
aS'T'
aS'G'
aS'C'
aS'T'
aS'C'
aS'C'
aS'C'
aS'A'
aS'C'
aS'T'
aS'G'
aS'T'
aS'G'
aS'A'
aS'T'
aS'C'
aS'T'
aS'G'
aS'G'
aS'C'
aS'A'
aS'G'
aS'A'
aS'A'
aS'G'
aS'G'
aS'C'
aS'T'
aS'A'
aS'T'
aS'C'
aS'A'
aS'C'
aS'G'
aS'C'
aS'A'
aS'G'
aS'G'
aS'T'
aS'A'
aS'C'
aS'T'
aS'G'
aS'T'
aS'G'
aS'G'
aS'G'
aS'T'
aS'C'
aS'C'
aS'C'
aS'T'
aS'C'
aS'C'
aS'T'
aS'C'
aS'A'
aS'G'
aS'T'
aS'C'
aS'T'
aS'C'
aS'C'
aS'C'
aS'C'
aS'A'
aS'T'
aS'C'
aS'T'
aS'A'
aS'T'
aS'A'
aS'A'
aS'G'
aS'A'
aS'T'
aS'G'
aS'G'
aS'G'
aS'T'
aS'G'
aS'T'
aS'G'
aS'T'
aS'G'
aS'G'
aS'A'
aS'A'
aS'C'
aS'C'
aS'A'
aS'G'
aS'C'
aS'C'
aS'A'
aS'A'
aS'G'
aS'T'
aS'G'
aS'C'
aS'T'
aS'A'
aS'G'
aS'G'
aS'A'
aS'C'
aS'C'
aS'T'
aS'G'
aS'C'
aS'T'
aS'G'
aS'C'
aS'A'
aS'C'
aS'A'
aS'C'
aS'C'
aS'C'
aS'C'
aS'A'
aS'C'
aS'C'
aS'C'
aS'A'
aS'C'
aS'A'
aS'T'
aS'G'
aS'T'
aS'G'
aS'C'
aS'A'
aS'C'
aS'G'
aS'C'
aS'C'
aS'C'
aS'T'
aS'G'
aS'C'
aS'T'
aS'G'
aS'T'
aS'T'
aS'G'
aS'G'
aS'C'
aS'T'
aS'A'
aS'C'
aS'C'
aS'C'
aS'C'
aS'A'
aS'T'
aS'G'
aS'G'
aS'G'
aS'A'
aS'G'
aS'A'
aS'G'
aS'A'
aS'C'
aS'T'
aS'G'
aS'G'
aS'T'
aS'C'
aS'A'
aS'G'
aS'G'
aS'G'
aS'G'
aS'G'
aS'C'
aS'A'
aS'G'
aS'G'
aS'C'
aS'A'
aS'A'
aS'G'
aS'G'
aS'T'
aS'G'
assI22
(dp131
g85
I18299
sg86
I80
sg87
I380
sg88
I18379
sg89
(lp132
S'G'
aS'C'
aS'C'
aS'C'
aS'T'
aS'G'
aS'C'
aS'T'
aS'G'
aS'T'
aS'T'
aS'G'
aS'G'
aS'C'
aS'T'
aS'A'
aS'C'
aS'C'
aS'C'
aS'C'
aS'A'
aS'T'
aS'G'
aS'G'
aS'G'
aS'A'
aS'G'
aS'A'
aS'G'
aS'A'
aS'C'
aS'T'
aS'G'
aS'G'
aS'T'
aS'C'
aS'A'
aS'G'
aS'G'
aS'G'
aS'G'
aS'G'
aS'C'
aS'A'
aS'G'
aS'G'
aS'C'
aS'A'
aS'A'
aS'G'
aS'G'
aS'T'
aS'G'
aS'G'
aS'G'
aS'C'
aS'A'
aS'G'
aS'T'
aS'G'
aS'T'
aS'G'
aS'G'
aS'G'
aS'T'
aS'C'
aS'A'
aS'G'
aS'G'
aS'G'
aS'G'
aS'G'
aS'T'
aS'G'
aS'G'
aS'A'
aS'A'
aS'G'
aS'A'
aS'A'
aS'G'
aS'C'
aS'A'
aS'G'
aS'C'
aS'A'
aS'G'
aS'A'
aS'G'
aS'G'
aS'G'
aS'G'
aS'C'
aS'G'
aS'C'
aS'T'
aS'T'
aS'C'
aS'C'
aS'A'
aS'G'
aS'G'
aS'C'
aS'T'
aS'G'
aS'A'
aS'G'
aS'T'
aS'C'
aS'A'
aS'G'
aS'C'
aS'T'
aS'C'
aS'C'
aS'T'
aS'C'
aS'T'
aS'G'
aS'C'
aS'T'
aS'C'
aS'C'
aS'C'
aS'T'
aS'A'
aS'C'
aS'T'
aS'T'
aS'C'
aS'C'
aS'C'
aS'T'
aS'C'
aS'C'
aS'T'
aS'G'
aS'C'
aS'C'
aS'C'
aS'T'
aS'G'
aS'T'
aS'T'
aS'C'
aS'C'
aS'C'
aS'A'
aS'G'
aS'G'
aS'G'
aS'G'
aS'A'
aS'A'
aS'T'
aS'A'
aS'A'
aS'G'
aS'G'
aS'C'
aS'C'
aS'C'
aS'C'
aS'A'
aS'G'
aS'C'
aS'C'
aS'A'
aS'G'
aS'G'
aS'C'
aS'C'
aS'A'
aS'G'
aS'C'
aS'C'
aS'C'
aS'C'
aS'A'
aS'G'
aS'A'
aS'T'
aS'G'
aS'C'
aS'C'
aS'C'
aS'C'
aS'A'
aS'G'
aS'A'
aS'G'
aS'G'
aS'A'
aS'C'
aS'A'
aS'C'
aS'A'
aS'G'
aS'G'
aS'T'
aS'G'
aS'A'
aS'T'
aS'A'
aS'G'
aS'C'
aS'G'
aS'A'
aS'T'
aS'G'
aS'A'
aS'G'
aS'T'
aS'G'
aS'G'
aS'G'
aS'T'
aS'G'
aS'T'
aS'T'
aS'T'
aS'G'
aS'A'
aS'C'
aS'A'
aS'A'
aS'G'
aS'A'
aS'A'
aS'G'
aS'G'
aS'T'
aS'G'
aS'A'
aS'G'
aS'T'
aS'G'
aS'A'
aS'G'
aS'A'
aS'C'
aS'T'
aS'G'
aS'A'
aS'G'
aS'G'
aS'T'
aS'C'
aS'A'
aS'G'
aS'G'
aS'A'
aS'G'
aS'G'
aS'A'
aS'G'
aS'G'
aS'C'
aS'T'
aS'C'
aS'G'
aS'T'
aS'T'
aS'T'
aS'G'
aS'T'
aS'C'
aS'T'
aS'T'
aS'T'
aS'C'
aS'A'
aS'T'
aS'C'
aS'A'
aS'C'
aS'T'
aS'T'
aS'T'
aS'C'
aS'T'
aS'A'
aS'C'
aS'C'
aS'T'
aS'A'
aS'C'
aS'G'
aS'T'
aS'G'
aS'G'
aS'T'
aS'G'
aS'C'
aS'C'
aS'G'
aS'A'
aS'G'
aS'C'
aS'C'
aS'C'
aS'T'
aS'T'
aS'G'
aS'G'
aS'C'
aS'G'
aS'A'
aS'G'
aS'G'
aS'T'
aS'C'
aS'T'
aS'C'
aS'C'
aS'A'
aS'T'
aS'G'
aS'G'
aS'A'
aS'G'
aS'G'
aS'T'
aS'G'
aS'C'
aS'C'
aS'A'
aS'C'
aS'A'
aS'C'
aS'T'
aS'T'
aS'G'
aS'G'
aS'C'
aS'C'
aS'G'
aS'G'
aS'G'
aS'T'
aS'G'
aS'T'
aS'G'
aS'T'
aS'T'
aS'G'
aS'C'
aS'T'
aS'G'
aS'C'
aS'C'
aS'C'
aS'C'
aS'C'
aS'A'
aS'G'
aS'C'
aS'A'
aS'G'
aS'G'
aS'G'
aS'T'
aS'C'
aS'C'
aS'C'
aS'T'
aS'G'
aS'T'
aS'G'
aS'G'
aS'G'
aS'G'
aS'C'
aS'C'
aS'C'
aS'T'
aS'C'
aS'A'
aS'C'
aS'A'
assI23
(dp133
g85
I19024
sg86
I159
sg87
I459
sg88
I19183
sg89
(lp134
S'G'
aS'A'
aS'T'
aS'G'
aS'A'
aS'T'
aS'T'
aS'T'
aS'T'
aS'G'
aS'A'
aS'A'
aS'C'
aS'T'
aS'A'
aS'G'
aS'A'
aS'T'
aS'G'
aS'C'
aS'T'
aS'G'
aS'A'
aS'C'
aS'G'
aS'T'
aS'G'
aS'G'
aS'A'
aS'T'
aS'G'
aS'C'
aS'A'
aS'G'
aS'T'
aS'C'
aS'T'
aS'T'
aS'C'
aS'C'
aS'C'
aS'A'
aS'C'
aS'A'
aS'G'
aS'G'
aS'C'
aS'T'
aS'G'
aS'T'
aS'G'
aS'T'
aS'T'
aS'C'
aS'C'
aS'C'
aS'C'
aS'C'
aS'C'
aS'A'
aS'T'
aS'G'
aS'G'
aS'A'
aS'C'
aS'C'
aS'C'
aS'C'
aS'C'
aS'G'
aS'G'
aS'G'
aS'A'
aS'C'
aS'A'
aS'T'
aS'C'
aS'T'
aS'G'
aS'G'
aS'C'
aS'T'
aS'G'
aS'T'
aS'T'
aS'G'
aS'G'
aS'C'
aS'G'
aS'G'
aS'A'
aS'G'
aS'G'
aS'C'
aS'T'
aS'G'
aS'C'
aS'A'
aS'A'
aS'G'
aS'G'
aS'G'
aS'C'
aS'C'
aS'T'
aS'C'
aS'T'
aS'G'
aS'G'
aS'G'
aS'G'
aS'T'
aS'C'
aS'T'
aS'G'
aS'A'
aS'C'
aS'T'
aS'T'
aS'G'
aS'G'
aS'A'
aS'T'
aS'C'
aS'T'
aS'C'
aS'A'
aS'C'
aS'C'
aS'C'
aS'C'
aS'A'
aS'A'
aS'C'
aS'T'
aS'C'
aS'T'
aS'G'
aS'C'
aS'A'
aS'C'
aS'C'
aS'C'
aS'C'
aS'C'
aS'C'
aS'C'
aS'A'
aS'G'
aS'C'
aS'T'
aS'G'
aS'C'
aS'T'
aS'G'
aS'T'
aS'G'
aS'T'
aS'G'
aS'A'
aS'G'
aS'A'
aS'C'
aS'C'
aS'G'
aS'A'
aS'G'
aS'G'
aS'G'
aS'C'
aS'C'
aS'G'
aS'G'
aS'G'
aS'T'
aS'C'
aS'C'
aS'G'
aS'C'
aS'G'
aS'T'
aS'G'
aS'G'
aS'A'
aS'G'
aS'A'
aS'C'
aS'C'
aS'A'
aS'C'
aS'C'
aS'A'
aS'A'
aS'G'
aS'G'
aS'A'
aS'C'
aS'C'
aS'G'
aS'C'
aS'A'
aS'G'
aS'C'
aS'A'
aS'T'
aS'C'
aS'T'
aS'T'
aS'C'
aS'A'
aS'C'
aS'G'
aS'G'
aS'T'
aS'C'
aS'G'
aS'A'
aS'G'
aS'G'
aS'G'
aS'G'
aS'G'
aS'C'
aS'A'
aS'G'
aS'A'
aS'G'
aS'A'
aS'A'
aS'G'
aS'G'
aS'A'
aS'A'
aS'G'
aS'A'
aS'T'
aS'G'
aS'A'
aS'G'
aS'G'
aS'G'
aS'C'
aS'G'
aS'T'
aS'C'
aS'T'
aS'A'
aS'C'
aS'A'
aS'C'
aS'G'
aS'G'
aS'T'
aS'G'
aS'A'
aS'C'
aS'A'
aS'G'
aS'T'
aS'G'
aS'A'
aS'A'
aS'G'
aS'A'
aS'A'
aS'C'
aS'C'
aS'C'
aS'T'
aS'G'
aS'T'
aS'G'
aS'G'
aS'G'
aS'C'
aS'G'
aS'A'
aS'G'
aS'G'
aS'A'
aS'C'
aS'C'
aS'A'
aS'G'
aS'G'
aS'T'
aS'C'
aS'A'
aS'A'
aS'C'
aS'C'
aS'T'
aS'C'
aS'A'
aS'C'
aS'A'
aS'G'
aS'T'
aS'C'
aS'A'
aS'A'
aS'G'
aS'G'
aS'T'
aS'C'
aS'A'
aS'T'
aS'C'
aS'G'
aS'G'
aS'T'
aS'G'
aS'A'
aS'G'
aS'G'
aS'C'
aS'C'
aS'G'
aS'G'
aS'C'
aS'C'
aS'G'
aS'G'
aS'G'
aS'G'
aS'T'
aS'C'
aS'C'
aS'A'
aS'A'
aS'G'
aS'C'
aS'T'
aS'G'
aS'G'
aS'A'
aS'G'
aS'A'
aS'A'
aS'C'
aS'A'
aS'C'
aS'A'
aS'G'
aS'A'
aS'G'
aS'G'
aS'G'
aS'G'
aS'C'
aS'A'
aS'G'
aS'C'
aS'C'
aS'C'
aS'C'
aS'A'
aS'A'
aS'G'
aS'G'
aS'A'
aS'G'
aS'G'
aS'G'
aS'C'
aS'C'
aS'C'
aS'A'
aS'T'
aS'C'
aS'C'
aS'G'
aS'T'
aS'T'
aS'C'
aS'G'
aS'C'
aS'T'
aS'C'
aS'A'
aS'T'
aS'T'
aS'C'
aS'A'
aS'G'
aS'C'
aS'C'
aS'A'
aS'C'
aS'T'
aS'C'
aS'G'
aS'A'
aS'C'
aS'A'
aS'A'
aS'A'
aS'C'
aS'A'
aS'T'
aS'C'
aS'A'
aS'C'
aS'G'
aS'G'
aS'G'
aS'C'
aS'A'
aS'T'
aS'G'
aS'C'
aS'T'
aS'C'
aS'C'
aS'C'
aS'T'
aS'G'
aS'A'
aS'G'
aS'C'
aS'C'
aS'G'
aS'A'
aS'G'
aS'C'
aS'G'
aS'G'
aS'C'
aS'A'
aS'A'
aS'C'
aS'A'
aS'G'
aS'G'
aS'A'
aS'C'
aS'A'
aS'G'
aS'G'
aS'T'
aS'T'
aS'T'
aS'T'
aS'T'
aS'C'
aS'T'
aS'G'
aS'C'
aS'C'
aS'C'
aS'A'
aS'A'
aS'A'
aS'A'
aS'G'
aS'G'
aS'A'
aS'G'
aS'C'
assI24
(dp135
g85
I19909
sg86
I104
sg87
I404
sg88
I20013
sg89
(lp136
S'G'
aS'A'
aS'A'
aS'A'
aS'G'
aS'A'
aS'A'
aS'A'
aS'T'
aS'G'
aS'C'
aS'A'
aS'T'
aS'T'
aS'C'
aS'T'
aS'A'
aS'G'
aS'A'
aS'A'
aS'A'
aS'G'
aS'A'
aS'T'
aS'C'
aS'T'
aS'C'
aS'T'
aS'T'
aS'T'
aS'G'
aS'G'
aS'A'
aS'T'
aS'C'
aS'T'
aS'G'
aS'G'
aS'G'
aS'G'
aS'G'
aS'T'
aS'G'
aS'G'
aS'T'
aS'G'
aS'G'
aS'G'
aS'G'
aS'G'
aS'C'
aS'A'
aS'G'
aS'C'
aS'C'
aS'T'
aS'G'
aS'T'
aS'G'
aS'G'
aS'C'
aS'G'
aS'G'
aS'T'
aS'T'
aS'A'
aS'G'
aS'T'
aS'T'
aS'G'
aS'G'
aS'A'
aS'G'
aS'T'
aS'G'
aS'G'
aS'G'
aS'A'
aS'A'
aS'G'
aS'G'
aS'G'
aS'G'
aS'A'
aS'C'
aS'G'
aS'A'
aS'G'
aS'C'
aS'A'
aS'A'
aS'C'
aS'G'
aS'T'
aS'T'
aS'A'
aS'C'
aS'T'
aS'C'
aS'A'
aS'A'
aS'G'
aS'G'
aS'C'
aS'C'
aS'C'
aS'T'
aS'G'
aS'A'
aS'G'
aS'C'
aS'G'
aS'G'
aS'G'
aS'G'
aS'C'
aS'A'
aS'G'
aS'G'
aS'G'
aS'C'
aS'T'
aS'G'
aS'A'
aS'T'
aS'G'
aS'T'
aS'G'
aS'G'
aS'G'
aS'T'
aS'C'
aS'C'
aS'A'
aS'T'
aS'C'
aS'C'
aS'C'
aS'A'
aS'C'
aS'C'
aS'C'
aS'C'
aS'A'
aS'T'
aS'C'
aS'C'
aS'A'
aS'G'
aS'A'
aS'C'
aS'G'
aS'T'
aS'G'
aS'C'
aS'C'
aS'A'
aS'G'
aS'G'
aS'C'
aS'G'
aS'C'
aS'A'
aS'C'
aS'C'
aS'T'
aS'G'
aS'C'
aS'G'
aS'G'
aS'C'
aS'C'
aS'C'
aS'C'
aS'C'
aS'A'
aS'A'
aS'G'
aS'A'
aS'T'
aS'C'
aS'A'
aS'G'
aS'C'
aS'A'
aS'A'
aS'C'
aS'G'
aS'T'
aS'G'
aS'G'
aS'G'
aS'A'
aS'G'
aS'A'
aS'G'
aS'G'
aS'A'
aS'C'
aS'T'
aS'C'
aS'C'
aS'T'
aS'G'
aS'C'
aS'A'
aS'C'
aS'A'
aS'G'
aS'T'
aS'A'
aS'C'
aS'A'
aS'G'
aS'T'
aS'G'
aS'G'
aS'G'
aS'A'
aS'G'
aS'C'
aS'C'
aS'G'
aS'C'
aS'C'
aS'T'
aS'G'
aS'C'
aS'C'
aS'T'
aS'A'
aS'C'
aS'G'
aS'A'
aS'T'
aS'G'
aS'G'
aS'C'
aS'G'
aS'G'
aS'G'
aS'C'
aS'A'
aS'G'
aS'C'
aS'C'
aS'C'
aS'A'
aS'T'
aS'C'
aS'C'
aS'T'
aS'G'
aS'G'
aS'G'
aS'T'
aS'G'
aS'A'
aS'G'
aS'T'
aS'G'
aS'C'
aS'A'
aS'A'
aS'G'
aS'G'
aS'G'
aS'C'
aS'A'
aS'C'
aS'C'
aS'G'
aS'G'
aS'A'
aS'T'
aS'G'
aS'G'
aS'A'
aS'G'
aS'G'
aS'T'
aS'G'
aS'T'
aS'G'
aS'A'
aS'G'
aS'G'
aS'G'
aS'C'
aS'G'
aS'C'
aS'C'
aS'A'
aS'A'
aS'A'
aS'C'
aS'A'
aS'G'
aS'A'
aS'T'
aS'C'
aS'C'
aS'G'
aS'A'
aS'G'
aS'G'
aS'G'
aS'A'
aS'A'
aS'G'
aS'G'
aS'T'
aS'G'
aS'G'
aS'T'
aS'G'
aS'T'
aS'G'
aS'G'
aS'G'
aS'G'
aS'A'
aS'T'
aS'G'
aS'C'
aS'C'
aS'T'
aS'G'
aS'G'
aS'G'
aS'T'
aS'T'
aS'C'
aS'C'
aS'A'
aS'G'
aS'A'
aS'C'
aS'C'
aS'A'
aS'G'
aS'A'
aS'G'
aS'C'
aS'T'
aS'G'
aS'C'
aS'C'
aS'A'
aS'C'
aS'C'
aS'T'
aS'C'
aS'C'
aS'C'
aS'C'
aS'T'
aS'G'
aS'A'
aS'G'
aS'C'
aS'C'
aS'A'
aS'G'
aS'G'
aS'C'
aS'T'
aS'A'
aS'C'
aS'A'
aS'T'
aS'C'
aS'C'
aS'T'
aS'G'
aS'G'
aS'A'
aS'G'
aS'C'
aS'G'
aS'C'
aS'A'
aS'A'
aS'G'
aS'A'
aS'A'
aS'G'
aS'A'
aS'A'
aS'G'
aS'A'
aS'A'
aS'G'
aS'A'
aS'G'
aS'C'
aS'T'
aS'A'
aS'C'
aS'C'
aS'G'
aS'G'
aS'T'
aS'G'
assI25
(dp137
g85
I20124
sg86
I188
sg87
I488
sg88
I20312
sg89
(lp138
S'G'
aS'G'
aS'G'
aS'A'
aS'G'
aS'C'
aS'C'
aS'G'
aS'C'
aS'C'
aS'T'
aS'G'
aS'C'
aS'C'
aS'T'
aS'A'
aS'C'
aS'G'
aS'A'
aS'T'
aS'G'
aS'G'
aS'C'
aS'G'
aS'G'
aS'G'
aS'C'
aS'A'
aS'G'
aS'C'
aS'C'
aS'C'
aS'A'
aS'T'
aS'C'
aS'C'
aS'T'
aS'G'
aS'G'
aS'G'
aS'T'
aS'G'
aS'A'
aS'G'
aS'T'
aS'G'
aS'C'
aS'A'
aS'A'
aS'G'
aS'G'
aS'G'
aS'C'
aS'A'
aS'C'
aS'C'
aS'G'
aS'G'
aS'A'
aS'T'
aS'G'
aS'G'
aS'A'
aS'G'
aS'G'
aS'T'
aS'G'
aS'T'
aS'G'
aS'A'
aS'G'
aS'G'
aS'G'
aS'C'
aS'G'
aS'C'
aS'C'
aS'A'
aS'A'
aS'A'
aS'C'
aS'A'
aS'G'
aS'A'
aS'T'
aS'C'
aS'C'
aS'G'
aS'A'
aS'G'
aS'G'
aS'G'
aS'A'
aS'A'
aS'G'
aS'G'
aS'T'
aS'G'
aS'G'
aS'T'
aS'G'
aS'T'
aS'G'
aS'G'
aS'G'
aS'G'
aS'A'
aS'T'
aS'G'
aS'C'
aS'C'
aS'T'
aS'G'
aS'G'
aS'G'
aS'T'
aS'T'
aS'C'
aS'C'
aS'A'
aS'G'
aS'A'
aS'C'
aS'C'
aS'A'
aS'G'
aS'A'
aS'G'
aS'C'
aS'T'
aS'G'
aS'C'
aS'C'
aS'A'
aS'C'
aS'C'
aS'T'
aS'C'
aS'C'
aS'C'
aS'C'
aS'T'
aS'G'
aS'A'
aS'G'
aS'C'
aS'C'
aS'A'
aS'G'
aS'G'
aS'C'
aS'T'
aS'A'
aS'C'
aS'A'
aS'T'
aS'C'
aS'C'
aS'T'
aS'G'
aS'G'
aS'A'
aS'G'
aS'C'
aS'G'
aS'C'
aS'A'
aS'A'
aS'G'
aS'A'
aS'A'
aS'G'
aS'A'
aS'A'
aS'G'
aS'A'
aS'A'
aS'G'
aS'A'
aS'G'
aS'C'
aS'T'
aS'A'
aS'C'
aS'C'
aS'G'
aS'G'
aS'T'
aS'G'
aS'G'
aS'A'
aS'T'
aS'G'
aS'C'
aS'G'
aS'G'
aS'C'
aS'T'
aS'G'
aS'A'
aS'A'
aS'C'
aS'T'
aS'T'
aS'C'
aS'G'
aS'A'
aS'C'
aS'C'
aS'T'
aS'G'
aS'T'
aS'T'
aS'T'
aS'C'
aS'A'
aS'G'
aS'G'
aS'A'
aS'G'
aS'C'
aS'T'
aS'G'
aS'A'
aS'G'
aS'T'
aS'C'
aS'A'
aS'T'
aS'G'
aS'A'
aS'A'
aS'G'
aS'C'
aS'G'
aS'C'
aS'G'
aS'G'
aS'C'
aS'G'
aS'C'
aS'A'
aS'T'
aS'G'
aS'A'
aS'T'
aS'C'
aS'G'
aS'A'
aS'G'
aS'G'
aS'G'
aS'C'
aS'G'
aS'T'
aS'G'
aS'G'
aS'T'
aS'G'
aS'T'
aS'A'
aS'C'
aS'G'
aS'A'
aS'G'
aS'A'
aS'T'
aS'G'
aS'C'
aS'G'
aS'C'
aS'G'
aS'T'
aS'C'
aS'T'
aS'A'
aS'C'
aS'G'
aS'C'
aS'G'
aS'G'
aS'T'
aS'C'
aS'A'
aS'A'
aS'C'
aS'G'
aS'C'
aS'C'
aS'A'
aS'T'
aS'C'
aS'G'
aS'G'
aS'C'
aS'A'
aS'T'
aS'G'
aS'T'
aS'C'
aS'C'
aS'A'
aS'G'
aS'G'
aS'C'
aS'C'
aS'C'
aS'A'
aS'G'
aS'C'
aS'C'
aS'C'
aS'T'
aS'G'
aS'C'
aS'C'
aS'T'
aS'C'
aS'C'
aS'C'
aS'A'
aS'G'
aS'C'
aS'C'
aS'C'
aS'T'
aS'T'
aS'C'
aS'A'
aS'T'
aS'G'
aS'C'
aS'C'
aS'T'
aS'A'
aS'T'
aS'C'
aS'G'
aS'G'
aS'T'
aS'G'
aS'A'
aS'G'
aS'C'
aS'C'
aS'T'
aS'G'
aS'C'
aS'C'
aS'T'
aS'G'
aS'G'
aS'C'
aS'C'
aS'T'
aS'G'
aS'G'
aS'T'
aS'C'
aS'C'
aS'T'
aS'G'
aS'C'
aS'C'
aS'C'
aS'C'
aS'C'
aS'C'
aS'G'
aS'C'
aS'C'
aS'C'
aS'C'
aS'C'
aS'T'
aS'C'
aS'C'
aS'C'
aS'C'
aS'A'
aS'G'
aS'T'
aS'T'
aS'A'
aS'A'
aS'A'
aS'A'
aS'A'
aS'C'
aS'C'
aS'T'
aS'C'
aS'C'
aS'A'
aS'A'
aS'T'
aS'A'
aS'A'
aS'T'
aS'A'
aS'G'
aS'C'
aS'A'
aS'G'
aS'G'
aS'T'
aS'G'
aS'C'
aS'T'
aS'C'
aS'T'
aS'G'
aS'C'
aS'A'
aS'G'
aS'G'
aS'C'
aS'A'
aS'G'
aS'C'
aS'C'
aS'A'
aS'T'
aS'G'
aS'C'
aS'T'
aS'A'
aS'G'
aS'A'
aS'C'
aS'A'
aS'C'
aS'T'
aS'C'
aS'A'
aS'C'
aS'A'
aS'T'
aS'C'
aS'C'
aS'A'
aS'C'
aS'A'
aS'G'
aS'T'
aS'C'
aS'T'
aS'C'
aS'C'
aS'T'
aS'T'
aS'T'
aS'C'
aS'A'
aS'T'
aS'C'
aS'C'
aS'T'
aS'C'
aS'G'
aS'A'
aS'C'
aS'T'
aS'G'
aS'G'
aS'G'
aS'G'
aS'A'
aS'T'
aS'A'
aS'C'
aS'T'
aS'C'
aS'A'
aS'G'
aS'C'
aS'C'
aS'G'
aS'C'
aS'A'
aS'T'
aS'T'
aS'T'
aS'T'
aS'A'
aS'C'
aS'A'
aS'G'
assI26
(dp139
g85
I21692
sg86
I134
sg87
I434
sg88
I21826
sg89
(lp140
S'A'
aS'C'
aS'A'
aS'G'
aS'G'
aS'G'
aS'A'
aS'C'
aS'A'
aS'A'
aS'A'
aS'A'
aS'T'
aS'A'
aS'T'
aS'T'
aS'C'
aS'C'
aS'T'
aS'T'
aS'A'
aS'A'
aS'A'
aS'G'
aS'T'
aS'G'
aS'G'
aS'C'
aS'C'
aS'A'
aS'A'
aS'A'
aS'A'
aS'G'
aS'C'
aS'C'
aS'A'
aS'G'
aS'C'
aS'T'
aS'G'
aS'A'
aS'A'
aS'C'
aS'A'
aS'G'
aS'G'
aS'A'
aS'A'
aS'G'
aS'T'
aS'G'
aS'C'
aS'C'
aS'C'
aS'C'
aS'C'
aS'T'
aS'A'
aS'T'
aS'G'
aS'T'
aS'G'
aS'A'
aS'C'
aS'C'
aS'A'
aS'G'
aS'T'
aS'G'
aS'G'
aS'G'
aS'C'
aS'A'
aS'G'
aS'T'
aS'T'
aS'C'
aS'A'
aS'G'
aS'A'
aS'G'
aS'T'
aS'C'
aS'T'
aS'A'
aS'G'
aS'G'
aS'G'
aS'C'
aS'A'
aS'T'
aS'G'
aS'G'
aS'A'
aS'T'
aS'C'
aS'T'
aS'C'
aS'C'
aS'A'
aS'G'
aS'C'
aS'T'
aS'T'
aS'C'
aS'C'
aS'C'
aS'C'
aS'A'
aS'G'
aS'G'
aS'C'
aS'T'
aS'T'
aS'G'
aS'C'
aS'T'
aS'C'
aS'A'
aS'G'
aS'A'
aS'C'
aS'C'
aS'C'
aS'C'
aS'T'
aS'C'
aS'T'
aS'C'
aS'T'
aS'G'
aS'A'
aS'C'
aS'C'
aS'T'
aS'C'
aS'T'
aS'C'
aS'C'
aS'T'
aS'C'
aS'T'
aS'G'
aS'C'
aS'C'
aS'C'
aS'A'
aS'G'
aS'G'
aS'T'
aS'C'
aS'C'
aS'C'
aS'C'
aS'C'
aS'C'
aS'C'
aS'G'
aS'C'
aS'G'
aS'A'
aS'A'
aS'C'
aS'C'
aS'C'
aS'A'
aS'C'
aS'C'
aS'C'
aS'A'
aS'C'
aS'C'
aS'T'
aS'G'
aS'G'
aS'C'
aS'A'
aS'G'
aS'T'
aS'A'
aS'G'
aS'A'
aS'G'
aS'G'
aS'A'
aS'C'
aS'G'
aS'T'
aS'C'
aS'T'
aS'C'
aS'T'
aS'G'
aS'A'
aS'C'
aS'A'
aS'C'
aS'C'
aS'A'
aS'C'
aS'G'
aS'G'
aS'T'
aS'C'
aS'T'
aS'C'
aS'C'
aS'C'
aS'T'
aS'C'
aS'A'
aS'A'
aS'G'
aS'T'
aS'G'
aS'G'
aS'C'
aS'G'
aS'G'
aS'C'
aS'C'
aS'C'
aS'C'
aS'C'
aS'A'
aS'G'
aS'A'
aS'G'
aS'C'
aS'G'
aS'C'
aS'G'
aS'T'
aS'G'
aS'G'
aS'G'
aS'A'
aS'G'
aS'C'
aS'A'
aS'G'
aS'G'
aS'A'
aS'G'
aS'G'
aS'C'
aS'C'
aS'T'
aS'G'
aS'G'
aS'A'
aS'T'
aS'G'
aS'G'
aS'C'
aS'T'
aS'A'
aS'C'
aS'A'
aS'G'
aS'C'
aS'G'
aS'T'
aS'G'
aS'G'
aS'A'
aS'G'
aS'T'
aS'A'
aS'C'
aS'T'
aS'G'
aS'C'
aS'C'
aS'C'
aS'A'
aS'G'
aS'A'
aS'G'
aS'G'
aS'G'
aS'C'
aS'T'
aS'G'
aS'T'
aS'G'
aS'A'
aS'G'
aS'T'
aS'G'
aS'T'
aS'C'
aS'C'
aS'C'
aS'C'
aS'G'
aS'C'
aS'C'
aS'C'
aS'C'
aS'C'
aS'A'
aS'A'
aS'C'
aS'C'
aS'C'
aS'C'
aS'C'
aS'C'
aS'T'
aS'C'
aS'C'
aS'C'
aS'C'
aS'A'
aS'A'
aS'A'
aS'G'
aS'G'
aS'A'
aS'A'
aS'G'
aS'A'
aS'A'
aS'C'
aS'A'
aS'T'
aS'G'
aS'C'
aS'T'
aS'C'
aS'A'
aS'C'
aS'C'
aS'T'
aS'T'
aS'G'
aS'C'
aS'C'
aS'A'
aS'T'
aS'T'
aS'G'
aS'A'
aS'G'
aS'C'
aS'A'
aS'G'
aS'A'
aS'T'
aS'T'
aS'C'
aS'A'
aS'C'
aS'C'
aS'T'
aS'G'
aS'T'
aS'A'
aS'G'
aS'T'
aS'C'
aS'A'
aS'A'
aS'G'
aS'T'
aS'T'
aS'T'
aS'T'
aS'T'
aS'T'
aS'A'
aS'G'
aS'G'
aS'C'
aS'C'
aS'C'
aS'A'
aS'C'
aS'T'
aS'T'
aS'T'
aS'T'
aS'G'
aS'C'
aS'C'
aS'G'
aS'A'
aS'A'
aS'A'
aS'G'
aS'T'
aS'T'
aS'G'
aS'A'
aS'G'
aS'G'
aS'A'
aS'C'
aS'A'
aS'C'
aS'C'
aS'C'
aS'A'
aS'G'
aS'A'
aS'G'
aS'A'
aS'A'
aS'A'
aS'T'
aS'A'
aS'T'
aS'C'
aS'T'
aS'G'
aS'T'
aS'C'
aS'C'
aS'T'
aS'G'
aS'T'
aS'T'
aS'T'
aS'T'
aS'C'
aS'A'
aS'G'
aS'A'
aS'A'
aS'G'
aS'T'
aS'A'
assI27
(dp141
g85
I22494
sg86
I167
sg87
I467
sg88
I22661
sg89
(lp142
S'C'
aS'G'
aS'A'
aS'A'
aS'A'
aS'C'
aS'T'
aS'C'
aS'C'
aS'A'
aS'T'
aS'C'
aS'T'
aS'C'
aS'A'
aS'A'
aS'A'
aS'A'
aS'A'
aS'T'
aS'A'
aS'A'
aS'A'
aS'T'
aS'A'
aS'A'
aS'A'
aS'C'
aS'A'
aS'A'
aS'A'
aS'T'
aS'A'
aS'A'
aS'A'
aS'A'
aS'A'
aS'T'
aS'T'
aS'T'
aS'A'
aS'A'
aS'A'
aS'A'
aS'A'
aS'A'
aS'A'
aS'C'
aS'A'
aS'T'
aS'A'
aS'T'
aS'T'
aS'T'
aS'A'
aS'A'
aS'A'
aS'T'
aS'C'
aS'C'
aS'T'
aS'G'
aS'G'
aS'A'
aS'G'
aS'A'
aS'T'
aS'T'
aS'C'
aS'C'
aS'T'
aS'A'
aS'T'
aS'C'
aS'A'
aS'G'
aS'A'
aS'G'
aS'G'
aS'A'
aS'G'
aS'T'
aS'G'
aS'G'
aS'G'
aS'C'
aS'A'
aS'G'
aS'T'
aS'G'
aS'G'
aS'G'
aS'A'
aS'G'
aS'T'
aS'G'
aS'G'
aS'G'
aS'G'
aS'T'
aS'G'
aS'T'
aS'C'
aS'A'
aS'G'
aS'T'
aS'G'
aS'G'
aS'T'
aS'G'
aS'A'
aS'C'
aS'A'
aS'C'
aS'A'
aS'G'
aS'C'
aS'C'
aS'T'
aS'G'
aS'T'
aS'G'
aS'G'
aS'C'
aS'C'
aS'T'
aS'T'
aS'G'
aS'C'
aS'C'
aS'T'
aS'C'
aS'C'
aS'C'
aS'C'
aS'C'
aS'T'
aS'C'
aS'C'
aS'C'
aS'C'
aS'A'
aS'C'
aS'C'
aS'C'
aS'C'
aS'C'
aS'A'
aS'G'
aS'G'
aS'C'
aS'T'
aS'C'
aS'A'
aS'G'
aS'A'
aS'G'
aS'T'
aS'G'
aS'G'
aS'G'
aS'T'
aS'G'
aS'G'
aS'C'
aS'T'
aS'G'
aS'C'
aS'C'
aS'C'
aS'T'
aS'G'
aS'C'
aS'A'
aS'G'
aS'G'
aS'G'
aS'G'
aS'C'
aS'T'
aS'G'
aS'A'
aS'C'
aS'A'
aS'G'
aS'A'
aS'G'
aS'C'
aS'A'
aS'C'
aS'A'
aS'A'
aS'A'
aS'T'
aS'C'
aS'G'
aS'A'
aS'T'
aS'A'
aS'C'
aS'T'
aS'G'
aS'G'
aS'T'
aS'G'
aS'A'
aS'A'
aS'G'
aS'G'
aS'A'
aS'C'
aS'C'
aS'T'
aS'G'
aS'C'
aS'C'
aS'C'
aS'A'
aS'C'
aS'G'
aS'G'
aS'G'
aS'G'
aS'G'
aS'C'
aS'C'
aS'C'
aS'G'
aS'G'
aS'C'
aS'T'
aS'G'
aS'C'
aS'T'
aS'T'
aS'T'
aS'T'
aS'C'
aS'C'
aS'G'
aS'A'
aS'G'
aS'T'
aS'G'
aS'C'
aS'G'
aS'G'
aS'G'
aS'C'
aS'A'
aS'C'
aS'A'
aS'C'
aS'A'
aS'A'
aS'T'
aS'A'
aS'T'
aS'G'
aS'G'
aS'C'
aS'A'
aS'G'
aS'G'
aS'G'
aS'C'
aS'C'
aS'T'
aS'G'
aS'G'
aS'A'
aS'G'
aS'C'
aS'C'
aS'C'
aS'C'
aS'T'
aS'G'
aS'T'
aS'T'
aS'A'
aS'C'
aS'C'
aS'A'
aS'C'
aS'C'
aS'A'
aS'C'
aS'G'
aS'G'
aS'A'
aS'G'
aS'C'
aS'C'
aS'G'
aS'G'
aS'T'
aS'G'
aS'A'
aS'C'
aS'A'
aS'G'
aS'T'
aS'G'
aS'C'
aS'A'
aS'G'
aS'G'
aS'A'
aS'G'
aS'A'
aS'T'
aS'C'
aS'C'
aS'T'
aS'G'
aS'C'
aS'G'
aS'T'
aS'G'
aS'A'
aS'G'
aS'T'
aS'G'
aS'C'
aS'C'
aS'C'
aS'C'
aS'T'
aS'T'
aS'T'
aS'G'
aS'T'
aS'G'
aS'C'
aS'A'
aS'G'
aS'T'
aS'C'
aS'A'
aS'C'
aS'A'
aS'A'
aS'G'
aS'A'
aS'C'
aS'C'
aS'C'
aS'G'
aS'C'
aS'C'
aS'A'
aS'T'
aS'T'
aS'G'
aS'A'
aS'C'
aS'A'
aS'C'
aS'C'
aS'C'
aS'C'
aS'A'
aS'G'
aS'G'
aS'C'
aS'C'
aS'C'
aS'T'
aS'T'
aS'G'
aS'G'
aS'T'
aS'G'
aS'T'
aS'C'
aS'C'
aS'A'
aS'G'
aS'T'
aS'G'
aS'G'
aS'A'
aS'G'
aS'G'
aS'T'
aS'G'
aS'G'
aS'G'
aS'G'
aS'A'
aS'C'
aS'A'
aS'G'
aS'T'
aS'T'
aS'G'
aS'G'
aS'G'
aS'G'
aS'A'
aS'G'
aS'G'
aS'C'
aS'C'
aS'C'
aS'A'
aS'G'
aS'A'
aS'A'
aS'T'
aS'G'
aS'C'
aS'T'
aS'C'
aS'T'
aS'G'
aS'C'
aS'C'
aS'C'
aS'A'
aS'G'
aS'A'
aS'A'
aS'C'
aS'G'
aS'C'
aS'T'
aS'G'
aS'G'
aS'G'
aS'C'
aS'A'
aS'G'
aS'A'
aS'G'
aS'A'
aS'C'
aS'A'
aS'G'
aS'G'
aS'A'
aS'G'
aS'G'
aS'G'
aS'G'
aS'T'
aS'T'
aS'G'
aS'G'
aS'A'
aS'G'
aS'C'
aS'C'
aS'A'
aS'T'
aS'C'
aS'G'
aS'T'
aS'C'
aS'C'
aS'A'
aS'T'
aS'G'
aS'C'
aS'G'
aS'C'
assI28
(dp143
g85
I23693
sg86
I88
sg87
I388
sg88
I23781
sg89
(lp144
S'T'
aS'T'
aS'A'
aS'G'
aS'C'
aS'A'
aS'G'
aS'G'
aS'A'
aS'G'
aS'C'
aS'T'
aS'A'
aS'A'
aS'A'
aS'G'
aS'G'
aS'A'
aS'G'
aS'G'
aS'C'
aS'G'
aS'C'
aS'A'
aS'G'
aS'G'
aS'G'
aS'C'
aS'C'
aS'C'
aS'A'
aS'G'
aS'C'
aS'A'
aS'G'
aS'G'
aS'C'
aS'A'
aS'G'
aS'C'
aS'T'
aS'T'
aS'T'
aS'T'
aS'T'
aS'T'
aS'C'
aS'T'
aS'T'
aS'A'
aS'G'
aS'C'
aS'T'
aS'G'
aS'C'
aS'A'
aS'G'
aS'C'
aS'T'
aS'C'
aS'T'
aS'C'
aS'T'
aS'G'
aS'G'
aS'G'
aS'C'
aS'C'
aS'T'
aS'T'
aS'G'
aS'T'
aS'C'
aS'T'
aS'C'
aS'A'
aS'A'
aS'G'
aS'G'
aS'G'
aS'A'
aS'G'
aS'G'
aS'T'
aS'T'
aS'G'
aS'G'
aS'A'
aS'G'
aS'C'
aS'T'
aS'G'
aS'T'
aS'G'
aS'G'
aS'A'
aS'G'
aS'C'
aS'C'
aS'C'
aS'C'
aS'T'
aS'C'
aS'A'
aS'G'
aS'A'
aS'G'
aS'C'
aS'T'
aS'G'
aS'T'
aS'G'
aS'G'
aS'C'
aS'G'
aS'G'
aS'G'
aS'C'
aS'C'
aS'C'
aS'T'
aS'C'
aS'A'
aS'C'
aS'T'
aS'T'
aS'A'
aS'G'
aS'C'
aS'T'
aS'A'
aS'C'
aS'C'
aS'C'
aS'A'
aS'C'
aS'T'
aS'C'
aS'T'
aS'A'
aS'T'
aS'A'
aS'C'
aS'C'
aS'C'
aS'A'
aS'C'
aS'A'
aS'G'
aS'A'
aS'A'
aS'C'
aS'G'
aS'G'
aS'C'
aS'C'
aS'A'
aS'C'
aS'G'
aS'G'
aS'C'
aS'T'
aS'T'
aS'C'
aS'A'
aS'G'
aS'C'
aS'T'
aS'G'
aS'C'
aS'C'
aS'C'
aS'A'
aS'G'
aS'G'
aS'C'
aS'A'
aS'C'
aS'C'
aS'T'
aS'G'
aS'C'
aS'G'
aS'C'
aS'C'
aS'A'
aS'G'
aS'A'
aS'C'
aS'C'
aS'A'
aS'T'
aS'T'
aS'C'
aS'A'
aS'G'
aS'A'
aS'A'
aS'G'
aS'A'
aS'A'
aS'G'
aS'G'
aS'T'
aS'C'
aS'G'
aS'G'
aS'G'
aS'G'
aS'A'
aS'G'
aS'C'
aS'C'
aS'T'
aS'G'
aS'T'
aS'G'
aS'A'
aS'A'
aS'C'
aS'C'
aS'T'
aS'T'
aS'C'
aS'T'
aS'C'
aS'A'
aS'T'
aS'C'
aS'C'
aS'T'
aS'T'
aS'T'
aS'T'
aS'C'
aS'C'
aS'A'
aS'G'
aS'G'
aS'T'
aS'G'
aS'G'
aS'G'
aS'A'
aS'C'
aS'T'
aS'G'
aS'G'
aS'C'
aS'C'
aS'C'
aS'C'
aS'C'
aS'T'
aS'T'
aS'C'
aS'C'
aS'C'
aS'T'
aS'G'
aS'T'
aS'C'
aS'C'
aS'C'
aS'C'
aS'C'
aS'A'
aS'G'
aS'G'
aS'G'
aS'G'
aS'A'
aS'G'
aS'A'
aS'G'
aS'A'
aS'G'
aS'G'
aS'C'
aS'T'
aS'A'
aS'T'
aS'A'
aS'G'
aS'T'
aS'G'
aS'T'
aS'G'
aS'T'
aS'T'
aS'G'
aS'T'
aS'T'
aS'C'
aS'C'
aS'C'
aS'A'
aS'T'
aS'C'
aS'C'
aS'A'
aS'G'
aS'T'
aS'G'
aS'G'
aS'A'
aS'C'
aS'T'
aS'G'
aS'A'
aS'T'
aS'G'
aS'T'
aS'C'
aS'T'
aS'C'
aS'A'
aS'G'
aS'G'
aS'G'
aS'C'
aS'T'
aS'G'
aS'G'
aS'C'
aS'C'
aS'T'
aS'G'
aS'A'
aS'T'
aS'C'
aS'T'
aS'G'
aS'A'
aS'G'
aS'G'
aS'T'
aS'A'
aS'C'
aS'C'
aS'A'
aS'G'
aS'A'
aS'G'
aS'G'
aS'C'
aS'T'
aS'G'
aS'G'
aS'G'
aS'G'
aS'T'
aS'G'
aS'G'
aS'C'
aS'G'
aS'G'
aS'C'
aS'C'
aS'G'
aS'G'
aS'C'
aS'C'
aS'C'
aS'T'
aS'T'
aS'G'
aS'G'
aS'A'
aS'G'
aS'T'
aS'G'
aS'A'
aS'T'
aS'C'
aS'C'
aS'A'
aS'G'
aS'G'
aS'T'
aS'T'
aS'C'
aS'A'
aS'G'
aS'G'
aS'G'
aS'T'
aS'T'
assI29
(dp145
g85
I23951
sg86
I195
sg87
I495
sg88
I24146
sg89
(lp146
S'T'
aS'G'
aS'T'
aS'C'
aS'C'
aS'C'
aS'C'
aS'C'
aS'A'
aS'G'
aS'G'
aS'G'
aS'G'
aS'A'
aS'G'
aS'A'
aS'G'
aS'A'
aS'G'
aS'G'
aS'C'
aS'T'
aS'A'
aS'T'
aS'A'
aS'G'
aS'T'
aS'G'
aS'T'
aS'G'
aS'T'
aS'T'
aS'G'
aS'T'
aS'T'
aS'C'
aS'C'
aS'C'
aS'A'
aS'T'
aS'C'
aS'C'
aS'A'
aS'G'
aS'T'
aS'G'
aS'G'
aS'A'
aS'C'
aS'T'
aS'G'
aS'A'
aS'T'
aS'G'
aS'T'
aS'C'
aS'T'
aS'C'
aS'A'
aS'G'
aS'G'
aS'G'
aS'C'
aS'T'
aS'G'
aS'G'
aS'C'
aS'C'
aS'T'
aS'G'
aS'A'
aS'T'
aS'C'
aS'T'
aS'G'
aS'A'
aS'G'
aS'G'
aS'T'
aS'A'
aS'C'
aS'C'
aS'A'
aS'G'
aS'A'
aS'G'
aS'G'
aS'C'
aS'T'
aS'G'
aS'G'
aS'G'
aS'G'
aS'T'
aS'G'
aS'G'
aS'C'
aS'G'
aS'G'
aS'C'
aS'C'
aS'G'
aS'G'
aS'C'
aS'C'
aS'C'
aS'T'
aS'T'
aS'G'
aS'G'
aS'A'
aS'G'
aS'T'
aS'G'
aS'A'
aS'T'
aS'C'
aS'C'
aS'A'
aS'G'
aS'G'
aS'T'
aS'T'
aS'C'
aS'A'
aS'G'
aS'G'
aS'G'
aS'T'
aS'T'
aS'A'
aS'A'
aS'G'
aS'C'
aS'T'
aS'T'
aS'T'
aS'T'
aS'C'
aS'C'
aS'T'
aS'C'
aS'C'
aS'C'
aS'C'
aS'T'
aS'C'
aS'A'
aS'G'
aS'G'
aS'G'
aS'C'
aS'A'
aS'A'
aS'G'
aS'C'
aS'C'
aS'C'
aS'C'
aS'G'
aS'G'
aS'C'
aS'C'
aS'T'
aS'C'
aS'A'
aS'G'
aS'G'
aS'T'
aS'G'
aS'A'
aS'C'
aS'C'
aS'T'
aS'G'
aS'G'
aS'A'
aS'C'
aS'C'
aS'A'
aS'A'
aS'A'
aS'G'
aS'A'
aS'G'
aS'G'
aS'G'
aS'G'
aS'C'
aS'A'
aS'G'
aS'C'
aS'C'
aS'C'
aS'C'
aS'T'
aS'G'
aS'G'
aS'C'
aS'A'
aS'G'
aS'G'
aS'C'
aS'G'
aS'A'
aS'G'
aS'G'
aS'A'
aS'G'
aS'G'
aS'T'
aS'G'
aS'A'
aS'G'
aS'C'
aS'A'
aS'T'
aS'C'
aS'C'
aS'G'
aS'C'
aS'A'
aS'A'
aS'C'
aS'A'
aS'G'
aS'C'
aS'C'
aS'C'
aS'T'
aS'A'
aS'C'
aS'A'
aS'G'
aS'A'
aS'C'
aS'A'
aS'C'
aS'C'
aS'A'
aS'T'
aS'C'
aS'C'
aS'T'
aS'G'
aS'T'
aS'T'
aS'C'
aS'A'
aS'T'
aS'C'
aS'C'
aS'G'
aS'G'
aS'G'
aS'C'
aS'C'
aS'G'
aS'C'
aS'T'
aS'C'
aS'G'
aS'C'
aS'C'
aS'G'
aS'C'
aS'G'
aS'T'
aS'G'
aS'C'
aS'A'
aS'T'
aS'T'
aS'C'
aS'A'
aS'G'
aS'G'
aS'C'
aS'A'
aS'C'
aS'T'
aS'T'
aS'A'
aS'C'
aS'C'
aS'A'
aS'G'
aS'G'
aS'T'
aS'G'
aS'A'
aS'C'
aS'G'
aS'G'
aS'T'
aS'G'
aS'C'
aS'G'
aS'C'
aS'A'
aS'T'
aS'T'
aS'G'
aS'A'
aS'G'
aS'A'
aS'A'
aS'C'
aS'A'
aS'T'
aS'G'
aS'G'
aS'A'
aS'G'
aS'G'
aS'A'
aS'C'
aS'A'
aS'A'
aS'G'
aS'G'
aS'C'
aS'C'
aS'A'
aS'C'
aS'G'
aS'C'
aS'T'
aS'G'
aS'G'
aS'T'
aS'G'
aS'C'
aS'T'
aS'G'
aS'C'
aS'A'
aS'G'
aS'G'
aS'T'
aS'T'
aS'G'
aS'T'
aS'T'
aS'G'
aS'G'
aS'T'
aS'G'
aS'C'
aS'G'
aS'T'
aS'G'
aS'G'
aS'C'
aS'C'
aS'A'
aS'A'
aS'G'
aS'G'
aS'C'
aS'C'
aS'T'
aS'C'
aS'C'
aS'T'
aS'T'
aS'G'
aS'A'
aS'G'
aS'C'
aS'C'
aS'C'
aS'C'
aS'C'
aS'T'
aS'T'
aS'G'
aS'T'
aS'T'
aS'T'
aS'C'
aS'C'
aS'C'
aS'T'
aS'T'
aS'C'
aS'C'
aS'C'
aS'T'
aS'G'
aS'G'
aS'G'
aS'C'
aS'T'
aS'G'
aS'G'
aS'G'
aS'C'
aS'T'
aS'G'
aS'C'
aS'T'
aS'G'
aS'G'
aS'G'
aS'G'
aS'C'
aS'C'
aS'A'
aS'A'
aS'G'
aS'G'
aS'G'
aS'T'
aS'G'
aS'G'
aS'G'
aS'G'
aS'C'
aS'C'
aS'A'
aS'G'
aS'G'
aS'G'
aS'G'
aS'A'
aS'C'
aS'C'
aS'C'
aS'A'
aS'A'
aS'C'
aS'C'
aS'C'
aS'A'
aS'C'
aS'A'
aS'G'
aS'C'
aS'T'
aS'C'
aS'A'
aS'C'
aS'A'
aS'T'
aS'T'
aS'T'
aS'T'
aS'C'
aS'C'
aS'A'
aS'G'
aS'T'
aS'C'
aS'C'
aS'A'
aS'C'
aS'T'
aS'G'
aS'C'
aS'C'
aS'C'
aS'C'
aS'A'
aS'G'
aS'C'
aS'A'
aS'G'
aS'G'
aS'C'
aS'C'
aS'T'
aS'G'
aS'G'
aS'C'
aS'C'
aS'C'
aS'T'
aS'G'
aS'G'
aS'T'
aS'T'
aS'G'
aS'G'
aS'C'
aS'A'
aS'G'
aS'G'
aS'G'
aS'G'
aS'T'
aS'G'
aS'G'
aS'G'
aS'G'
assI30
(dp147
g85
I24370
sg86
I139
sg87
I439
sg88
I24509
sg89
(lp148
S'C'
aS'A'
aS'G'
aS'G'
aS'G'
aS'G'
aS'A'
aS'C'
aS'C'
aS'C'
aS'A'
aS'A'
aS'C'
aS'C'
aS'C'
aS'A'
aS'C'
aS'A'
aS'G'
aS'C'
aS'T'
aS'C'
aS'A'
aS'C'
aS'A'
aS'T'
aS'T'
aS'T'
aS'T'
aS'C'
aS'C'
aS'A'
aS'G'
aS'T'
aS'C'
aS'C'
aS'A'
aS'C'
aS'T'
aS'G'
aS'C'
aS'C'
aS'C'
aS'C'
aS'A'
aS'G'
aS'C'
aS'A'
aS'G'
aS'G'
aS'C'
aS'C'
aS'T'
aS'G'
aS'G'
aS'C'
aS'C'
aS'C'
aS'T'
aS'G'
aS'G'
aS'T'
aS'T'
aS'G'
aS'G'
aS'C'
aS'A'
aS'G'
aS'G'
aS'G'
aS'G'
aS'T'
aS'G'
aS'G'
aS'G'
aS'G'
aS'T'
aS'G'
aS'G'
aS'T'
aS'C'
aS'C'
aS'C'
aS'T'
aS'G'
aS'G'
aS'A'
aS'G'
aS'C'
aS'C'
aS'A'
aS'G'
aS'T'
aS'G'
aS'A'
aS'C'
aS'C'
aS'C'
aS'C'
aS'C'
aS'T'
aS'G'
aS'C'
aS'T'
aS'C'
aS'A'
aS'C'
aS'T'
aS'G'
aS'T'
aS'C'
aS'A'
aS'G'
aS'G'
aS'A'
aS'G'
aS'G'
aS'C'
aS'G'
aS'T'
aS'G'
aS'G'
aS'T'
aS'G'
aS'A'
aS'C'
aS'C'
aS'C'
aS'A'
aS'A'
aS'C'
aS'T'
aS'G'
aS'G'
aS'G'
aS'T'
aS'C'
aS'T'
aS'G'
aS'T'
aS'C'
aS'T'
aS'C'
aS'C'
aS'C'
aS'G'
aS'C'
aS'A'
aS'G'
aS'A'
aS'C'
aS'A'
aS'A'
aS'G'
aS'C'
aS'C'
aS'A'
aS'A'
aS'G'
aS'T'
aS'C'
aS'C'
aS'T'
aS'C'
aS'C'
aS'C'
aS'C'
aS'A'
aS'G'
aS'G'
aS'A'
aS'T'
aS'C'
aS'T'
aS'C'
aS'C'
aS'G'
aS'G'
aS'G'
aS'T'
aS'G'
aS'A'
aS'C'
aS'T'
aS'G'
aS'A'
aS'C'
aS'G'
aS'C'
aS'C'
aS'T'
aS'G'
aS'G'
aS'G'
aS'G'
aS'T'
aS'C'
aS'T'
aS'T'
aS'A'
aS'A'
aS'T'
aS'G'
aS'T'
aS'G'
aS'G'
aS'C'
aS'T'
aS'C'
aS'T'
aS'G'
aS'G'
aS'A'
aS'G'
aS'T'
aS'G'
aS'G'
aS'A'
aS'A'
aS'G'
aS'C'
aS'C'
aS'A'
aS'C'
aS'C'
aS'C'
aS'T'
aS'A'
aS'G'
aS'G'
aS'A'
aS'T'
aS'G'
aS'T'
aS'C'
aS'G'
aS'G'
aS'C'
aS'A'
aS'A'
aS'C'
aS'A'
aS'C'
aS'G'
aS'G'
aS'A'
aS'G'
aS'C'
aS'T'
aS'C'
aS'T'
aS'G'
aS'G'
aS'G'
aS'G'
aS'G'
aS'T'
aS'A'
aS'C'
aS'A'
aS'C'
aS'A'
aS'G'
aS'T'
aS'G'
aS'C'
aS'A'
aS'G'
aS'A'
aS'A'
aS'A'
aS'G'
aS'C'
aS'C'
aS'G'
aS'A'
aS'C'
aS'A'
aS'A'
aS'G'
aS'A'
aS'A'
aS'G'
aS'A'
aS'C'
aS'C'
aS'A'
aS'T'
aS'G'
aS'G'
aS'T'
aS'G'
aS'A'
aS'G'
aS'C'
aS'C'
aS'C'
aS'A'
aS'G'
aS'G'
aS'G'
aS'T'
aS'C'
aS'T'
aS'G'
aS'G'
aS'G'
aS'G'
aS'T'
aS'C'
aS'C'
aS'C'
aS'C'
aS'A'
aS'C'
aS'G'
aS'T'
aS'G'
aS'C'
aS'A'
aS'C'
aS'C'
aS'C'
aS'T'
aS'G'
aS'C'
aS'C'
aS'T'
aS'A'
aS'G'
aS'G'
aS'C'
aS'C'
aS'C'
aS'G'
aS'G'
aS'C'
aS'A'
aS'G'
aS'A'
aS'C'
aS'C'
aS'C'
aS'A'
aS'G'
aS'G'
aS'C'
aS'C'
aS'G'
aS'C'
aS'A'
aS'G'
aS'C'
aS'T'
aS'A'
aS'C'
aS'C'
aS'C'
aS'T'
aS'T'
aS'C'
aS'A'
aS'C'
aS'T'
aS'G'
aS'T'
aS'C'
aS'C'
aS'T'
aS'C'
aS'A'
aS'C'
aS'C'
aS'G'
aS'T'
aS'G'
aS'G'
aS'A'
aS'C'
aS'C'
aS'C'
aS'C'
aS'T'
aS'C'
aS'A'
aS'C'
aS'C'
aS'C'
aS'T'
aS'C'
aS'C'
aS'C'
aS'T'
aS'C'
aS'T'
aS'G'
aS'C'
aS'T'
aS'G'
aS'A'
aS'T'
aS'C'
aS'T'
aS'G'
aS'A'
aS'A'
aS'T'
aS'C'
aS'C'
aS'C'
aS'T'
aS'C'
aS'C'
aS'A'
aS'T'
aS'A'
aS'G'
aS'T'
aS'A'
aS'G'
aS'G'
aS'G'
aS'G'
aS'T'
aS'G'
aS'G'
aS'A'
aS'G'
aS'A'
aS'T'
aS'G'
aS'C'
aS'C'
aS'A'
aS'A'
aS'G'
aS'G'
aS'G'
aS'C'
assI31
(dp149
g85
I24730
sg86
I159
sg87
I459
sg88
I24889
sg89
(lp150
S'C'
aS'A'
aS'C'
aS'T'
aS'G'
aS'T'
aS'C'
aS'C'
aS'T'
aS'C'
aS'A'
aS'C'
aS'C'
aS'G'
aS'T'
aS'G'
aS'G'
aS'A'
aS'C'
aS'C'
aS'C'
aS'C'
aS'T'
aS'C'
aS'A'
aS'C'
aS'C'
aS'C'
aS'T'
aS'C'
aS'C'
aS'C'
aS'T'
aS'C'
aS'T'
aS'G'
aS'C'
aS'T'
aS'G'
aS'A'
aS'T'
aS'C'
aS'T'
aS'G'
aS'A'
aS'A'
aS'T'
aS'C'
aS'C'
aS'C'
aS'T'
aS'C'
aS'C'
aS'A'
aS'T'
aS'A'
aS'G'
aS'T'
aS'A'
aS'G'
aS'G'
aS'G'
aS'G'
aS'T'
aS'G'
aS'G'
aS'A'
aS'G'
aS'A'
aS'T'
aS'G'
aS'C'
aS'C'
aS'A'
aS'A'
aS'G'
aS'G'
aS'G'
aS'C'
aS'A'
aS'C'
aS'C'
aS'C'
aS'A'
aS'G'
aS'G'
aS'A'
aS'G'
aS'A'
aS'G'
aS'G'
aS'C'
aS'T'
aS'C'
aS'T'
aS'C'
aS'G'
aS'G'
aS'C'
aS'A'
aS'T'
aS'C'
aS'A'
aS'G'
aS'G'
aS'A'
aS'A'
aS'G'
aS'G'
aS'G'
aS'C'
aS'C'
aS'T'
aS'G'
aS'G'
aS'C'
aS'C'
aS'C'
aS'A'
aS'G'
aS'A'
aS'G'
aS'A'
aS'T'
aS'G'
aS'C'
aS'C'
aS'T'
aS'C'
aS'C'
aS'C'
aS'C'
aS'T'
aS'C'
aS'C'
aS'C'
aS'T'
aS'C'
aS'C'
aS'C'
aS'T'
aS'G'
aS'C'
aS'C'
aS'C'
aS'C'
aS'C'
aS'A'
aS'G'
aS'G'
aS'A'
aS'G'
aS'T'
aS'G'
aS'G'
aS'T'
aS'T'
aS'C'
aS'A'
aS'C'
aS'C'
aS'G'
aS'T'
aS'C'
aS'T'
aS'T'
aS'G'
aS'G'
aS'A'
aS'G'
aS'C'
aS'A'
aS'T'
aS'T'
aS'A'
aS'C'
aS'C'
aS'G'
aS'C'
aS'C'
aS'G'
aS'C'
aS'A'
aS'C'
aS'C'
aS'C'
aS'A'
aS'C'
aS'T'
aS'G'
aS'C'
aS'G'
aS'T'
aS'G'
aS'G'
aS'T'
aS'G'
aS'C'
aS'C'
aS'A'
aS'G'
aS'A'
aS'G'
aS'C'
aS'T'
aS'C'
aS'A'
aS'T'
aS'C'
aS'A'
aS'T'
aS'T'
aS'G'
aS'G'
aS'C'
aS'A'
aS'A'
aS'T'
aS'G'
aS'G'
aS'C'
aS'T'
aS'A'
aS'C'
aS'T'
aS'A'
aS'C'
aS'T'
aS'T'
aS'C'
aS'C'
aS'G'
aS'C'
aS'G'
aS'T'
aS'C'
aS'T'
aS'T'
aS'C'
aS'A'
aS'G'
aS'C'
aS'C'
aS'A'
aS'G'
aS'A'
aS'A'
aS'T'
aS'A'
aS'T'
aS'G'
aS'G'
aS'T'
aS'T'
aS'G'
aS'G'
aS'C'
aS'T'
aS'T'
aS'T'
aS'A'
aS'G'
aS'T'
aS'G'
aS'A'
aS'C'
aS'A'
aS'G'
aS'A'
aS'G'
aS'C'
aS'G'
aS'G'
aS'C'
aS'C'
aS'A'
aS'C'
aS'C'
aS'A'
aS'C'
aS'C'
aS'A'
aS'A'
aS'G'
aS'G'
aS'A'
aS'G'
aS'C'
aS'C'
aS'C'
aS'G'
aS'T'
aS'C'
aS'T'
aS'T'
aS'T'
aS'A'
aS'T'
aS'C'
aS'C'
aS'C'
aS'T'
aS'A'
aS'G'
aS'A'
aS'C'
aS'C'
aS'A'
aS'G'
aS'G'
aS'T'
aS'G'
aS'C'
aS'T'
aS'G'
aS'T'
aS'A'
aS'C'
aS'C'
aS'C'
aS'T'
aS'C'
aS'A'
aS'T'
aS'T'
aS'C'
aS'T'
aS'T'
aS'C'
aS'C'
aS'A'
aS'A'
aS'C'
aS'C'
aS'A'
aS'G'
aS'G'
aS'G'
aS'G'
aS'C'
aS'T'
aS'G'
aS'G'
aS'G'
aS'G'
aS'C'
aS'A'
aS'G'
aS'G'
aS'G'
aS'A'
aS'G'
aS'G'
aS'C'
aS'T'
aS'G'
aS'T'
aS'G'
aS'G'
aS'G'
aS'A'
aS'A'
aS'C'
aS'A'
aS'G'
aS'G'
aS'G'
aS'A'
aS'G'
aS'A'
aS'G'
aS'G'
aS'G'
aS'G'
aS'C'
aS'C'
aS'T'
aS'A'
aS'G'
aS'C'
aS'T'
aS'T'
aS'T'
aS'G'
aS'T'
aS'G'
aS'T'
aS'G'
aS'G'
aS'C'
aS'C'
aS'C'
aS'T'
aS'C'
aS'T'
aS'C'
aS'G'
aS'G'
aS'T'
aS'A'
aS'C'
aS'C'
aS'A'
aS'A'
aS'G'
aS'T'
aS'C'
aS'C'
aS'T'
aS'G'
aS'T'
aS'C'
aS'A'
aS'C'
aS'C'
aS'A'
aS'A'
aS'C'
aS'A'
aS'G'
aS'G'
aS'C'
aS'A'
aS'T'
aS'C'
aS'A'
aS'C'
aS'C'
aS'T'
aS'A'
aS'T'
aS'G'
aS'A'
aS'G'
aS'C'
aS'C'
aS'A'
aS'C'
aS'C'
aS'C'
aS'A'
aS'A'
aS'C'
aS'T'
aS'A'
aS'T'
aS'A'
aS'A'
aS'G'
aS'G'
aS'C'
aS'C'
aS'C'
aS'T'
aS'G'
aS'G'
aS'A'
aS'C'
aS'T'
assI32
(dp151
g85
I25001
sg86
I136
sg87
I436
sg88
I25137
sg89
(lp152
S'G'
aS'G'
aS'C'
aS'C'
aS'A'
aS'C'
aS'C'
aS'A'
aS'C'
aS'C'
aS'A'
aS'A'
aS'G'
aS'G'
aS'A'
aS'G'
aS'C'
aS'C'
aS'C'
aS'G'
aS'T'
aS'C'
aS'T'
aS'T'
aS'T'
aS'A'
aS'T'
aS'C'
aS'C'
aS'C'
aS'T'
aS'A'
aS'G'
aS'A'
aS'C'
aS'C'
aS'A'
aS'G'
aS'G'
aS'T'
aS'G'
aS'C'
aS'T'
aS'G'
aS'T'
aS'A'
aS'C'
aS'C'
aS'C'
aS'T'
aS'C'
aS'A'
aS'T'
aS'T'
aS'C'
aS'T'
aS'T'
aS'C'
aS'C'
aS'A'
aS'A'
aS'C'
aS'C'
aS'A'
aS'G'
aS'G'
aS'G'
aS'G'
aS'C'
aS'T'
aS'G'
aS'G'
aS'G'
aS'G'
aS'C'
aS'A'
aS'G'
aS'G'
aS'G'
aS'A'
aS'G'
aS'G'
aS'C'
aS'T'
aS'G'
aS'T'
aS'G'
aS'G'
aS'G'
aS'A'
aS'A'
aS'C'
aS'A'
aS'G'
aS'G'
aS'G'
aS'A'
aS'G'
aS'A'
aS'G'
aS'G'
aS'G'
aS'G'
aS'C'
aS'C'
aS'T'
aS'A'
aS'G'
aS'C'
aS'T'
aS'T'
aS'T'
aS'G'
aS'T'
aS'G'
aS'T'
aS'G'
aS'G'
aS'C'
aS'C'
aS'C'
aS'T'
aS'C'
aS'T'
aS'C'
aS'G'
aS'G'
aS'T'
aS'A'
aS'C'
aS'C'
aS'A'
aS'A'
aS'G'
aS'T'
aS'C'
aS'C'
aS'T'
aS'G'
aS'T'
aS'C'
aS'A'
aS'C'
aS'C'
aS'A'
aS'A'
aS'C'
aS'A'
aS'G'
aS'G'
aS'C'
aS'A'
aS'T'
aS'C'
aS'A'
aS'C'
aS'C'
aS'T'
aS'A'
aS'T'
aS'G'
aS'A'
aS'G'
aS'C'
aS'C'
aS'A'
aS'C'
aS'C'
aS'C'
aS'A'
aS'A'
aS'C'
aS'T'
aS'A'
aS'T'
aS'A'
aS'A'
aS'G'
aS'G'
aS'C'
aS'C'
aS'C'
aS'T'
aS'G'
aS'G'
aS'A'
aS'C'
aS'T'
aS'T'
aS'C'
aS'T'
aS'C'
aS'C'
aS'G'
aS'A'
aS'G'
aS'G'
aS'C'
aS'C'
aS'C'
aS'C'
aS'A'
aS'A'
aS'G'
aS'C'
aS'T'
aS'T'
aS'C'
aS'A'
aS'C'
aS'C'
aS'C'
aS'G'
aS'G'
aS'C'
aS'C'
aS'C'
aS'C'
aS'T'
aS'G'
aS'G'
aS'T'
aS'G'
aS'A'
aS'A'
aS'C'
aS'C'
aS'G'
aS'C'
aS'T'
aS'C'
aS'G'
aS'G'
aS'T'
aS'C'
aS'A'
aS'T'
aS'C'
aS'G'
aS'C'
aS'G'
aS'G'
aS'G'
aS'C'
aS'T'
aS'A'
aS'C'
aS'A'
aS'C'
aS'T'
aS'G'
aS'C'
aS'T'
aS'A'
aS'T'
aS'G'
aS'C'
aS'T'
aS'C'
aS'T'
aS'G'
aS'C'
aS'T'
aS'G'
aS'T'
aS'G'
aS'C'
aS'T'
aS'G'
aS'T'
aS'C'
aS'C'
aS'G'
aS'G'
aS'G'
aS'G'
aS'T'
aS'A'
aS'G'
aS'C'
aS'C'
aS'C'
aS'C'
aS'A'
aS'A'
aS'G'
aS'G'
aS'T'
aS'A'
aS'G'
aS'G'
aS'G'
aS'A'
aS'A'
aS'C'
aS'T'
aS'T'
aS'T'
aS'A'
aS'G'
aS'G'
aS'C'
aS'G'
aS'C'
aS'T'
aS'G'
aS'G'
aS'T'
aS'C'
aS'C'
aS'A'
aS'G'
aS'G'
aS'C'
aS'C'
aS'G'
aS'A'
aS'C'
aS'C'
aS'A'
aS'G'
aS'G'
aS'A'
aS'G'
aS'G'
aS'C'
aS'A'
aS'G'
aS'G'
aS'G'
aS'C'
aS'T'
aS'C'
aS'A'
aS'C'
aS'A'
aS'G'
aS'G'
aS'C'
aS'C'
aS'C'
aS'C'
aS'G'
aS'A'
aS'C'
aS'G'
aS'T'
aS'T'
aS'G'
aS'A'
aS'G'
aS'C'
aS'A'
aS'G'
aS'T'
aS'C'
aS'C'
aS'T'
aS'C'
aS'T'
aS'C'
aS'C'
aS'C'
aS'C'
aS'A'
aS'G'
aS'C'
aS'C'
aS'T'
aS'G'
aS'T'
aS'C'
aS'T'
aS'C'
aS'C'
aS'C'
aS'C'
aS'T'
aS'G'
aS'C'
aS'T'
aS'T'
aS'T'
aS'C'
aS'T'
aS'C'
aS'T'
aS'C'
aS'C'
aS'A'
aS'C'
aS'C'
aS'T'
aS'T'
aS'G'
aS'G'
aS'G'
aS'G'
aS'T'
aS'G'
aS'T'
aS'A'
aS'T'
aS'G'
aS'G'
aS'A'
aS'C'
aS'C'
aS'G'
aS'G'
aS'G'
aS'T'
aS'T'
aS'C'
aS'C'
aS'T'
aS'C'
aS'C'
aS'C'
aS'C'
aS'C'
aS'T'
aS'G'
aS'G'
aS'G'
aS'C'
aS'A'
aS'G'
aS'G'
aS'G'
aS'C'
aS'C'
aS'A'
aS'T'
aS'G'
aS'G'
assI33
(dp153
g85
I25445
sg86
I186
sg87
I486
sg88
I25631
sg89
(lp154
S'C'
aS'T'
aS'T'
aS'G'
aS'G'
aS'T'
aS'T'
aS'C'
aS'C'
aS'A'
aS'T'
aS'G'
aS'T'
aS'T'
aS'T'
aS'G'
aS'T'
aS'T'
aS'T'
aS'C'
aS'C'
aS'A'
aS'G'
aS'C'
aS'C'
aS'T'
aS'T'
aS'G'
aS'G'
aS'G'
aS'C'
aS'A'
aS'T'
aS'A'
aS'G'
aS'T'
aS'C'
aS'A'
aS'G'
aS'G'
aS'G'
aS'A'
aS'C'
aS'T'
aS'C'
aS'T'
aS'C'
aS'G'
aS'T'
aS'G'
aS'G'
aS'G'
aS'A'
aS'C'
aS'C'
aS'C'
aS'C'
aS'C'
aS'C'
aS'G'
aS'A'
aS'G'
aS'T'
aS'A'
aS'G'
aS'A'
aS'A'
aS'A'
aS'C'
aS'A'
aS'C'
aS'A'
aS'G'
aS'A'
aS'T'
aS'G'
aS'T'
aS'G'
aS'T'
aS'C'
aS'T'
aS'C'
aS'C'
aS'C'
aS'T'
aS'G'
aS'G'
aS'G'
aS'T'
aS'C'
aS'C'
aS'C'
aS'T'
aS'G'
aS'C'
aS'C'
aS'A'
aS'G'
aS'G'
aS'T'
aS'C'
aS'C'
aS'C'
aS'C'
aS'T'
aS'C'
aS'T'
aS'C'
aS'A'
aS'G'
aS'C'
aS'C'
aS'T'
aS'G'
aS'G'
aS'A'
aS'T'
aS'G'
aS'G'
aS'C'
aS'T'
aS'T'
aS'C'
aS'C'
aS'C'
aS'T'
aS'C'
aS'C'
aS'C'
aS'T'
aS'C'
aS'T'
aS'C'
aS'T'
aS'T'
aS'T'
aS'A'
aS'C'
aS'C'
aS'T'
aS'T'
aS'A'
aS'T'
aS'T'
aS'T'
aS'A'
aS'T'
aS'A'
aS'G'
aS'C'
aS'C'
aS'C'
aS'A'
aS'A'
aS'G'
aS'A'
aS'T'
aS'T'
aS'T'
aS'C'
aS'C'
aS'T'
aS'G'
aS'G'
aS'T'
aS'T'
aS'C'
aS'A'
aS'A'
aS'G'
aS'A'
aS'A'
aS'T'
aS'G'
aS'G'
aS'C'
aS'C'
aS'T'
aS'G'
aS'G'
aS'A'
aS'C'
aS'C'
aS'T'
aS'G'
aS'G'
aS'G'
aS'A'
aS'G'
aS'A'
aS'A'
aS'G'
aS'A'
aS'C'
aS'G'
aS'C'
aS'C'
aS'C'
aS'G'
aS'C'
aS'T'
aS'T'
aS'C'
aS'C'
aS'G'
aS'C'
aS'A'
aS'T'
aS'G'
aS'T'
aS'T'
aS'C'
aS'A'
aS'G'
aS'C'
aS'A'
aS'A'
aS'G'
aS'C'
aS'A'
aS'G'
aS'G'
aS'G'
aS'A'
aS'G'
aS'T'
aS'G'
aS'T'
aS'T'
aS'G'
aS'A'
aS'C'
aS'T'
aS'C'
aS'T'
aS'G'
aS'G'
aS'A'
aS'G'
aS'A'
aS'T'
aS'T'
aS'A'
aS'G'
aS'A'
aS'A'
aS'A'
aS'G'
aS'C'
aS'C'
aS'C'
aS'T'
aS'G'
aS'C'
aS'C'
aS'C'
aS'C'
aS'T'
aS'T'
aS'T'
aS'G'
aS'A'
aS'C'
aS'G'
aS'G'
aS'G'
aS'G'
aS'G'
aS'C'
aS'A'
aS'T'
aS'C'
aS'T'
aS'A'
aS'T'
aS'C'
aS'T'
aS'C'
aS'T'
aS'G'
aS'C'
aS'A'
aS'G'
aS'G'
aS'G'
aS'C'
aS'C'
aS'A'
aS'C'
aS'C'
aS'A'
aS'A'
aS'C'
aS'T'
aS'T'
aS'A'
aS'C'
aS'A'
aS'G'
aS'G'
aS'G'
aS'C'
aS'G'
aS'A'
aS'G'
aS'G'
aS'C'
aS'A'
aS'C'
aS'G'
aS'G'
aS'T'
aS'G'
aS'T'
aS'G'
aS'A'
aS'G'
aS'T'
aS'G'
aS'C'
aS'C'
aS'G'
aS'C'
aS'C'
aS'T'
aS'G'
aS'G'
aS'A'
aS'G'
aS'G'
aS'T'
aS'G'
aS'C'
aS'G'
aS'A'
aS'G'
aS'G'
aS'T'
aS'G'
aS'A'
aS'G'
aS'G'
aS'A'
aS'G'
aS'C'
aS'C'
aS'C'
aS'T'
aS'C'
aS'G'
aS'G'
aS'G'
aS'G'
aS'C'
aS'C'
aS'A'
aS'G'
aS'G'
aS'G'
aS'C'
aS'C'
aS'T'
aS'G'
aS'G'
aS'G'
aS'A'
aS'G'
aS'A'
aS'T'
aS'G'
aS'G'
aS'G'
aS'A'
aS'A'
aS'G'
aS'A'
aS'G'
aS'C'
aS'G'
aS'G'
aS'G'
aS'C'
aS'G'
aS'G'
aS'C'
aS'A'
aS'G'
aS'T'
aS'G'
aS'G'
aS'G'
aS'G'
aS'A'
aS'C'
aS'C'
aS'C'
aS'T'
aS'G'
aS'G'
aS'G'
aS'C'
aS'T'
aS'T'
aS'T'
aS'G'
aS'C'
aS'T'
aS'C'
aS'C'
aS'G'
aS'T'
aS'T'
aS'G'
aS'T'
aS'C'
aS'C'
aS'T'
aS'C'
aS'G'
aS'G'
aS'C'
aS'C'
aS'A'
aS'A'
aS'G'
aS'C'
aS'A'
aS'C'
aS'C'
aS'T'
aS'G'
aS'C'
aS'C'
aS'C'
aS'T'
aS'G'
aS'G'
aS'C'
aS'T'
aS'G'
aS'C'
aS'A'
aS'A'
aS'G'
aS'G'
aS'G'
aS'C'
aS'A'
aS'C'
aS'G'
aS'G'
aS'A'
aS'C'
aS'C'
aS'C'
aS'T'
aS'G'
aS'C'
aS'C'
aS'A'
aS'C'
aS'G'
aS'C'
aS'C'
aS'C'
aS'A'
aS'G'
aS'A'
aS'T'
aS'G'
aS'G'
aS'G'
aS'C'
aS'A'
aS'A'
aS'T'
aS'A'
aS'G'
aS'C'
aS'T'
aS'T'
aS'C'
aS'C'
aS'A'
aS'G'
aS'A'
assI34
(dp155
g85
I25822
sg86
I36
sg87
I336
sg88
I25858
sg89
(lp156
S'C'
aS'G'
aS'G'
aS'G'
aS'C'
aS'G'
aS'G'
aS'C'
aS'A'
aS'G'
aS'T'
aS'G'
aS'G'
aS'G'
aS'G'
aS'A'
aS'C'
aS'C'
aS'C'
aS'T'
aS'G'
aS'G'
aS'G'
aS'C'
aS'T'
aS'T'
aS'T'
aS'G'
aS'C'
aS'T'
aS'C'
aS'C'
aS'G'
aS'T'
aS'T'
aS'G'
aS'T'
aS'C'
aS'C'
aS'T'
aS'C'
aS'G'
aS'G'
aS'C'
aS'C'
aS'A'
aS'A'
aS'G'
aS'C'
aS'A'
aS'C'
aS'C'
aS'T'
aS'G'
aS'C'
aS'C'
aS'C'
aS'T'
aS'G'
aS'G'
aS'C'
aS'T'
aS'G'
aS'C'
aS'A'
aS'A'
aS'G'
aS'G'
aS'G'
aS'C'
aS'A'
aS'C'
aS'G'
aS'G'
aS'A'
aS'C'
aS'C'
aS'C'
aS'T'
aS'G'
aS'C'
aS'C'
aS'A'
aS'C'
aS'G'
aS'C'
aS'C'
aS'C'
aS'A'
aS'G'
aS'A'
aS'T'
aS'G'
aS'G'
aS'G'
aS'C'
aS'A'
aS'A'
aS'T'
aS'A'
aS'G'
aS'C'
aS'T'
aS'T'
aS'C'
aS'C'
aS'A'
aS'G'
aS'A'
aS'A'
aS'G'
aS'G'
aS'C'
aS'T'
aS'G'
aS'G'
aS'G'
aS'A'
aS'G'
aS'G'
aS'A'
aS'C'
aS'A'
aS'C'
aS'A'
aS'G'
aS'T'
aS'G'
aS'A'
aS'C'
aS'A'
aS'T'
aS'G'
aS'G'
aS'C'
aS'C'
aS'T'
aS'C'
aS'C'
aS'T'
aS'C'
aS'T'
aS'T'
aS'C'
aS'T'
aS'G'
aS'C'
aS'A'
aS'G'
aS'T'
aS'G'
aS'C'
aS'C'
aS'T'
aS'G'
aS'A'
aS'G'
aS'T'
aS'G'
aS'A'
aS'C'
aS'C'
aS'A'
aS'G'
aS'G'
aS'C'
aS'T'
aS'G'
aS'G'
aS'C'
aS'T'
aS'C'
aS'C'
aS'T'
aS'G'
aS'G'
aS'G'
aS'G'
aS'A'
aS'T'
aS'G'
aS'G'
aS'C'
aS'C'
aS'A'
aS'G'
aS'G'
aS'T'
aS'A'
aS'T'
aS'G'
aS'T'
aS'A'
aS'C'
aS'C'
aS'A'
aS'C'
aS'C'
aS'C'
aS'G'
aS'A'
aS'C'
aS'A'
aS'C'
aS'C'
aS'C'
aS'A'
aS'G'
aS'G'
aS'G'
aS'C'
aS'A'
aS'C'
aS'A'
aS'A'
aS'G'
aS'T'
aS'C'
aS'A'
aS'G'
aS'T'
aS'G'
aS'G'
aS'C'
aS'T'
aS'G'
aS'A'
aS'G'
aS'C'
aS'C'
aS'C'
aS'T'
aS'G'
aS'G'
aS'C'
aS'C'
aS'C'
aS'T'
aS'T'
aS'G'
aS'G'
aS'T'
aS'C'
aS'C'
aS'T'
aS'G'
aS'G'
aS'G'
aS'G'
aS'C'
aS'A'
aS'G'
aS'C'
aS'C'
aS'A'
aS'T'
aS'C'
aS'A'
aS'G'
aS'T'
aS'A'
aS'A'
aS'A'
aS'T'
aS'G'
aS'G'
aS'G'
aS'A'
aS'G'
aS'G'
aS'C'
aS'T'
aS'G'
aS'T'
aS'A'
aS'G'
aS'G'
aS'G'
aS'G'
aS'C'
aS'C'
aS'C'
aS'T'
aS'C'
aS'C'
aS'A'
aS'T'
aS'T'
aS'C'
aS'A'
aS'C'
aS'T'
aS'C'
aS'G'
aS'T'
aS'A'
aS'A'
aS'G'
aS'A'
aS'T'
aS'A'
aS'A'
aS'C'
aS'C'
aS'T'
aS'G'
aS'T'
aS'G'
aS'T'
aS'T'
aS'G'
aS'C'
aS'A'
aS'G'
aS'G'
aS'T'
aS'A'
aS'C'
aS'A'
aS'A'
aS'C'
aS'C'
aS'G'
aS'G'
aS'A'
aS'T'
aS'G'
aS'C'
aS'C'
aS'A'
aS'G'
aS'C'
aS'C'
aS'C'
aS'C'
aS'G'
assI35
(dp157
g85
I25987
sg86
I310
sg87
I610
sg88
I26297
sg89
(lp158
S'C'
aS'T'
aS'G'
aS'G'
aS'C'
aS'T'
aS'C'
aS'C'
aS'T'
aS'G'
aS'G'
aS'G'
aS'G'
aS'A'
aS'T'
aS'G'
aS'G'
aS'C'
aS'C'
aS'A'
aS'G'
aS'G'
aS'T'
aS'A'
aS'T'
aS'G'
aS'T'
aS'A'
aS'C'
aS'C'
aS'A'
aS'C'
aS'C'
aS'C'
aS'G'
aS'A'
aS'C'
aS'A'
aS'C'
aS'C'
aS'C'
aS'A'
aS'G'
aS'G'
aS'G'
aS'C'
aS'A'
aS'C'
aS'A'
aS'A'
aS'G'
aS'T'
aS'C'
aS'A'
aS'G'
aS'T'
aS'G'
aS'G'
aS'C'
aS'T'
aS'G'
aS'A'
aS'G'
aS'C'
aS'C'
aS'C'
aS'T'
aS'G'
aS'G'
aS'C'
aS'C'
aS'C'
aS'T'
aS'T'
aS'G'
aS'G'
aS'T'
aS'C'
aS'C'
aS'T'
aS'G'
aS'G'
aS'G'
aS'G'
aS'C'
aS'A'
aS'G'
aS'C'
aS'C'
aS'A'
aS'T'
aS'C'
aS'A'
aS'G'
aS'T'
aS'A'
aS'A'
aS'A'
aS'T'
aS'G'
aS'G'
aS'G'
aS'A'
aS'G'
aS'G'
aS'C'
aS'T'
aS'G'
aS'T'
aS'A'
aS'G'
aS'G'
aS'G'
aS'G'
aS'C'
aS'C'
aS'C'
aS'T'
aS'C'
aS'C'
aS'A'
aS'T'
aS'T'
aS'C'
aS'A'
aS'C'
aS'T'
aS'C'
aS'G'
aS'T'
aS'A'
aS'A'
aS'G'
aS'A'
aS'T'
aS'A'
aS'A'
aS'C'
aS'C'
aS'T'
aS'G'
aS'T'
aS'G'
aS'T'
aS'T'
aS'G'
aS'C'
aS'A'
aS'G'
aS'G'
aS'T'
aS'A'
aS'C'
aS'A'
aS'A'
aS'C'
aS'C'
aS'G'
aS'G'
aS'A'
aS'T'
aS'G'
aS'C'
aS'C'
aS'A'
aS'G'
aS'C'
aS'C'
aS'C'
aS'C'
aS'G'
aS'T'
aS'G'
aS'C'
aS'C'
aS'A'
aS'G'
aS'G'
aS'A'
aS'G'
aS'C'
aS'C'
aS'T'
aS'G'
aS'G'
aS'A'
aS'G'
aS'G'
aS'G'
aS'A'
aS'A'
aS'G'
aS'T'
aS'T'
aS'G'
aS'G'
aS'G'
aS'G'
aS'A'
aS'A'
aS'A'
aS'C'
aS'C'
aS'C'
aS'C'
aS'T'
aS'C'
aS'C'
aS'C'
aS'T'
aS'A'
aS'C'
aS'C'
aS'G'
aS'T'
aS'T'
aS'G'
aS'G'
aS'A'
aS'T'
aS'G'
aS'T'
aS'A'
aS'T'
aS'G'
aS'T'
aS'G'
aS'T'
aS'G'
aS'A'
aS'C'
aS'A'
aS'A'
aS'G'
aS'T'
aS'G'
aS'T'
aS'G'
aS'T'
aS'C'
aS'T'
aS'C'
aS'C'
aS'T'
aS'G'
aS'T'
aS'G'
aS'C'
aS'T'
aS'G'
aS'C'
aS'G'
aS'A'
aS'T'
aS'G'
aS'G'
aS'G'
aS'G'
aS'G'
aS'A'
aS'T'
aS'C'
aS'A'
aS'G'
aS'C'
aS'A'
aS'G'
aS'G'
aS'G'
aS'C'
aS'A'
aS'G'
aS'T'
aS'T'
aS'G'
aS'T'
aS'C'
aS'G'
aS'G'
aS'G'
aS'C'
aS'A'
aS'G'
aS'T'
aS'C'
aS'C'
aS'T'
aS'G'
aS'A'
aS'G'
aS'T'
aS'G'
aS'G'
aS'G'
aS'T'
aS'G'
aS'T'
aS'T'
aS'G'
aS'C'
aS'A'
aS'C'
aS'A'
aS'G'
aS'A'
aS'C'
aS'T'
aS'G'
aS'G'
aS'T'
aS'C'
aS'C'
aS'A'
aS'C'
aS'A'
aS'G'
aS'G'
aS'G'
aS'C'
aS'T'
aS'C'
aS'C'
aS'T'
aS'G'
aS'A'
aS'A'
aS'G'
aS'G'
aS'A'
aS'A'
aS'G'
aS'C'
aS'C'
aS'C'
aS'C'
aS'T'
aS'G'
aS'G'
aS'A'
aS'T'
aS'C'
aS'T'
aS'T'
aS'T'
aS'G'
aS'G'
aS'G'
aS'G'
aS'T'
aS'A'
aS'A'
aS'A'
aS'A'
aS'G'
aS'G'
aS'A'
aS'G'
aS'G'
aS'G'
aS'T'
aS'G'
aS'G'
aS'C'
aS'C'
aS'T'
aS'C'
aS'A'
aS'A'
aS'G'
aS'A'
aS'A'
aS'A'
aS'C'
aS'A'
aS'A'
aS'T'
aS'G'
aS'T'
aS'C'
aS'T'
aS'G'
aS'G'
aS'G'
aS'G'
aS'A'
aS'C'
aS'A'
aS'G'
aS'G'
aS'C'
aS'C'
aS'T'
aS'T'
aS'T'
aS'C'
aS'T'
aS'G'
aS'G'
aS'C'
aS'C'
aS'T'
aS'G'
aS'C'
aS'T'
aS'A'
aS'T'
aS'G'
aS'T'
aS'C'
aS'T'
aS'T'
aS'C'
aS'C'
aS'C'
aS'A'
aS'A'
aS'T'
aS'G'
aS'T'
aS'T'
aS'T'
aS'A'
aS'T'
aS'T'
aS'G'
aS'G'
aS'G'
aS'C'
aS'A'
aS'A'
aS'T'
aS'A'
aS'A'
aS'A'
aS'A'
aS'G'
aS'A'
aS'T'
aS'A'
aS'A'
aS'G'
aS'T'
aS'G'
aS'C'
aS'A'
aS'G'
aS'T'
aS'C'
aS'A'
aS'C'
aS'A'
aS'G'
aS'A'
aS'G'
aS'A'
aS'A'
aS'C'
aS'T'
aS'C'
aS'A'
aS'C'
aS'T'
aS'C'
aS'T'
aS'T'
aS'C'
aS'T'
aS'C'
aS'A'
aS'A'
aS'T'
aS'T'
aS'T'
aS'C'
aS'G'
aS'G'
aS'T'
aS'G'
aS'T'
aS'G'
aS'C'
aS'C'
aS'T'
aS'G'
aS'T'
aS'T'
aS'T'
aS'T'
aS'C'
aS'A'
aS'T'
aS'A'
aS'A'
aS'A'
aS'A'
aS'A'
aS'T'
aS'G'
aS'C'
aS'A'
aS'C'
aS'A'
aS'G'
aS'G'
aS'G'
aS'G'
aS'A'
aS'T'
aS'G'
aS'G'
aS'C'
aS'C'
aS'A'
aS'G'
aS'G'
aS'T'
aS'G'
aS'C'
aS'G'
aS'G'
aS'T'
aS'G'
aS'G'
aS'C'
aS'T'
aS'C'
aS'A'
aS'T'
aS'G'
aS'C'
aS'C'
aS'T'
aS'G'
aS'T'
aS'T'
aS'A'
aS'T'
aS'C'
aS'C'
aS'C'
aS'A'
aS'G'
aS'C'
aS'A'
aS'C'
aS'T'
aS'T'
aS'T'
aS'G'
aS'G'
aS'G'
aS'A'
aS'G'
aS'G'
aS'C'
aS'G'
aS'G'
aS'A'
aS'G'
aS'G'
aS'C'
aS'G'
aS'G'
aS'G'
aS'C'
aS'C'
aS'G'
aS'A'
aS'T'
aS'C'
aS'A'
aS'C'
aS'C'
aS'T'
aS'G'
aS'A'
aS'G'
aS'G'
aS'T'
aS'C'
aS'A'
aS'G'
aS'G'
aS'A'
aS'G'
aS'A'
aS'T'
aS'C'
aS'A'
aS'A'
aS'G'
aS'A'
aS'C'
aS'C'
aS'A'
aS'G'
aS'C'
aS'C'
aS'T'
aS'G'
aS'G'
aS'C'
aS'C'
aS'A'
aS'A'
aS'C'
aS'A'
aS'T'
aS'G'
aS'G'
assss.