(dp1
I1
(dp2
S'exon list'
p3
(lp4
I1
aI2
aI3
aI4
aI5
asS'variants'
p5
(dp6
I1
(dp7
S'position'
p8
I5172
sS'transcript'
p9
S'NM_000304.2'
p10
sS'new base'
p11
S'T'
sS'hgvs'
p12
S'c.-4428G>T'
p13
ssI2
(dp14
g8
I9603
sg9
g10
sg11
S'A'
sg12
S'c.C4A'
p15
ssI3
(dp16
g8
I11203
sg9
g10
sg11
S'T'
sg12
S'c.G148T'
p17
ssI4
(dp18
g8
I30742
sg9
g10
sg11
S'C'
sg12
S'c.A205C'
p19
ssI5
(dp20
g8
I40018
sg9
g10
sg11
S'G'
sg12
S'c.*608T>G'
p21
sssS'exons'
p22
(dp23
I1
(dp24
S'start'
p25
I5001
sS'length'
p26
I173
sS'padded length'
p27
I473
sS'end'
p28
I5174
sS'padded seq'
p29
(lp30
S'G'
aS'C'
aS'C'
aS'T'
aS'C'
aS'T'
aS'T'
aS'G'
aS'G'
aS'G'
aS'A'
aS'T'
aS'T'
aS'A'
aS'T'
aS'T'
aS'G'
aS'T'
aS'A'
aS'T'
aS'T'
aS'C'
aS'T'
aS'G'
aS'G'
aS'A'
aS'A'
aS'A'
aS'G'
aS'C'
aS'A'
aS'A'
aS'A'
aS'C'
aS'A'
aS'A'
aS'A'
aS'G'
aS'T'
aS'T'
aS'G'
aS'G'
aS'A'
aS'C'
aS'A'
aS'C'
aS'T'
aS'G'
aS'T'
aS'C'
aS'T'
aS'C'
aS'T'
aS'T'
aS'T'
aS'A'
aS'A'
aS'A'
aS'T'
aS'A'
aS'A'
aS'T'
aS'A'
aS'G'
aS'A'
aS'G'
aS'G'
aS'C'
aS'T'
aS'G'
aS'A'
aS'G'
aS'A'
aS'A'
aS'C'
aS'C'
aS'T'
aS'C'
aS'T'
aS'C'
aS'A'
aS'G'
aS'G'
aS'C'
aS'C'
aS'A'
aS'C'
aS'C'
aS'A'
aS'T'
aS'G'
aS'A'
aS'C'
aS'A'
aS'T'
aS'A'
aS'T'
aS'C'
aS'C'
aS'C'
aS'A'
aS'G'
aS'C'
aS'A'
aS'T'
aS'T'
aS'G'
aS'G'
aS'A'
aS'C'
aS'C'
aS'A'
aS'G'
aS'C'
aS'C'
aS'C'
aS'C'
aS'T'
aS'G'
aS'A'
aS'A'
aS'T'
aS'A'
aS'A'
aS'A'
aS'C'
aS'T'
aS'G'
aS'G'
aS'A'
aS'A'
aS'A'
aS'G'
aS'A'
aS'C'
aS'G'
aS'C'
aS'C'
aS'T'
aS'G'
aS'G'
aS'T'
aS'C'
aS'T'
aS'G'
aS'G'
aS'C'
aS'T'
aS'T'
aS'C'
aS'A'
aS'G'
aS'T'
aS'T'
aS'A'
aS'C'
aS'A'
aS'G'
aS'G'
aS'G'
aS'A'
aS'G'
aS'C'
aS'A'
aS'C'
aS'C'
aS'A'
aS'C'
aS'C'
aS'A'
aS'G'
aS'G'
aS'G'
aS'A'
aS'A'
aS'C'
aS'A'
aS'T'
aS'C'
aS'T'
aS'C'
aS'G'
aS'G'
aS'G'
aS'G'
aS'A'
aS'G'
aS'C'
aS'C'
aS'T'
aS'G'
aS'G'
aS'T'
aS'T'
aS'G'
aS'G'
aS'A'
aS'A'
aS'G'
aS'C'
aS'T'
aS'G'
aS'C'
aS'A'
aS'G'
aS'G'
aS'C'
aS'T'
aS'T'
aS'A'
aS'G'
aS'T'
aS'C'
aS'T'
aS'G'
aS'T'
aS'C'
aS'G'
aS'G'
aS'C'
aS'T'
aS'G'
aS'C'
aS'G'
aS'G'
aS'G'
aS'T'
aS'C'
aS'T'
aS'C'
aS'T'
aS'G'
aS'A'
aS'C'
aS'T'
aS'G'
aS'C'
aS'C'
aS'C'
aS'T'
aS'G'
aS'T'
aS'G'
aS'G'
aS'G'
aS'G'
aS'A'
aS'G'
aS'G'
aS'G'
aS'T'
aS'C'
aS'T'
aS'T'
aS'G'
aS'C'
aS'C'
aS'T'
aS'T'
aS'A'
aS'A'
aS'C'
aS'A'
aS'T'
aS'C'
aS'C'
aS'C'
aS'T'
aS'T'
aS'G'
aS'C'
aS'A'
aS'T'
aS'T'
aS'T'
aS'G'
aS'G'
aS'C'
aS'T'
aS'G'
aS'C'
aS'A'
aS'A'
aS'A'
aS'G'
aS'A'
aS'A'
aS'A'
aS'T'
aS'C'
aS'T'
aS'G'
aS'C'
aS'T'
aS'T'
aS'G'
aS'G'
aS'A'
aS'A'
aS'G'
aS'A'
aS'A'
aS'G'
aS'G'
aS'G'
aS'G'
aS'T'
aS'T'
aS'A'
aS'C'
aS'G'
aS'C'
aS'T'
aS'G'
aS'T'
aS'T'
aS'T'
aS'G'
aS'G'
aS'C'
aS'C'
aS'T'
aS'G'
aS'G'
aS'T'
aS'G'
aS'A'
aS'G'
aS'T'
aS'T'
aS'T'
aS'T'
aS'A'
aS'T'
aS'T'
aS'G'
aS'G'
aS'C'
aS'A'
aS'A'
aS'A'
aS'C'
aS'T'
aS'G'
aS'T'
aS'G'
aS'C'
aS'C'
aS'T'
aS'C'
aS'T'
aS'G'
aS'G'
aS'G'
aS'T'
aS'G'
aS'A'
aS'T'
aS'G'
aS'T'
aS'G'
aS'T'
aS'G'
aS'C'
aS'C'
aS'T'
aS'A'
aS'T'
aS'G'
aS'C'
aS'T'
aS'T'
aS'T'
aS'A'
aS'C'
aS'A'
aS'A'
aS'G'
aS'A'
aS'A'
aS'T'
aS'T'
aS'G'
aS'C'
aS'C'
aS'T'
aS'A'
aS'A'
aS'T'
aS'T'
aS'T'
aS'C'
aS'C'
aS'C'
aS'A'
aS'C'
aS'C'
aS'C'
aS'C'
aS'C'
aS'T'
aS'G'
aS'C'
aS'A'
aS'A'
aS'G'
aS'C'
aS'C'
aS'G'
aS'C'
aS'A'
aS'A'
aS'A'
aS'T'
aS'G'
aS'A'
aS'A'
aS'A'
aS'A'
aS'G'
aS'G'
aS'A'
aS'T'
aS'T'
aS'G'
aS'C'
aS'A'
aS'G'
aS'G'
aS'A'
aS'G'
aS'A'
aS'G'
aS'A'
aS'T'
aS'G'
aS'G'
aS'T'
aS'G'
aS'C'
aS'A'
aS'T'
aS'T'
aS'T'
aS'G'
aS'T'
aS'G'
aS'T'
aS'T'
aS'G'
aS'G'
aS'A'
aS'A'
aS'T'
aS'T'
aS'G'
aS'A'
aS'C'
aS'T'
aS'G'
aS'G'
aS'A'
aS'G'
aS'A'
aS'T'
aS'T'
aS'C'
aS'A'
aS'G'
aS'A'
aS'G'
aS'G'
aS'G'
assI2
(dp31
g25
I9567
sg26
I111
sg27
I411
sg28
I9678
sg29
(lp32
S'G'
aS'C'
aS'G'
aS'C'
aS'G'
aS'A'
aS'A'
aS'G'
aS'G'
aS'C'
aS'T'
aS'C'
aS'C'
aS'T'
aS'G'
aS'A'
aS'C'
aS'C'
aS'C'
aS'G'
aS'C'
aS'G'
aS'C'
aS'G'
aS'G'
aS'G'
aS'C'
aS'G'
aS'G'
aS'T'
aS'C'
aS'G'
aS'G'
aS'G'
aS'C'
aS'T'
aS'G'
aS'C'
aS'G'
aS'G'
aS'G'
aS'C'
aS'G'
aS'C'
aS'T'
aS'G'
aS'G'
aS'G'
aS'C'
aS'C'
aS'A'
aS'G'
aS'G'
aS'C'
aS'C'
aS'G'
aS'G'
aS'G'
aS'C'
aS'C'
aS'T'
aS'T'
aS'C'
aS'C'
aS'G'
aS'C'
aS'T'
aS'A'
aS'G'
aS'T'
aS'G'
aS'C'
aS'G'
aS'C'
aS'G'
aS'G'
aS'G'
aS'A'
aS'C'
aS'C'
aS'C'
aS'T'
aS'C'
aS'C'
aS'C'
aS'T'
aS'C'
aS'T'
aS'G'
aS'C'
aS'G'
aS'C'
aS'G'
aS'C'
aS'G'
aS'C'
aS'C'
aS'T'
aS'C'
aS'C'
aS'G'
aS'T'
aS'C'
aS'G'
aS'C'
aS'T'
aS'C'
aS'G'
aS'G'
aS'C'
aS'C'
aS'C'
aS'A'
aS'G'
aS'T'
aS'G'
aS'C'
aS'G'
aS'T'
aS'T'
aS'C'
aS'G'
aS'G'
aS'C'
aS'C'
aS'T'
aS'C'
aS'A'
aS'C'
aS'G'
aS'C'
aS'C'
aS'C'
aS'A'
aS'G'
aS'C'
aS'G'
aS'C'
aS'T'
aS'C'
aS'T'
aS'C'
aS'C'
aS'T'
aS'C'
aS'G'
aS'C'
aS'A'
aS'G'
aS'G'
aS'C'
aS'A'
aS'G'
aS'A'
aS'A'
aS'A'
aS'C'
aS'T'
aS'C'
aS'C'
aS'G'
aS'C'
aS'T'
aS'G'
aS'A'
aS'G'
aS'C'
aS'A'
aS'G'
aS'A'
aS'A'
aS'C'
aS'T'
aS'T'
aS'G'
aS'C'
aS'C'
aS'G'
aS'C'
aS'C'
aS'A'
aS'G'
aS'A'
aS'A'
aS'T'
aS'G'
aS'A'
aS'T'
aS'C'
aS'C'
aS'T'
aS'C'
aS'C'
aS'T'
aS'G'
aS'T'
aS'T'
aS'G'
aS'C'
aS'T'
aS'G'
aS'A'
aS'G'
aS'T'
aS'A'
aS'T'
aS'C'
aS'A'
aS'T'
aS'C'
aS'G'
aS'T'
aS'C'
aS'C'
aS'T'
aS'C'
aS'C'
aS'A'
aS'C'
aS'G'
aS'T'
aS'C'
aS'G'
aS'C'
aS'G'
aS'G'
aS'T'
aS'G'
aS'C'
aS'T'
aS'G'
aS'G'
aS'T'
aS'G'
aS'C'
aS'T'
aS'G'
aS'C'
aS'T'
aS'G'
aS'T'
aS'T'
aS'C'
aS'G'
aS'T'
aS'C'
aS'T'
aS'C'
aS'C'
aS'A'
aS'C'
aS'G'
aS'A'
aS'T'
aS'C'
aS'G'
aS'T'
aS'C'
aS'A'
aS'G'
aS'C'
aS'G'
aS'T'
aS'G'
aS'A'
aS'G'
aS'T'
aS'G'
aS'C'
aS'C'
aS'T'
aS'G'
aS'G'
aS'C'
aS'G'
aS'G'
aS'G'
aS'G'
aS'A'
aS'G'
aS'G'
aS'C'
aS'T'
aS'C'
aS'C'
aS'C'
aS'T'
aS'G'
aS'C'
aS'G'
aS'C'
aS'G'
aS'G'
aS'C'
aS'C'
aS'C'
aS'G'
aS'C'
aS'C'
aS'C'
aS'T'
aS'T'
aS'C'
aS'C'
aS'C'
aS'C'
aS'A'
aS'T'
aS'C'
aS'T'
aS'G'
aS'G'
aS'G'
aS'T'
aS'T'
aS'C'
aS'C'
aS'C'
aS'A'
aS'G'
aS'C'
aS'C'
aS'C'
aS'G'
aS'T'
aS'G'
aS'C'
aS'T'
aS'C'
aS'C'
aS'T'
aS'G'
aS'C'
aS'T'
aS'G'
aS'G'
aS'T'
aS'T'
aS'C'
aS'A'
aS'G'
aS'G'
aS'A'
aS'C'
aS'T'
aS'G'
aS'T'
aS'G'
aS'T'
aS'T'
aS'A'
aS'T'
aS'T'
aS'T'
aS'G'
aS'C'
aS'A'
aS'G'
aS'A'
aS'C'
aS'A'
aS'G'
aS'T'
aS'T'
aS'G'
aS'G'
aS'A'
aS'A'
aS'G'
aS'T'
aS'C'
aS'T'
aS'C'
aS'A'
aS'G'
aS'A'
aS'C'
aS'G'
aS'T'
aS'C'
aS'C'
aS'C'
aS'A'
aS'G'
aS'G'
aS'G'
aS'A'
aS'A'
aS'G'
aS'T'
aS'T'
aS'T'
aS'C'
aS'T'
aS'G'
aS'G'
aS'C'
aS'A'
aS'A'
aS'T'
aS'C'
aS'T'
aS'G'
aS'C'
aS'C'
aS'C'
aS'C'
aS'C'
aS'T'
aS'T'
aS'C'
assI3
(dp33
g25
I11135
sg26
I99
sg27
I399
sg28
I11234
sg29
(lp34
S'C'
aS'A'
aS'T'
aS'A'
aS'A'
aS'A'
aS'A'
aS'C'
aS'G'
aS'T'
aS'T'
aS'G'
aS'G'
aS'C'
aS'T'
aS'C'
aS'T'
aS'T'
aS'A'
aS'C'
aS'C'
aS'A'
aS'T'
aS'G'
aS'C'
aS'A'
aS'G'
aS'G'
aS'G'
aS'G'
aS'T'
aS'G'
aS'G'
aS'G'
aS'C'
aS'G'
aS'G'
aS'T'
aS'G'
aS'T'
aS'G'
aS'G'
aS'C'
aS'T'
aS'A'
aS'G'
aS'G'
aS'T'
aS'G'
aS'G'
aS'A'
aS'T'
aS'G'
aS'C'
aS'G'
aS'G'
aS'G'
aS'T'
aS'G'
aS'C'
aS'T'
aS'T'
aS'T'
aS'T'
aS'C'
aS'G'
aS'C'
aS'C'
aS'A'
aS'T'
aS'C'
aS'C'
aS'C'
aS'T'
aS'G'
aS'G'
aS'G'
aS'C'
aS'C'
aS'T'
aS'T'
aS'T'
aS'C'
aS'T'
aS'C'
aS'C'
aS'T'
aS'T'
aS'C'
aS'C'
aS'C'
aS'C'
aS'T'
aS'T'
aS'T'
aS'T'
aS'C'
aS'C'
aS'T'
aS'T'
aS'C'
aS'A'
aS'C'
aS'T'
aS'C'
aS'C'
aS'T'
aS'C'
aS'C'
aS'C'
aS'T'
aS'C'
aS'C'
aS'C'
aS'T'
aS'C'
aS'C'
aS'C'
aS'T'
aS'G'
aS'A'
aS'C'
aS'T'
aS'C'
aS'A'
aS'G'
aS'G'
aS'A'
aS'T'
aS'A'
aS'T'
aS'C'
aS'T'
aS'A'
aS'T'
aS'C'
aS'T'
aS'G'
aS'A'
aS'T'
aS'T'
aS'C'
aS'T'
aS'C'
aS'T'
aS'C'
aS'T'
aS'A'
aS'G'
aS'C'
aS'A'
aS'A'
aS'T'
aS'G'
aS'G'
aS'A'
aS'T'
aS'C'
aS'G'
aS'T'
aS'G'
aS'G'
aS'G'
aS'C'
aS'A'
aS'A'
aS'T'
aS'G'
aS'G'
aS'A'
aS'C'
aS'A'
aS'C'
aS'G'
aS'C'
aS'A'
aS'A'
aS'C'
aS'T'
aS'G'
aS'A'
aS'T'
aS'C'
aS'T'
aS'C'
aS'T'
aS'G'
aS'G'
aS'C'
aS'A'
aS'G'
aS'A'
aS'A'
aS'C'
aS'T'
aS'G'
aS'T'
aS'A'
aS'G'
aS'C'
aS'A'
aS'C'
aS'C'
aS'T'
aS'C'
aS'T'
aS'T'
aS'C'
aS'C'
aS'T'
aS'C'
aS'A'
aS'G'
aS'G'
aS'A'
aS'A'
aS'A'
aS'T'
aS'T'
aS'T'
aS'C'
aS'C'
aS'A'
aS'C'
aS'C'
aS'A'
aS'C'
aS'T'
aS'G'
aS'T'
aS'T'
aS'T'
aS'C'
aS'T'
aS'C'
aS'A'
aS'T'
aS'C'
aS'A'
aS'T'
aS'C'
aS'A'
aS'C'
aS'C'
aS'A'
aS'A'
aS'A'
aS'C'
aS'G'
aS'G'
aS'T'
aS'G'
aS'A'
aS'G'
aS'G'
aS'C'
aS'T'
aS'G'
aS'G'
aS'T'
aS'T'
aS'T'
aS'T'
aS'G'
aS'T'
aS'G'
aS'C'
aS'T'
aS'C'
aS'C'
aS'A'
aS'T'
aS'G'
aS'A'
aS'G'
aS'C'
aS'T'
aS'T'
aS'G'
aS'T'
aS'C'
aS'C'
aS'T'
aS'C'
aS'A'
aS'G'
aS'A'
aS'C'
aS'G'
aS'C'
aS'C'
aS'T'
aS'G'
aS'T'
aS'A'
aS'A'
aS'C'
aS'A'
aS'C'
aS'G'
aS'T'
aS'T'
aS'T'
aS'C'
aS'T'
aS'C'
aS'A'
aS'G'
aS'C'
aS'C'
aS'C'
aS'A'
aS'G'
aS'A'
aS'G'
aS'C'
aS'T'
aS'G'
aS'G'
aS'A'
aS'A'
aS'A'
aS'C'
aS'G'
aS'C'
aS'T'
aS'T'
aS'A'
aS'T'
aS'T'
aS'G'
aS'G'
aS'A'
aS'A'
aS'G'
aS'A'
aS'C'
aS'A'
aS'C'
aS'A'
aS'A'
aS'G'
aS'C'
aS'C'
aS'A'
aS'G'
aS'A'
aS'A'
aS'T'
aS'G'
aS'T'
aS'C'
aS'G'
aS'T'
aS'T'
aS'G'
aS'C'
aS'T'
aS'G'
aS'G'
aS'G'
aS'G'
aS'T'
aS'G'
aS'G'
aS'G'
aS'G'
aS'T'
aS'G'
aS'G'
aS'G'
aS'A'
aS'T'
aS'G'
aS'T'
aS'G'
aS'A'
aS'C'
aS'A'
aS'G'
aS'G'
aS'G'
aS'A'
aS'G'
aS'C'
aS'C'
aS'A'
aS'T'
aS'G'
aS'A'
aS'G'
aS'T'
aS'C'
aS'C'
aS'A'
aS'G'
aS'G'
aS'G'
aS'A'
assI4
(dp35
g25
I30717
sg26
I140
sg27
I440
sg28
I30857
sg29
(lp36
S'T'
aS'G'
aS'A'
aS'G'
aS'T'
aS'T'
aS'C'
aS'T'
aS'G'
aS'C'
aS'T'
aS'A'
aS'A'
aS'G'
aS'G'
aS'A'
aS'A'
aS'A'
aS'A'
aS'A'
aS'G'
aS'G'
aS'A'
aS'C'
aS'T'
aS'T'
aS'C'
aS'T'
aS'G'
aS'C'
aS'T'
aS'T'
aS'C'
aS'T'
aS'G'
aS'C'
aS'T'
aS'G'
aS'C'
aS'C'
aS'T'
aS'G'
aS'T'
aS'G'
aS'A'
aS'G'
aS'G'
aS'A'
aS'C'
aS'T'
aS'G'
aS'T'
aS'G'
aS'C'
aS'T'
aS'G'
aS'T'
aS'C'
aS'A'
aS'G'
aS'C'
aS'A'
aS'G'
aS'T'
aS'C'
aS'A'
aS'T'
aS'G'
aS'G'
aS'C'
aS'C'
aS'C'
aS'T'
aS'T'
aS'C'
aS'A'
aS'G'
aS'G'
aS'C'
aS'C'
aS'C'
aS'T'
aS'G'
aS'C'
aS'A'
aS'C'
aS'C'
aS'T'
aS'C'
aS'G'
aS'A'
aS'G'
aS'G'
aS'C'
aS'A'
aS'G'
aS'A'
aS'G'
aS'C'
aS'C'
aS'C'
aS'T'
aS'C'
aS'C'
aS'C'
aS'C'
aS'C'
aS'G'
aS'G'
aS'C'
aS'C'
aS'A'
aS'T'
aS'G'
aS'G'
aS'C'
aS'C'
aS'A'
aS'G'
aS'C'
aS'T'
aS'C'
aS'T'
aS'C'
aS'C'
aS'T'
aS'A'
aS'A'
aS'C'
aS'C'
aS'A'
aS'A'
aS'G'
aS'T'
aS'G'
aS'T'
aS'C'
aS'T'
aS'C'
aS'T'
aS'T'
aS'T'
aS'C'
aS'C'
aS'C'
aS'C'
aS'C'
aS'A'
aS'G'
aS'A'
aS'A'
aS'T'
aS'G'
aS'G'
aS'C'
aS'T'
aS'G'
aS'C'
aS'A'
aS'G'
aS'T'
aS'C'
aS'T'
aS'G'
aS'T'
aS'C'
aS'C'
aS'A'
aS'G'
aS'G'
aS'C'
aS'C'
aS'A'
aS'C'
aS'C'
aS'C'
aS'T'
aS'G'
aS'A'
aS'T'
aS'C'
aS'C'
aS'T'
aS'G'
aS'T'
aS'C'
aS'G'
aS'A'
aS'T'
aS'C'
aS'A'
aS'T'
aS'C'
aS'T'
aS'T'
aS'C'
aS'A'
aS'G'
aS'C'
aS'A'
aS'T'
aS'T'
aS'C'
aS'T'
aS'G'
aS'T'
aS'C'
aS'T'
aS'C'
aS'T'
aS'G'
aS'T'
aS'T'
aS'C'
aS'C'
aS'T'
aS'G'
aS'T'
aS'T'
aS'C'
aS'T'
aS'T'
aS'C'
aS'T'
aS'G'
aS'C'
aS'C'
aS'A'
aS'A'
aS'C'
aS'T'
aS'C'
aS'T'
aS'T'
aS'C'
aS'A'
aS'C'
aS'C'
aS'C'
aS'T'
aS'C'
aS'A'
aS'C'
aS'C'
aS'A'
aS'A'
aS'G'
aS'G'
aS'G'
aS'G'
aS'G'
aS'G'
aS'C'
aS'A'
aS'G'
aS'G'
aS'T'
aS'T'
aS'T'
aS'T'
aS'A'
aS'C'
aS'A'
aS'T'
aS'C'
aS'A'
aS'C'
aS'T'
aS'G'
aS'G'
aS'A'
aS'A'
aS'T'
aS'C'
aS'T'
aS'T'
aS'C'
aS'C'
aS'A'
aS'A'
aS'A'
aS'T'
aS'T'
aS'C'
aS'T'
aS'T'
aS'G'
aS'C'
aS'T'
aS'G'
aS'G'
aS'T'
aS'A'
aS'A'
aS'G'
aS'T'
aS'T'
aS'G'
aS'T'
aS'G'
aS'G'
aS'A'
aS'T'
aS'G'
aS'G'
aS'T'
aS'A'
aS'A'
aS'A'
aS'G'
aS'T'
aS'C'
aS'C'
aS'A'
aS'T'
aS'G'
aS'T'
aS'G'
aS'G'
aS'A'
aS'A'
aS'G'
aS'C'
aS'G'
aS'G'
aS'G'
aS'G'
aS'T'
aS'G'
aS'C'
aS'A'
aS'T'
aS'C'
aS'C'
aS'A'
aS'A'
aS'G'
aS'T'
aS'C'
aS'T'
aS'G'
aS'C'
aS'G'
aS'G'
aS'A'
aS'A'
aS'T'
aS'G'
aS'A'
aS'T'
aS'T'
aS'A'
aS'G'
aS'T'
aS'T'
aS'T'
aS'A'
aS'G'
aS'T'
aS'A'
aS'G'
aS'A'
aS'A'
aS'G'
aS'G'
aS'A'
aS'T'
aS'G'
aS'T'
aS'G'
aS'G'
aS'C'
aS'C'
aS'T'
aS'C'
aS'A'
aS'G'
aS'A'
aS'A'
aS'T'
aS'G'
aS'A'
aS'C'
aS'T'
aS'G'
aS'A'
aS'T'
aS'G'
aS'T'
aS'T'
aS'C'
aS'A'
aS'T'
aS'G'
aS'A'
aS'G'
aS'T'
aS'C'
aS'T'
aS'C'
aS'C'
aS'C'
aS'C'
aS'A'
aS'C'
aS'T'
aS'G'
aS'G'
aS'A'
aS'T'
aS'G'
aS'C'
aS'T'
aS'T'
aS'T'
aS'C'
aS'C'
aS'A'
aS'T'
aS'A'
aS'A'
aS'A'
aS'G'
aS'T'
aS'G'
aS'A'
aS'G'
aS'G'
aS'G'
aS'T'
aS'G'
aS'G'
aS'G'
aS'T'
aS'G'
aS'C'
aS'T'
aS'T'
aS'G'
aS'T'
assI5
(dp37
g25
I39248
sg26
I1300
sg27
I1600
sg28
I40548
sg29
(lp38
S'C'
aS'T'
aS'C'
aS'C'
aS'T'
aS'T'
aS'T'
aS'C'
aS'A'
aS'A'
aS'T'
aS'T'
aS'C'
aS'T'
aS'G'
aS'G'
aS'A'
aS'C'
aS'C'
aS'T'
aS'G'
aS'G'
aS'A'
aS'A'
aS'G'
aS'C'
aS'A'
aS'G'
aS'A'
aS'T'
aS'T'
aS'T'
aS'C'
aS'C'
aS'T'
aS'T'
aS'C'
aS'C'
aS'A'
aS'G'
aS'A'
aS'G'
aS'G'
aS'T'
aS'A'
aS'G'
aS'A'
aS'A'
aS'A'
aS'T'
aS'G'
aS'T'
aS'T'
aS'C'
aS'T'
aS'T'
aS'C'
aS'C'
aS'T'
aS'A'
aS'C'
aS'C'
aS'C'
aS'A'
aS'G'
aS'C'
aS'A'
aS'A'
aS'T'
aS'T'
aS'G'
aS'T'
aS'C'
aS'A'
aS'G'
aS'C'
aS'A'
aS'T'
aS'C'
aS'C'
aS'G'
aS'G'
aS'G'
aS'G'
aS'T'
aS'G'
aS'G'
aS'C'
aS'G'
aS'G'
aS'A'
aS'G'
aS'A'
aS'G'
aS'G'
aS'G'
aS'G'
aS'G'
aS'C'
aS'C'
aS'G'
aS'C'
aS'T'
aS'C'
aS'T'
aS'G'
aS'C'
aS'C'
aS'A'
aS'T'
aS'G'
aS'G'
aS'A'
aS'C'
aS'T'
aS'C'
aS'T'
aS'C'
aS'C'
aS'G'
aS'T'
aS'C'
aS'A'
aS'C'
aS'C'
aS'C'
aS'A'
aS'G'
aS'C'
aS'T'
aS'T'
aS'G'
aS'T'
aS'C'
aS'C'
aS'C'
aS'T'
aS'C'
aS'T'
aS'C'
aS'C'
aS'T'
aS'T'
aS'C'
aS'C'
aS'C'
aS'C'
aS'A'
aS'G'
aS'G'
aS'T'
aS'C'
aS'T'
aS'G'
aS'T'
aS'G'
aS'C'
aS'G'
aS'T'
aS'G'
aS'A'
aS'T'
aS'G'
aS'A'
aS'G'
aS'T'
aS'G'
aS'C'
aS'T'
aS'G'
aS'C'
aS'G'
aS'G'
aS'C'
aS'C'
aS'A'
aS'T'
aS'C'
aS'T'
aS'A'
aS'C'
aS'A'
aS'C'
aS'G'
aS'G'
aS'T'
aS'G'
aS'A'
aS'G'
aS'G'
aS'C'
aS'A'
aS'C'
aS'C'
aS'C'
aS'G'
aS'G'
aS'A'
aS'G'
aS'T'
aS'G'
aS'G'
aS'C'
aS'A'
aS'T'
aS'C'
aS'T'
aS'C'
aS'A'
aS'A'
aS'C'
aS'T'
aS'C'
aS'G'
aS'G'
aS'A'
aS'T'
aS'T'
aS'A'
aS'C'
aS'T'
aS'C'
aS'C'
aS'T'
aS'A'
aS'C'
aS'G'
aS'G'
aS'T'
aS'T'
aS'T'
aS'C'
aS'G'
aS'C'
aS'C'
aS'T'
aS'A'
aS'C'
aS'A'
aS'T'
aS'C'
aS'C'
aS'T'
aS'G'
aS'G'
aS'C'
aS'C'
aS'T'
aS'G'
aS'G'
aS'G'
aS'T'
aS'G'
aS'G'
aS'C'
aS'C'
aS'T'
aS'T'
aS'C'
aS'C'
aS'C'
aS'C'
aS'C'
aS'T'
aS'G'
aS'G'
aS'C'
aS'C'
aS'C'
aS'T'
aS'T'
aS'C'
aS'T'
aS'C'
aS'A'
aS'G'
aS'C'
aS'G'
aS'G'
aS'T'
aS'G'
aS'T'
aS'C'
aS'A'
aS'T'
aS'C'
aS'T'
aS'A'
aS'T'
aS'G'
aS'T'
aS'G'
aS'A'
aS'T'
aS'C'
aS'T'
aS'T'
aS'G'
aS'C'
aS'G'
aS'G'
aS'A'
aS'A'
aS'A'
aS'C'
aS'G'
aS'C'
aS'G'
aS'A'
aS'A'
aS'T'
aS'G'
aS'A'
aS'G'
aS'G'
aS'C'
aS'G'
aS'C'
aS'C'
aS'C'
aS'A'
aS'G'
aS'A'
aS'C'
aS'G'
aS'G'
aS'T'
aS'C'
aS'T'
aS'G'
aS'T'
aS'C'
aS'T'
aS'G'
aS'A'
aS'G'
aS'G'
aS'C'
aS'T'
aS'C'
aS'T'
aS'G'
aS'A'
aS'G'
aS'C'
aS'G'
aS'T'
aS'A'
aS'C'
aS'A'
aS'T'
aS'A'
aS'G'
aS'G'
aS'G'
aS'A'
aS'A'
aS'G'
aS'G'
aS'G'
aS'A'
aS'G'
aS'G'
aS'A'
aS'A'
aS'G'
aS'G'
aS'G'
aS'A'
aS'A'
aS'A'
aS'A'
aS'C'
aS'A'
aS'G'
aS'A'
aS'A'
aS'A'
aS'G'
aS'C'
aS'A'
aS'G'
aS'A'
aS'C'
aS'A'
aS'A'
aS'A'
aS'G'
aS'A'
aS'A'
aS'A'
aS'A'
aS'A'
aS'A'
aS'G'
aS'A'
aS'G'
aS'C'
aS'T'
aS'A'
aS'G'
aS'C'
aS'C'
aS'C'
aS'A'
aS'A'
aS'A'
aS'A'
aS'T'
aS'C'
aS'C'
aS'C'
aS'A'
aS'A'
aS'A'
aS'C'
aS'T'
aS'C'
aS'A'
aS'A'
aS'A'
aS'C'
aS'C'
aS'A'
aS'A'
aS'A'
aS'C'
aS'C'
aS'A'
aS'A'
aS'A'
aS'C'
aS'A'
aS'G'
aS'A'
aS'A'
aS'A'
aS'G'
aS'C'
aS'A'
aS'G'
aS'T'
aS'G'
aS'G'
aS'A'
aS'G'
aS'G'
aS'T'
aS'G'
aS'G'
aS'G'
aS'G'
aS'G'
aS'T'
aS'T'
aS'G'
aS'C'
aS'T'
aS'G'
aS'T'
aS'T'
aS'G'
aS'A'
aS'T'
aS'T'
aS'G'
aS'A'
aS'A'
aS'G'
aS'A'
aS'T'
aS'G'
aS'T'
aS'A'
aS'T'
aS'A'
aS'T'
aS'A'
aS'A'
aS'T'
aS'A'
aS'T'
aS'C'
aS'T'
aS'C'
aS'C'
aS'G'
aS'G'
aS'T'
aS'T'
aS'T'
aS'A'
aS'T'
aS'A'
aS'A'
aS'A'
aS'A'
aS'C'
aS'C'
aS'T'
aS'A'
aS'T'
aS'T'
aS'T'
aS'A'
aS'T'
aS'A'
aS'A'
aS'C'
aS'A'
aS'C'
aS'T'
aS'T'
aS'T'
aS'T'
aS'T'
aS'A'
aS'C'
aS'A'
aS'T'
aS'A'
aS'T'
aS'A'
aS'T'
aS'G'
aS'T'
aS'A'
aS'C'
aS'A'
aS'T'
aS'A'
aS'G'
aS'T'
aS'A'
aS'T'
aS'T'
aS'G'
aS'T'
aS'T'
aS'T'
aS'G'
aS'C'
aS'T'
aS'T'
aS'T'
aS'T'
aS'T'
aS'A'
aS'T'
aS'G'
aS'T'
aS'T'
aS'G'
aS'A'
aS'C'
aS'C'
aS'A'
aS'T'
aS'C'
aS'A'
aS'G'
aS'C'
aS'C'
aS'T'
aS'C'
aS'G'
aS'T'
aS'G'
aS'T'
aS'T'
aS'G'
aS'A'
aS'G'
aS'C'
aS'C'
aS'T'
aS'T'
aS'A'
aS'A'
aS'A'
aS'G'
aS'A'
aS'A'
aS'G'
aS'T'
aS'A'
aS'G'
aS'C'
aS'T'
aS'A'
aS'A'
aS'G'
aS'G'
aS'A'
aS'A'
aS'C'
aS'T'
aS'T'
aS'T'
aS'A'
aS'C'
aS'A'
aS'T'
aS'C'
aS'C'
aS'T'
aS'A'
aS'A'
aS'C'
aS'A'
aS'G'
aS'T'
aS'A'
aS'T'
aS'A'
aS'A'
aS'T'
aS'C'
aS'C'
aS'A'
aS'G'
aS'C'
aS'T'
aS'C'
aS'A'
aS'G'
aS'T'
aS'A'
aS'T'
aS'T'
aS'T'
aS'T'
aS'T'
aS'G'
aS'T'
aS'T'
aS'T'
aS'T'
aS'G'
aS'T'
aS'T'
aS'T'
aS'T'
aS'T'
aS'T'
aS'G'
aS'T'
aS'T'
aS'T'
aS'G'
aS'T'
aS'T'
aS'T'
aS'G'
aS'T'
aS'T'
aS'T'
aS'T'
aS'G'
aS'T'
aS'T'
aS'T'
aS'T'
aS'A'
aS'C'
aS'C'
aS'C'
aS'A'
aS'G'
aS'A'
aS'A'
aS'A'
aS'T'
aS'A'
aS'A'
aS'G'
aS'A'
aS'T'
aS'A'
aS'A'
aS'C'
aS'T'
aS'C'
aS'C'
aS'A'
aS'T'
aS'C'
aS'T'
aS'C'
aS'G'
aS'C'
aS'C'
aS'C'
aS'C'
aS'T'
aS'T'
aS'C'
aS'C'
aS'C'
aS'T'
aS'T'
aS'T'
aS'C'
aS'A'
aS'T'
aS'C'
aS'T'
aS'G'
aS'A'
aS'A'
aS'A'
aS'G'
aS'A'
aS'A'
aS'G'
aS'A'
aS'T'
aS'A'
aS'C'
aS'C'
aS'T'
aS'C'
aS'C'
aS'C'
aS'T'
aS'C'
aS'C'
aS'C'
aS'A'
aS'G'
aS'T'
aS'C'
aS'C'
aS'A'
aS'C'
aS'C'
aS'T'
aS'C'
aS'A'
aS'T'
aS'T'
aS'T'
aS'A'
aS'G'
aS'A'
aS'A'
aS'A'
aS'A'
aS'C'
aS'C'
aS'A'
aS'A'
aS'A'
aS'G'
aS'T'
aS'G'
aS'T'
aS'G'
aS'G'
aS'G'
aS'T'
aS'A'
aS'G'
aS'A'
aS'A'
aS'A'
aS'C'
aS'C'
aS'C'
aS'C'
aS'A'
aS'A'
aS'A'
aS'T'
aS'G'
aS'T'
aS'C'
aS'C'
aS'A'
aS'A'
aS'A'
aS'A'
aS'G'
aS'C'
aS'C'
aS'C'
aS'T'
aS'T'
aS'T'
aS'T'
aS'C'
aS'T'
aS'G'
aS'G'
aS'T'
aS'G'
aS'G'
aS'G'
aS'T'
aS'G'
aS'A'
aS'C'
aS'C'
aS'C'
aS'A'
aS'G'
aS'T'
aS'G'
aS'C'
aS'A'
aS'T'
aS'C'
aS'C'
aS'A'
aS'A'
aS'C'
aS'A'
aS'G'
aS'A'
aS'A'
aS'A'
aS'C'
aS'A'
aS'G'
aS'C'
aS'C'
aS'G'
aS'C'
aS'T'
aS'G'
aS'C'
aS'C'
aS'C'
aS'G'
aS'A'
aS'A'
aS'C'
aS'C'
aS'T'
aS'C'
aS'T'
aS'G'
aS'T'
aS'G'
aS'T'
aS'G'
aS'A'
aS'A'
aS'G'
aS'C'
aS'T'
aS'T'
aS'T'
aS'A'
aS'C'
aS'G'
aS'C'
aS'G'
aS'C'
aS'A'
aS'C'
aS'A'
aS'C'
aS'G'
aS'G'
aS'A'
aS'C'
aS'A'
aS'A'
aS'A'
aS'A'
aS'T'
aS'G'
aS'C'
aS'C'
aS'C'
aS'A'
aS'A'
aS'A'
aS'C'
aS'T'
aS'G'
aS'G'
aS'A'
aS'G'
aS'C'
aS'C'
aS'C'
aS'T'
aS'T'
aS'G'
aS'C'
aS'A'
aS'A'
aS'A'
aS'A'
aS'A'
aS'C'
aS'A'
aS'C'
aS'G'
aS'G'
aS'C'
aS'T'
aS'T'
aS'G'
aS'T'
aS'G'
aS'G'
aS'C'
aS'A'
aS'T'
aS'T'
aS'G'
aS'G'
aS'C'
aS'A'
aS'T'
aS'A'
aS'C'
aS'G'
aS'T'
aS'G'
aS'C'
aS'C'
aS'C'
aS'T'
aS'T'
aS'A'
aS'C'
aS'A'
aS'G'
aS'G'
aS'T'
aS'G'
aS'G'
aS'A'
aS'G'
aS'T'
aS'A'
aS'T'
aS'C'
aS'T'
aS'T'
aS'C'
aS'G'
aS'T'
aS'C'
aS'A'
aS'C'
aS'A'
aS'C'
aS'A'
aS'T'
aS'C'
aS'T'
aS'A'
aS'A'
aS'A'
aS'T'
aS'G'
aS'A'
aS'G'
aS'A'
aS'A'
aS'A'
aS'T'
aS'C'
aS'A'
aS'G'
aS'T'
aS'G'
aS'A'
aS'C'
aS'A'
aS'A'
aS'C'
aS'A'
aS'A'
aS'G'
aS'T'
aS'C'
aS'T'
aS'T'
aS'T'
aS'G'
aS'A'
aS'A'
aS'A'
aS'T'
aS'G'
aS'G'
aS'T'
aS'G'
aS'C'
aS'T'
aS'A'
aS'T'
aS'G'
aS'G'
aS'A'
aS'T'
aS'T'
aS'T'
aS'A'
aS'C'
aS'C'
aS'A'
aS'T'
aS'T'
aS'C'
aS'C'
aS'T'
aS'T'
aS'A'
aS'T'
aS'T'
aS'A'
aS'T'
aS'C'
aS'A'
aS'C'
aS'T'
aS'A'
aS'A'
aS'T'
aS'C'
aS'A'
aS'T'
aS'C'
aS'T'
aS'A'
aS'A'
aS'A'
aS'C'
aS'A'
aS'A'
aS'C'
aS'T'
aS'C'
aS'A'
aS'C'
aS'T'
aS'G'
aS'G'
aS'A'
aS'A'
aS'A'
aS'T'
aS'C'
aS'C'
aS'A'
aS'A'
aS'T'
aS'T'
aS'A'
aS'A'
aS'C'
aS'A'
aS'A'
aS'T'
aS'T'
aS'T'
aS'T'
aS'A'
aS'C'
aS'A'
aS'A'
aS'C'
aS'A'
aS'T'
aS'A'
aS'A'
aS'G'
aS'A'
aS'T'
aS'A'
aS'G'
aS'A'
aS'A'
aS'T'
aS'G'
aS'G'
aS'A'
aS'G'
aS'A'
aS'C'
aS'C'
aS'T'
aS'G'
aS'A'
aS'A'
aS'T'
aS'A'
aS'A'
aS'T'
aS'T'
aS'C'
aS'T'
aS'G'
aS'T'
aS'G'
aS'T'
aS'A'
aS'A'
aS'T'
aS'A'
aS'T'
aS'A'
aS'A'
aS'A'
aS'T'
aS'G'
aS'G'
aS'T'
aS'T'
aS'T'
aS'A'
aS'T'
aS'A'
aS'A'
aS'C'
aS'T'
aS'G'
aS'C'
aS'T'
aS'T'
aS'T'
aS'T'
aS'G'
aS'T'
aS'A'
aS'C'
aS'C'
aS'T'
aS'A'
aS'G'
aS'C'
aS'T'
aS'A'
aS'G'
aS'G'
aS'C'
aS'T'
aS'G'
aS'C'
aS'T'
aS'A'
aS'T'
aS'T'
aS'A'
aS'T'
aS'T'
aS'A'
aS'C'
aS'T'
aS'A'
aS'T'
aS'A'
aS'A'
aS'T'
aS'G'
aS'A'
aS'G'
aS'T'
aS'A'
aS'A'
aS'A'
aS'T'
aS'C'
aS'A'
aS'T'
aS'A'
aS'A'
aS'A'
aS'G'
aS'C'
aS'C'
aS'T'
aS'T'
aS'C'
aS'A'
aS'T'
aS'C'
aS'A'
aS'C'
aS'T'
aS'C'
aS'C'
aS'C'
aS'A'
aS'C'
aS'A'
aS'T'
aS'T'
aS'T'
aS'T'
aS'T'
aS'C'
aS'T'
aS'T'
aS'A'
aS'C'
aS'G'
aS'G'
aS'T'
aS'C'
aS'G'
aS'G'
aS'A'
aS'G'
aS'C'
aS'A'
aS'T'
aS'C'
aS'A'
aS'G'
aS'A'
aS'A'
aS'C'
aS'A'
aS'A'
aS'G'
aS'C'
aS'G'
aS'T'
aS'C'
aS'T'
aS'A'
aS'G'
aS'A'
aS'C'
aS'T'
aS'C'
aS'C'
aS'T'
aS'T'
aS'G'
aS'G'
aS'G'
aS'A'
aS'C'
aS'C'
aS'G'
aS'T'
aS'G'
aS'A'
aS'G'
aS'T'
aS'T'
aS'C'
aS'C'
aS'T'
aS'A'
aS'G'
aS'A'
aS'G'
aS'C'
aS'T'
aS'T'
aS'G'
aS'G'
aS'C'
aS'T'
aS'G'
aS'G'
aS'G'
aS'T'
aS'C'
aS'T'
aS'A'
aS'G'
aS'G'
aS'C'
aS'T'
aS'G'
aS'T'
aS'T'
aS'C'
aS'T'
aS'G'
aS'T'
aS'G'
aS'C'
aS'C'
aS'T'
aS'C'
aS'C'
aS'A'
aS'A'
aS'G'
aS'G'
aS'A'
aS'C'
aS'T'
aS'G'
aS'T'
aS'C'
aS'T'
aS'G'
aS'G'
aS'C'
aS'A'
aS'A'
aS'T'
aS'G'
aS'A'
aS'C'
aS'T'
aS'T'
aS'G'
aS'T'
aS'A'
aS'T'
aS'T'
aS'G'
aS'G'
aS'C'
aS'C'
aS'A'
aS'C'
aS'C'
aS'A'
aS'A'
aS'C'
aS'T'
aS'G'
aS'T'
aS'A'
aS'G'
aS'A'
aS'T'
aS'G'
aS'T'
aS'A'
aS'T'
aS'A'
aS'T'
aS'A'
aS'T'
aS'G'
aS'G'
aS'T'
aS'G'
aS'C'
aS'C'
aS'C'
aS'T'
aS'T'
aS'C'
aS'T'
aS'G'
aS'A'
aS'T'
aS'G'
aS'C'
aS'T'
aS'A'
aS'A'
aS'G'
aS'A'
aS'C'
aS'T'
aS'C'
aS'C'
aS'A'
aS'G'
aS'A'
aS'C'
aS'C'
aS'T'
aS'T'
aS'T'
aS'T'
aS'G'
aS'T'
aS'T'
aS'T'
aS'T'
aS'T'
aS'G'
aS'C'
aS'T'
aS'T'
aS'T'
aS'G'
aS'C'
aS'A'
aS'T'
aS'T'
aS'T'
aS'T'
aS'C'
aS'T'
aS'G'
aS'A'
aS'T'
aS'T'
aS'T'
aS'T'
aS'A'
aS'T'
aS'A'
aS'C'
aS'C'
aS'A'
aS'A'
aS'C'
aS'T'
aS'G'
aS'T'
aS'G'
aS'T'
aS'G'
aS'G'
aS'A'
aS'C'
aS'T'
aS'A'
aS'A'
aS'G'
aS'A'
aS'T'
aS'G'
aS'C'
aS'A'
aS'T'
aS'T'
aS'A'
aS'A'
aS'A'
aS'A'
aS'T'
aS'A'
aS'A'
aS'A'
aS'C'
aS'A'
aS'T'
aS'C'
aS'A'
aS'G'
aS'A'
aS'G'
aS'T'
aS'A'
aS'A'
aS'C'
aS'T'
aS'C'
aS'A'
aS'C'
aS'T'
aS'G'
aS'G'
aS'T'
aS'C'
aS'T'
aS'C'
aS'T'
aS'C'
aS'T'
aS'T'
aS'G'
aS'A'
aS'G'
aS'T'
aS'T'
aS'T'
aS'T'
aS'T'
aS'G'
aS'T'
aS'G'
aS'G'
aS'G'
aS'A'
aS'A'
aS'C'
aS'T'
aS'T'
aS'G'
aS'G'
aS'G'
aS'T'
aS'G'
aS'T'
aS'G'
aS'G'
aS'G'
aS'T'
aS'A'
aS'C'
aS'A'
aS'A'
aS'G'
aS'G'
aS'T'
aS'G'
aS'C'
aS'C'
aS'T'
aS'G'
aS'T'
aS'T'
aS'G'
aS'G'
aS'A'
aS'G'
aS'C'
aS'A'
aS'G'
aS'G'
aS'A'
aS'T'
aS'G'
aS'A'
aS'A'
aS'G'
aS'A'
aS'G'
aS'C'
aS'T'
aS'T'
aS'C'
aS'A'
aS'G'
aS'T'
aS'G'
aS'G'
aS'A'
aS'A'
aS'A'
aS'G'
aS'C'
aS'A'
aS'A'
aS'A'
aS'G'
aS'T'
aS'T'
aS'G'
aS'A'
aS'G'
aS'C'
aS'T'
aS'G'
aS'G'
aS'A'
aS'G'
aS'A'
aS'T'
aS'T'
aS'T'
aS'G'
aS'G'
aS'G'
aS'T'
aS'T'
aS'A'
aS'C'
aS'A'
aS'A'
aS'G'
aS'A'
aS'T'
aS'G'
aS'G'
aS'T'
aS'G'
aS'C'
aS'T'
aS'A'
aS'A'
aS'G'
aS'G'
aS'C'
aS'A'
aS'C'
aS'C'
aS'A'
aS'A'
aS'A'
aS'A'
aS'T'
aS'C'
aS'A'
aS'T'
aS'A'
aS'G'
aS'C'
aS'T'
aS'G'
aS'T'
aS'T'
aS'T'
aS'T'
aS'A'
aS'C'
aS'A'
assss.